---
triple:          'arm64-apple-darwin'
binary-path:     '/Users/philtrem/Projects/qwen3.5-35B3A-flash-mlx-turbo-quant/target/debug/deps/libflash_expert.dylib'
relocations:
  - { offset: 0x1E, size: 0x8, addend: 0x0, symName: '__ZN187_$LT$core..iter..adapters..step_by..StepBy$LT$core..ops..range..Range$LT$usize$GT$$GT$$u20$as$u20$core..iter..adapters..step_by..StepByImpl$LT$core..ops..range..Range$LT$usize$GT$$GT$$GT$9spec_next17h001de94764e6c7e0E', symObjAddr: 0x0, symBinAddr: 0x888, symSize: 0xF0 }
  - { offset: 0x184, size: 0x8, addend: 0x0, symName: '__ZN187_$LT$core..iter..adapters..step_by..StepBy$LT$core..ops..range..Range$LT$usize$GT$$GT$$u20$as$u20$core..iter..adapters..step_by..StepByImpl$LT$core..ops..range..Range$LT$usize$GT$$GT$$GT$9spec_next17h001de94764e6c7e0E', symObjAddr: 0x0, symBinAddr: 0x888, symSize: 0xF0 }
  - { offset: 0x69B, size: 0x8, addend: 0x0, symName: '__ZN104_$LT$core..iter..adapters..copied..Copied$LT$I$GT$$u20$as$u20$core..iter..traits..iterator..Iterator$GT$4next17ha44a90956769ce40E', symObjAddr: 0x0, symBinAddr: 0x978, symSize: 0x5C }
  - { offset: 0x8F9, size: 0x8, addend: 0x0, symName: '__ZN104_$LT$core..iter..adapters..copied..Copied$LT$I$GT$$u20$as$u20$core..iter..traits..iterator..Iterator$GT$4next17ha44a90956769ce40E', symObjAddr: 0x0, symBinAddr: 0x978, symSize: 0x5C }
  - { offset: 0x99E, size: 0x8, addend: 0x0, symName: '__ZN63_$LT$I$u20$as$u20$core..iter..traits..collect..IntoIterator$GT$9into_iter17hf3d4f762d0bea360E', symObjAddr: 0x5C, symBinAddr: 0x9D4, symSize: 0x1C }
  - { offset: 0xC3E, size: 0x8, addend: 0x0, symName: __ZN4pyo310conversion15IntoPyObjectExt17into_bound_py_any17h000d1ff201034c37E, symObjAddr: 0x0, symBinAddr: 0x9F0, symSize: 0xE0 }
  - { offset: 0xCDF, size: 0x8, addend: 0x0, symName: __ZN4pyo310conversion15IntoPyObjectExt17into_bound_py_any17h000d1ff201034c37E, symObjAddr: 0x0, symBinAddr: 0x9F0, symSize: 0xE0 }
  - { offset: 0xD72, size: 0x8, addend: 0x0, symName: __ZN4pyo310conversion15IntoPyObjectExt17into_bound_py_any17heced3e2930380325E, symObjAddr: 0xE0, symBinAddr: 0xAD0, symSize: 0x4C }
  - { offset: 0xDE2, size: 0x8, addend: 0x0, symName: __ZN4pyo310conversion15IntoPyObjectExt17into_bound_py_any17hf4b6cf30c89013feE, symObjAddr: 0x12C, symBinAddr: 0xB1C, symSize: 0x4C }
  - { offset: 0x1912, size: 0x8, addend: 0x0, symName: __ZN4pyo35impl_10trampoline11module_init17hcfe2467302ca28e8E, symObjAddr: 0x0, symBinAddr: 0xB68, symSize: 0x28 }
  - { offset: 0x19B3, size: 0x8, addend: 0x0, symName: __ZN4pyo35impl_10trampoline11module_init17hcfe2467302ca28e8E, symObjAddr: 0x0, symBinAddr: 0xB68, symSize: 0x28 }
  - { offset: 0x19DF, size: 0x8, addend: 0x0, symName: __ZN4pyo35impl_10trampoline22fastcall_with_keywords17he35eca26b13044d9E, symObjAddr: 0x28, symBinAddr: 0xB90, symSize: 0x5C }
  - { offset: 0x1A43, size: 0x8, addend: 0x0, symName: __ZN4pyo35impl_10trampoline6noargs17hc448c04a89300bb2E, symObjAddr: 0x84, symBinAddr: 0xBEC, symSize: 0x64 }
  - { offset: 0x1A8B, size: 0x8, addend: 0x0, symName: __ZN4pyo35impl_10trampoline7dealloc17hf0d98611139ba2d9E, symObjAddr: 0xE8, symBinAddr: 0xC50, symSize: 0x34 }
  - { offset: 0x1AC1, size: 0x8, addend: 0x0, symName: __ZN4pyo35impl_10trampoline7newfunc17h64e9bbb899a389d6E, symObjAddr: 0x11C, symBinAddr: 0xC84, symSize: 0x50 }
  - { offset: 0x2448, size: 0x8, addend: 0x0, symName: __ZN4core5slice4sort6shared5pivot11median3_rec17ha1d7fe6e974a15f2E, symObjAddr: 0x0, symBinAddr: 0xCD4, symSize: 0x1B8 }
  - { offset: 0x27BD, size: 0x8, addend: 0x0, symName: __ZN4core5slice4sort6shared5pivot11median3_rec17ha1d7fe6e974a15f2E, symObjAddr: 0x0, symBinAddr: 0xCD4, symSize: 0x1B8 }
  - { offset: 0x2A3A, size: 0x8, addend: 0x0, symName: __ZN4core5slice4sort6shared5pivot11median3_rec17hcededfdc50eb6a06E, symObjAddr: 0x1B8, symBinAddr: 0xE8C, symSize: 0x1E0 }
  - { offset: 0x2CB7, size: 0x8, addend: 0x0, symName: __ZN4core5slice4sort6shared5pivot11median3_rec17hd2c3f2fb6b8c52efE, symObjAddr: 0x398, symBinAddr: 0x106C, symSize: 0x1E0 }
  - { offset: 0x2EBB, size: 0x8, addend: 0x0, symName: __ZN4core5slice4sort6shared5pivot12choose_pivot17h18631029721b1762E, symObjAddr: 0x578, symBinAddr: 0x124C, symSize: 0x244 }
  - { offset: 0x314F, size: 0x8, addend: 0x0, symName: __ZN4core5slice4sort6shared5pivot12choose_pivot17h48cbdbcce0538cddE, symObjAddr: 0x7BC, symBinAddr: 0x1490, symSize: 0x244 }
  - { offset: 0x33E3, size: 0x8, addend: 0x0, symName: __ZN4core5slice4sort6shared5pivot12choose_pivot17hc804c8dc4b23b382E, symObjAddr: 0xA00, symBinAddr: 0x16D4, symSize: 0x238 }
  - { offset: 0x3B6C, size: 0x8, addend: 0x0, symName: '__ZN45_$LT$T$u20$as$u20$alloc..string..ToString$GT$9to_string17hac244c17f9c7ea57E', symObjAddr: 0x0, symBinAddr: 0x190C, symSize: 0x24 }
  - { offset: 0x3B88, size: 0x8, addend: 0x0, symName: '__ZN45_$LT$T$u20$as$u20$alloc..string..ToString$GT$9to_string17hac244c17f9c7ea57E', symObjAddr: 0x0, symBinAddr: 0x190C, symSize: 0x24 }
  - { offset: 0x3BE0, size: 0x8, addend: 0x0, symName: '__ZN71_$LT$alloc..borrow..Cow$LT$B$GT$$u20$as$u20$core..ops..deref..Deref$GT$5deref17h96512718e7ec5682E', symObjAddr: 0x24, symBinAddr: 0x1930, symSize: 0x70 }
  - { offset: 0x3F85, size: 0x8, addend: 0x0, symName: '__ZN113_$LT$rayon..iter..collect..consumer..CollectResult$LT$T$GT$$u20$as$u20$rayon..iter..plumbing..Folder$LT$T$GT$$GT$4full17h1bad8b775d10b6b7E', symObjAddr: 0x0, symBinAddr: 0x19A0, symSize: 0x18 }
  - { offset: 0x4348, size: 0x8, addend: 0x0, symName: '__ZN113_$LT$rayon..iter..collect..consumer..CollectResult$LT$T$GT$$u20$as$u20$rayon..iter..plumbing..Folder$LT$T$GT$$GT$4full17h1bad8b775d10b6b7E', symObjAddr: 0x0, symBinAddr: 0x19A0, symSize: 0x18 }
  - { offset: 0x437D, size: 0x8, addend: 0x0, symName: '__ZN113_$LT$rayon..iter..collect..consumer..CollectResult$LT$T$GT$$u20$as$u20$rayon..iter..plumbing..Folder$LT$T$GT$$GT$7consume17h0b9444a3a9609ac8E', symObjAddr: 0x18, symBinAddr: 0x19B8, symSize: 0x164 }
  - { offset: 0x442B, size: 0x8, addend: 0x0, symName: '__ZN113_$LT$rayon..iter..collect..consumer..CollectResult$LT$T$GT$$u20$as$u20$rayon..iter..plumbing..Folder$LT$T$GT$$GT$8complete17hb7a49b09c5c43e0fE', symObjAddr: 0x17C, symBinAddr: 0x1B1C, symSize: 0x18 }
  - { offset: 0x4466, size: 0x8, addend: 0x0, symName: '__ZN117_$LT$rayon..iter..collect..consumer..CollectConsumer$LT$T$GT$$u20$as$u20$rayon..iter..plumbing..Consumer$LT$T$GT$$GT$11into_folder17h19415a20c3be73aeE', symObjAddr: 0x194, symBinAddr: 0x1B34, symSize: 0x24 }
  - { offset: 0x449B, size: 0x8, addend: 0x0, symName: '__ZN117_$LT$rayon..iter..collect..consumer..CollectConsumer$LT$T$GT$$u20$as$u20$rayon..iter..plumbing..Consumer$LT$T$GT$$GT$4full17hc088dd22cc1c8d3eE', symObjAddr: 0x1B8, symBinAddr: 0x1B58, symSize: 0x18 }
  - { offset: 0x44D0, size: 0x8, addend: 0x0, symName: '__ZN117_$LT$rayon..iter..collect..consumer..CollectConsumer$LT$T$GT$$u20$as$u20$rayon..iter..plumbing..Consumer$LT$T$GT$$GT$8split_at17hbec821bf52e21dd6E', symObjAddr: 0x1D0, symBinAddr: 0x1B70, symSize: 0xDC }
  - { offset: 0x4562, size: 0x8, addend: 0x0, symName: '__ZN159_$LT$rayon..iter..collect..consumer..CollectReducer$u20$as$u20$rayon..iter..plumbing..Reducer$LT$rayon..iter..collect..consumer..CollectResult$LT$T$GT$$GT$$GT$6reduce17hc5234400cd68d88eE', symObjAddr: 0x2AC, symBinAddr: 0x1C4C, symSize: 0x1B4 }
  - { offset: 0x4701, size: 0x8, addend: 0x0, symName: __ZN5rayon4iter8plumbing6Folder12consume_iter17h93d6701918ea8421E, symObjAddr: 0x578, symBinAddr: 0x1F18, symSize: 0x180 }
  - { offset: 0x5092, size: 0x8, addend: 0x0, symName: '__ZN5rayon4iter7collect8consumer22CollectResult$LT$T$GT$17release_ownership17h27300b12410d74b0E', symObjAddr: 0x460, symBinAddr: 0x1E00, symSize: 0x30 }
  - { offset: 0x50E8, size: 0x8, addend: 0x0, symName: '__ZN5rayon4iter7collect8consumer22CollectResult$LT$T$GT$3len17h47d6a67687adcfb1E', symObjAddr: 0x490, symBinAddr: 0x1E30, symSize: 0x18 }
  - { offset: 0x5120, size: 0x8, addend: 0x0, symName: '__ZN5rayon4iter7collect8consumer24CollectConsumer$LT$T$GT$3new17h120386e66b436d69E', symObjAddr: 0x4A8, symBinAddr: 0x1E48, symSize: 0x18 }
  - { offset: 0x5166, size: 0x8, addend: 0x0, symName: '__ZN5rayon4iter7collect8consumer24CollectConsumer$LT$T$GT$8appender17h1a82c6094225ab57E', symObjAddr: 0x4C0, symBinAddr: 0x1E60, symSize: 0xB8 }
  - { offset: 0x53E7, size: 0x8, addend: 0x0, symName: '__ZN12flash_expert11split_model28_$u7b$$u7b$closure$u7d$$u7d$17h9bcc4a195441a868E', symObjAddr: 0x0, symBinAddr: 0x2098, symSize: 0x74 }
  - { offset: 0x58B3, size: 0x8, addend: 0x0, symName: '__ZN12flash_expert11split_model28_$u7b$$u7b$closure$u7d$$u7d$17h9bcc4a195441a868E', symObjAddr: 0x0, symBinAddr: 0x2098, symSize: 0x74 }
  - { offset: 0x58FB, size: 0x8, addend: 0x0, symName: '__ZN12flash_expert18FlashExpertManager12load_experts28_$u7b$$u7b$closure$u7d$$u7d$17h8971c660942e14cbE', symObjAddr: 0x74, symBinAddr: 0x210C, symSize: 0x74 }
  - { offset: 0x5977, size: 0x8, addend: 0x0, symName: '__ZN12flash_expert18FlashExpertManager3new28_$u7b$$u7b$closure$u7d$$u7d$17hab48d81d19c2784eE', symObjAddr: 0xE8, symBinAddr: 0x2180, symSize: 0x74 }
  - { offset: 0x59C0, size: 0x8, addend: 0x0, symName: '__ZN86_$LT$flash_expert..FlashExpertManager$u20$as$u20$pyo3..impl_..pyclass..PyClassImpl$GT$3doc28_$u7b$$u7b$closure$u7d$$u7d$17h0d37c7146e570a19E', symObjAddr: 0x2B4, symBinAddr: 0x234C, symSize: 0x54 }
  - { offset: 0x5F4B, size: 0x8, addend: 0x0, symName: '__ZN4core5array98_$LT$impl$u20$core..iter..traits..collect..IntoIterator$u20$for$u20$$RF$$u5b$T$u3b$$u20$N$u5d$$GT$9into_iter17h90f50f176382fa80E', symObjAddr: 0x15C, symBinAddr: 0x21F4, symSize: 0x58 }
  - { offset: 0x608D, size: 0x8, addend: 0x0, symName: '__ZN50_$LT$T$u20$as$u20$core..convert..Into$LT$U$GT$$GT$4into17h06313b2b58172620E', symObjAddr: 0x27C, symBinAddr: 0x2314, symSize: 0x14 }
  - { offset: 0x67F0, size: 0x8, addend: 0x0, symName: __ZN4pyo311type_object10PyTypeInfo10is_type_of17hda4c87f7e3f22a16E, symObjAddr: 0x1B4, symBinAddr: 0x224C, symSize: 0x50 }
  - { offset: 0x682B, size: 0x8, addend: 0x0, symName: '__ZN52_$LT$T$u20$as$u20$pyo3..type_object..PyTypeCheck$GT$10type_check17h98196abc051365f3E', symObjAddr: 0x290, symBinAddr: 0x2328, symSize: 0x24 }
  - { offset: 0x686C, size: 0x8, addend: 0x0, symName: '__ZN4pyo312pyclass_init130_$LT$impl$u20$pyo3..impl_..callback..IntoPyCallbackOutput$LT$pyo3..pyclass_init..PyClassInitializer$LT$T$GT$$GT$$u20$for$u20$U$GT$7convert17ha2c2f9368173fea8E', symObjAddr: 0x204, symBinAddr: 0x229C, symSize: 0x68 }
  - { offset: 0x6979, size: 0x8, addend: 0x0, symName: __ZN4pyo35impl_7pyclass11PyClassImpl11dict_offset17h494731d5582da4ffE, symObjAddr: 0x26C, symBinAddr: 0x2304, symSize: 0x8 }
  - { offset: 0x69A0, size: 0x8, addend: 0x0, symName: __ZN4pyo35impl_7pyclass11PyClassImpl15weaklist_offset17h9f7e6cff61be6cbeE, symObjAddr: 0x274, symBinAddr: 0x230C, symSize: 0x8 }
  - { offset: 0x739D, size: 0x8, addend: 0x0, symName: __ZN4core9ub_checks23maybe_is_nonoverlapping7runtime17hed45847763dd95e5E, symObjAddr: 0x0, symBinAddr: 0x23A0, symSize: 0xD8 }
  - { offset: 0x7522, size: 0x8, addend: 0x0, symName: __ZN4core9ub_checks23maybe_is_nonoverlapping7runtime17hed45847763dd95e5E, symObjAddr: 0x0, symBinAddr: 0x23A0, symSize: 0xD8 }
  - { offset: 0x7735, size: 0x8, addend: 0x0, symName: '__ZN4core5slice4sort6stable5merge19MergeState$LT$T$GT$10merge_down17h3f43c4facac31cbeE', symObjAddr: 0x0, symBinAddr: 0x2478, symSize: 0x1D0 }
  - { offset: 0x7FB0, size: 0x8, addend: 0x0, symName: __ZN4core5slice4sort6stable5merge5merge17h3bfbe8238378386fE, symObjAddr: 0x9D8, symBinAddr: 0x2E50, symSize: 0x24C }
  - { offset: 0x822C, size: 0x8, addend: 0x0, symName: __ZN4core5slice4sort6stable5merge5merge17ha20796c5a77785aeE, symObjAddr: 0xC24, symBinAddr: 0x309C, symSize: 0x24C }
  - { offset: 0x84A8, size: 0x8, addend: 0x0, symName: __ZN4core5slice4sort6stable5merge5merge17he738abe443b3e170E, symObjAddr: 0xE70, symBinAddr: 0x32E8, symSize: 0x234 }
  - { offset: 0x8BF4, size: 0x8, addend: 0x0, symName: '__ZN4core5slice4sort6stable5merge19MergeState$LT$T$GT$10merge_down17h3f43c4facac31cbeE', symObjAddr: 0x0, symBinAddr: 0x2478, symSize: 0x1D0 }
  - { offset: 0x8E8B, size: 0x8, addend: 0x0, symName: '__ZN4core5slice4sort6stable5merge19MergeState$LT$T$GT$10merge_down17h9bda61bd879d8fc0E', symObjAddr: 0x1D0, symBinAddr: 0x2648, symSize: 0x1C8 }
  - { offset: 0x9096, size: 0x8, addend: 0x0, symName: '__ZN4core5slice4sort6stable5merge19MergeState$LT$T$GT$10merge_down17he47d19396b54811dE', symObjAddr: 0x398, symBinAddr: 0x2810, symSize: 0x1CC }
  - { offset: 0x922C, size: 0x8, addend: 0x0, symName: '__ZN4core5slice4sort6stable5merge19MergeState$LT$T$GT$8merge_up17h6641cea9e25779daE', symObjAddr: 0x564, symBinAddr: 0x29DC, symSize: 0x178 }
  - { offset: 0x936E, size: 0x8, addend: 0x0, symName: '__ZN4core5slice4sort6stable5merge19MergeState$LT$T$GT$8merge_up17h7e8e56bac6fda568E', symObjAddr: 0x6DC, symBinAddr: 0x2B54, symSize: 0x180 }
  - { offset: 0x94B0, size: 0x8, addend: 0x0, symName: '__ZN4core5slice4sort6stable5merge19MergeState$LT$T$GT$8merge_up17hf18316fc8ea329d8E', symObjAddr: 0x85C, symBinAddr: 0x2CD4, symSize: 0x17C }
  - { offset: 0x974F, size: 0x8, addend: 0x0, symName: '__ZN108_$LT$alloc..vec..Vec$LT$T$C$A1$GT$$u20$as$u20$core..cmp..PartialOrd$LT$alloc..vec..Vec$LT$T$C$A2$GT$$GT$$GT$11partial_cmp17he2d545ef7cee708eE', symObjAddr: 0x0, symBinAddr: 0x351C, symSize: 0x54 }
  - { offset: 0xC52F, size: 0x8, addend: 0x0, symName: '__ZN3std2io5impls58_$LT$impl$u20$std..io..Write$u20$for$u20$$RF$mut$u20$W$GT$9write_all17h609f93665f2a1bbdE', symObjAddr: 0x4CC, symBinAddr: 0x39E8, symSize: 0x34 }
  - { offset: 0xC578, size: 0x8, addend: 0x0, symName: '__ZN3std2io5impls74_$LT$impl$u20$std..io..Write$u20$for$u20$alloc..vec..Vec$LT$u8$C$A$GT$$GT$9write_all17hd7a7e86f67c12454E', symObjAddr: 0x500, symBinAddr: 0x3A1C, symSize: 0x34 }
  - { offset: 0xD6F4, size: 0x8, addend: 0x0, symName: '__ZN72_$LT$alloc..vec..Vec$LT$T$C$A$GT$$u20$as$u20$core..ops..deref..Deref$GT$5deref17h0fe46f3093ef008fE', symObjAddr: 0x2508, symBinAddr: 0x5A24, symSize: 0x20 }
  - { offset: 0xD7B1, size: 0x8, addend: 0x0, symName: '__ZN72_$LT$alloc..vec..Vec$LT$T$C$A$GT$$u20$as$u20$core..ops..deref..Deref$GT$5deref17h45fef34bbd4ecce4E', symObjAddr: 0x2528, symBinAddr: 0x5A44, symSize: 0x20 }
  - { offset: 0xD86E, size: 0x8, addend: 0x0, symName: '__ZN72_$LT$alloc..vec..Vec$LT$T$C$A$GT$$u20$as$u20$core..ops..deref..Deref$GT$5deref17ha02a4d0049047d7bE', symObjAddr: 0x2548, symBinAddr: 0x5A64, symSize: 0x20 }
  - { offset: 0xD92B, size: 0x8, addend: 0x0, symName: '__ZN72_$LT$alloc..vec..Vec$LT$T$C$A$GT$$u20$as$u20$core..ops..deref..Deref$GT$5deref17he5280b7f791ba80bE', symObjAddr: 0x2568, symBinAddr: 0x5A84, symSize: 0x20 }
  - { offset: 0xDC2E, size: 0x8, addend: 0x0, symName: '__ZN108_$LT$alloc..vec..Vec$LT$T$C$A1$GT$$u20$as$u20$core..cmp..PartialOrd$LT$alloc..vec..Vec$LT$T$C$A2$GT$$GT$$GT$11partial_cmp17he2d545ef7cee708eE', symObjAddr: 0x0, symBinAddr: 0x351C, symSize: 0x54 }
  - { offset: 0xE0D3, size: 0x8, addend: 0x0, symName: '__ZN111_$LT$alloc..vec..Vec$LT$T$GT$$u20$as$u20$alloc..vec..spec_from_iter_nested..SpecFromIterNested$LT$T$C$I$GT$$GT$9from_iter17h4270a9e5dffb08c9E', symObjAddr: 0x15C, symBinAddr: 0x3678, symSize: 0x244 }
  - { offset: 0xE337, size: 0x8, addend: 0x0, symName: '__ZN111_$LT$alloc..vec..Vec$LT$T$GT$$u20$as$u20$alloc..vec..spec_from_iter_nested..SpecFromIterNested$LT$T$C$I$GT$$GT$9from_iter17hf5978ff1cbbc0dcbE', symObjAddr: 0x3A0, symBinAddr: 0x38BC, symSize: 0x12C }
  - { offset: 0xE597, size: 0x8, addend: 0x0, symName: '__ZN81_$LT$alloc..vec..Vec$LT$T$C$A$GT$$u20$as$u20$core..ops..index..Index$LT$I$GT$$GT$5index17h0fecdcef5f8371b5E', symObjAddr: 0x2608, symBinAddr: 0x5B24, symSize: 0x44 }
  - { offset: 0xE6B0, size: 0x8, addend: 0x0, symName: '__ZN81_$LT$alloc..vec..Vec$LT$T$C$A$GT$$u20$as$u20$core..ops..index..Index$LT$I$GT$$GT$5index17h33bf2f64a45a55f8E', symObjAddr: 0x264C, symBinAddr: 0x5B68, symSize: 0x44 }
  - { offset: 0xE7C9, size: 0x8, addend: 0x0, symName: '__ZN81_$LT$alloc..vec..Vec$LT$T$C$A$GT$$u20$as$u20$core..ops..index..Index$LT$I$GT$$GT$5index17h36c993b41f1ecb4bE', symObjAddr: 0x2690, symBinAddr: 0x5BAC, symSize: 0x44 }
  - { offset: 0xE8E2, size: 0x8, addend: 0x0, symName: '__ZN81_$LT$alloc..vec..Vec$LT$T$C$A$GT$$u20$as$u20$core..ops..index..Index$LT$I$GT$$GT$5index17hbc56a6868792a5cdE', symObjAddr: 0x26D4, symBinAddr: 0x5BF0, symSize: 0xD0 }
  - { offset: 0xEA7D, size: 0x8, addend: 0x0, symName: '__ZN81_$LT$alloc..vec..Vec$LT$T$C$A$GT$$u20$as$u20$core..ops..index..Index$LT$I$GT$$GT$5index17hd6aac8e6ff7335f0E', symObjAddr: 0x27A4, symBinAddr: 0x5CC0, symSize: 0x44 }
  - { offset: 0xEB96, size: 0x8, addend: 0x0, symName: '__ZN81_$LT$alloc..vec..Vec$LT$T$C$A$GT$$u20$as$u20$core..ops..index..Index$LT$I$GT$$GT$5index17hedad1e8bd046271aE', symObjAddr: 0x27E8, symBinAddr: 0x5D04, symSize: 0x44 }
  - { offset: 0xECBA, size: 0x8, addend: 0x0, symName: '__ZN5alloc3vec10partial_eq117_$LT$impl$u20$core..cmp..PartialEq$LT$alloc..vec..Vec$LT$U$C$A2$GT$$GT$$u20$for$u20$alloc..vec..Vec$LT$T$C$A1$GT$$GT$2eq17h64e0fcbe6d22f7e4E', symObjAddr: 0x5F0, symBinAddr: 0x3B0C, symSize: 0x54 }
  - { offset: 0xFCAA, size: 0x8, addend: 0x0, symName: '__ZN5alloc3vec16Vec$LT$T$C$A$GT$14extend_trusted28_$u7b$$u7b$closure$u7d$$u7d$17h7776b1f8f1b4ce08E', symObjAddr: 0x8B4, symBinAddr: 0x3DD0, symSize: 0x30 }
  - { offset: 0xFE09, size: 0x8, addend: 0x0, symName: '__ZN5alloc3vec16Vec$LT$T$C$A$GT$5dedup28_$u7b$$u7b$closure$u7d$$u7d$17ha5eaa2d6bd8b1cd8E', symObjAddr: 0xF44, symBinAddr: 0x4460, symSize: 0x3C }
  - { offset: 0xFE8B, size: 0x8, addend: 0x0, symName: '__ZN5alloc3vec16in_place_collect108_$LT$impl$u20$alloc..vec..spec_from_iter..SpecFromIter$LT$T$C$I$GT$$u20$for$u20$alloc..vec..Vec$LT$T$GT$$GT$9from_iter17hd3a33af3e2b5b1e2E', symObjAddr: 0x1E9C, symBinAddr: 0x53B8, symSize: 0x28 }
  - { offset: 0xFEE9, size: 0x8, addend: 0x0, symName: __ZN5alloc3vec9from_elem17h32dc3fdef1b83950E, symObjAddr: 0x1EC4, symBinAddr: 0x53E0, symSize: 0x24 }
  - { offset: 0xFF34, size: 0x8, addend: 0x0, symName: '__ZN67_$LT$alloc..vec..Vec$LT$T$GT$$u20$as$u20$core..default..Default$GT$7default17hb99f374403181739E', symObjAddr: 0x24CC, symBinAddr: 0x59E8, symSize: 0x14 }
  - { offset: 0xFF56, size: 0x8, addend: 0x0, symName: '__ZN67_$LT$alloc..vec..Vec$LT$T$GT$$u20$as$u20$core..default..Default$GT$7default17hb99f374403181739E', symObjAddr: 0x24CC, symBinAddr: 0x59E8, symSize: 0x14 }
  - { offset: 0xFF77, size: 0x8, addend: 0x0, symName: '__ZN75_$LT$alloc..vec..Vec$LT$T$C$A$GT$$u20$as$u20$core..ops..deref..DerefMut$GT$9deref_mut17h4db76075b67875d8E', symObjAddr: 0x2588, symBinAddr: 0x5AA4, symSize: 0x20 }
  - { offset: 0x10034, size: 0x8, addend: 0x0, symName: '__ZN75_$LT$alloc..vec..Vec$LT$T$C$A$GT$$u20$as$u20$core..ops..deref..DerefMut$GT$9deref_mut17h888638924a20f615E', symObjAddr: 0x25A8, symBinAddr: 0x5AC4, symSize: 0x20 }
  - { offset: 0x100F1, size: 0x8, addend: 0x0, symName: '__ZN75_$LT$alloc..vec..Vec$LT$T$C$A$GT$$u20$as$u20$core..ops..deref..DerefMut$GT$9deref_mut17hc8054b16c7e6cd91E', symObjAddr: 0x25C8, symBinAddr: 0x5AE4, symSize: 0x20 }
  - { offset: 0x101AE, size: 0x8, addend: 0x0, symName: '__ZN75_$LT$alloc..vec..Vec$LT$T$C$A$GT$$u20$as$u20$core..ops..deref..DerefMut$GT$9deref_mut17hc9749befcb9840a5E', symObjAddr: 0x25E8, symBinAddr: 0x5B04, symSize: 0x20 }
  - { offset: 0x102D1, size: 0x8, addend: 0x0, symName: '__ZN84_$LT$alloc..vec..Vec$LT$T$C$A$GT$$u20$as$u20$core..ops..index..IndexMut$LT$I$GT$$GT$9index_mut17h2e57c195ec1d9cc7E', symObjAddr: 0x282C, symBinAddr: 0x5D48, symSize: 0x4C }
  - { offset: 0x103EA, size: 0x8, addend: 0x0, symName: '__ZN84_$LT$alloc..vec..Vec$LT$T$C$A$GT$$u20$as$u20$core..ops..index..IndexMut$LT$I$GT$$GT$9index_mut17hf95e8b77de7f4fe1E', symObjAddr: 0x2878, symBinAddr: 0x5D94, symSize: 0x44 }
  - { offset: 0x10509, size: 0x8, addend: 0x0, symName: '__ZN90_$LT$alloc..vec..Vec$LT$T$C$A$GT$$u20$as$u20$core..iter..traits..collect..IntoIterator$GT$9into_iter17h1cbcb258a8882a2cE', symObjAddr: 0x28BC, symBinAddr: 0x5DD8, symSize: 0xA8 }
  - { offset: 0x10700, size: 0x8, addend: 0x0, symName: '__ZN90_$LT$alloc..vec..Vec$LT$T$C$A$GT$$u20$as$u20$core..iter..traits..collect..IntoIterator$GT$9into_iter17h63fa410f00970860E', symObjAddr: 0x2964, symBinAddr: 0x5E80, symSize: 0xA8 }
  - { offset: 0x108FD, size: 0x8, addend: 0x0, symName: '__ZN93_$LT$alloc..vec..Vec$LT$T$C$A$GT$$u20$as$u20$core..iter..traits..collect..Extend$LT$T$GT$$GT$6extend17had000f5680150758E', symObjAddr: 0x2A0C, symBinAddr: 0x5F28, symSize: 0x40 }
  - { offset: 0x10958, size: 0x8, addend: 0x0, symName: '__ZN94_$LT$$RF$alloc..vec..Vec$LT$T$C$A$GT$$u20$as$u20$core..iter..traits..collect..IntoIterator$GT$9into_iter17h09dd76e958535993E', symObjAddr: 0x2A4C, symBinAddr: 0x5F68, symSize: 0x60 }
  - { offset: 0x10B3D, size: 0x8, addend: 0x0, symName: '__ZN94_$LT$$RF$alloc..vec..Vec$LT$T$C$A$GT$$u20$as$u20$core..iter..traits..collect..IntoIterator$GT$9into_iter17h0ecb51d479fe447fE', symObjAddr: 0x2AAC, symBinAddr: 0x5FC8, symSize: 0x68 }
  - { offset: 0x10D22, size: 0x8, addend: 0x0, symName: '__ZN94_$LT$$RF$alloc..vec..Vec$LT$T$C$A$GT$$u20$as$u20$core..iter..traits..collect..IntoIterator$GT$9into_iter17h18d07d7d6204c904E', symObjAddr: 0x2B14, symBinAddr: 0x6030, symSize: 0x68 }
  - { offset: 0x10F07, size: 0x8, addend: 0x0, symName: '__ZN94_$LT$$RF$alloc..vec..Vec$LT$T$C$A$GT$$u20$as$u20$core..iter..traits..collect..IntoIterator$GT$9into_iter17h2218de91e6296a1dE', symObjAddr: 0x2B7C, symBinAddr: 0x6098, symSize: 0x60 }
  - { offset: 0x110EC, size: 0x8, addend: 0x0, symName: '__ZN94_$LT$$RF$alloc..vec..Vec$LT$T$C$A$GT$$u20$as$u20$core..iter..traits..collect..IntoIterator$GT$9into_iter17hb2c35db3a5f6625aE', symObjAddr: 0x2BDC, symBinAddr: 0x60F8, symSize: 0x60 }
  - { offset: 0x112D1, size: 0x8, addend: 0x0, symName: '__ZN94_$LT$$RF$alloc..vec..Vec$LT$T$C$A$GT$$u20$as$u20$core..iter..traits..collect..IntoIterator$GT$9into_iter17hc0ec8aad6443e348E', symObjAddr: 0x2C3C, symBinAddr: 0x6158, symSize: 0x60 }
  - { offset: 0x114BC, size: 0x8, addend: 0x0, symName: '__ZN95_$LT$alloc..vec..Vec$LT$T$GT$$u20$as$u20$core..iter..traits..collect..FromIterator$LT$T$GT$$GT$9from_iter17h42ca7c49d453ca16E', symObjAddr: 0x2C9C, symBinAddr: 0x61B8, symSize: 0x38 }
  - { offset: 0x114FC, size: 0x8, addend: 0x0, symName: '__ZN95_$LT$alloc..vec..Vec$LT$T$GT$$u20$as$u20$core..iter..traits..collect..FromIterator$LT$T$GT$$GT$9from_iter17h6fa41f77cffdf36aE', symObjAddr: 0x2CD4, symBinAddr: 0x61F0, symSize: 0x34 }
  - { offset: 0x1153D, size: 0x8, addend: 0x0, symName: '__ZN95_$LT$alloc..vec..Vec$LT$T$GT$$u20$as$u20$core..iter..traits..collect..FromIterator$LT$T$GT$$GT$9from_iter17hdc83ffbf7f980cccE', symObjAddr: 0x2D08, symBinAddr: 0x6224, symSize: 0x34 }
  - { offset: 0x11589, size: 0x8, addend: 0x0, symName: '__ZN97_$LT$alloc..vec..Vec$LT$T$C$A$GT$$u20$as$u20$alloc..vec..spec_extend..SpecExtend$LT$T$C$I$GT$$GT$11spec_extend17h387520f77128d774E', symObjAddr: 0x2D3C, symBinAddr: 0x6258, symSize: 0x24 }
  - { offset: 0x115DB, size: 0x8, addend: 0x0, symName: '__ZN97_$LT$alloc..vec..Vec$LT$T$C$A$GT$$u20$as$u20$alloc..vec..spec_extend..SpecExtend$LT$T$C$I$GT$$GT$11spec_extend17h458a94e4c2b5d3b6E', symObjAddr: 0x2D60, symBinAddr: 0x627C, symSize: 0x24 }
  - { offset: 0x11633, size: 0x8, addend: 0x0, symName: '__ZN97_$LT$alloc..vec..Vec$LT$T$C$A$GT$$u20$as$u20$alloc..vec..spec_extend..SpecExtend$LT$T$C$I$GT$$GT$11spec_extend17hc53c72f414437fc5E', symObjAddr: 0x2D84, symBinAddr: 0x62A0, symSize: 0x34 }
  - { offset: 0x11690, size: 0x8, addend: 0x0, symName: '__ZN98_$LT$alloc..vec..Vec$LT$T$GT$$u20$as$u20$alloc..vec..spec_from_iter..SpecFromIter$LT$T$C$I$GT$$GT$9from_iter17h70b3f2cf3b786d4cE', symObjAddr: 0x2DB8, symBinAddr: 0x62D4, symSize: 0x14 }
  - { offset: 0x116CF, size: 0x8, addend: 0x0, symName: '__ZN98_$LT$alloc..vec..Vec$LT$T$GT$$u20$as$u20$alloc..vec..spec_from_iter..SpecFromIter$LT$T$C$I$GT$$GT$9from_iter17he9bf7095733fcd33E', symObjAddr: 0x2DCC, symBinAddr: 0x62E8, symSize: 0x2C }
  - { offset: 0x11D20, size: 0x8, addend: 0x0, symName: '__ZN5alloc5slice99_$LT$impl$u20$core..slice..sort..stable..BufGuard$LT$T$GT$$u20$for$u20$alloc..vec..Vec$LT$T$GT$$GT$13with_capacity17h71cd85bb78914af0E', symObjAddr: 0x1EE8, symBinAddr: 0x5404, symSize: 0x44 }
  - { offset: 0x11DC1, size: 0x8, addend: 0x0, symName: '__ZN5alloc5slice99_$LT$impl$u20$core..slice..sort..stable..BufGuard$LT$T$GT$$u20$for$u20$alloc..vec..Vec$LT$T$GT$$GT$13with_capacity17h8c301ae39496858dE', symObjAddr: 0x1F2C, symBinAddr: 0x5448, symSize: 0x44 }
  - { offset: 0x11E62, size: 0x8, addend: 0x0, symName: '__ZN5alloc5slice99_$LT$impl$u20$core..slice..sort..stable..BufGuard$LT$T$GT$$u20$for$u20$alloc..vec..Vec$LT$T$GT$$GT$13with_capacity17hcff0a18c8f898a5bE', symObjAddr: 0x1F70, symBinAddr: 0x548C, symSize: 0x44 }
  - { offset: 0x11F03, size: 0x8, addend: 0x0, symName: '__ZN5alloc5slice99_$LT$impl$u20$core..slice..sort..stable..BufGuard$LT$T$GT$$u20$for$u20$alloc..vec..Vec$LT$T$GT$$GT$19as_uninit_slice_mut17h796b8ae7c070d3f7E', symObjAddr: 0x1FB4, symBinAddr: 0x54D0, symSize: 0xC8 }
  - { offset: 0x1205A, size: 0x8, addend: 0x0, symName: '__ZN5alloc5slice99_$LT$impl$u20$core..slice..sort..stable..BufGuard$LT$T$GT$$u20$for$u20$alloc..vec..Vec$LT$T$GT$$GT$19as_uninit_slice_mut17h9dc8fbdd5b74f70bE', symObjAddr: 0x207C, symBinAddr: 0x5598, symSize: 0xC8 }
  - { offset: 0x121B1, size: 0x8, addend: 0x0, symName: '__ZN5alloc5slice99_$LT$impl$u20$core..slice..sort..stable..BufGuard$LT$T$GT$$u20$for$u20$alloc..vec..Vec$LT$T$GT$$GT$19as_uninit_slice_mut17hc06722343b6560caE', symObjAddr: 0x2144, symBinAddr: 0x5660, symSize: 0xC4 }
  - { offset: 0x12441, size: 0x8, addend: 0x0, symName: '__ZN10serde_core3ser5impls62_$LT$impl$u20$serde_core..ser..Serialize$u20$for$u20$$RF$T$GT$9serialize17h0b16756ca8dedd73E', symObjAddr: 0x54, symBinAddr: 0x3570, symSize: 0x28 }
  - { offset: 0x12490, size: 0x8, addend: 0x0, symName: '__ZN10serde_core3ser5impls62_$LT$impl$u20$serde_core..ser..Serialize$u20$for$u20$$RF$T$GT$9serialize17h3bdeb7fc42a0c761E', symObjAddr: 0x7C, symBinAddr: 0x3598, symSize: 0x28 }
  - { offset: 0x124E5, size: 0x8, addend: 0x0, symName: '__ZN10serde_core3ser5impls81_$LT$impl$u20$serde_core..ser..Serialize$u20$for$u20$alloc..vec..Vec$LT$T$GT$$GT$9serialize17h02cc9e5f141831c2E', symObjAddr: 0xA4, symBinAddr: 0x35C0, symSize: 0x24 }
  - { offset: 0x12531, size: 0x8, addend: 0x0, symName: '__ZN10serde_core3ser5impls81_$LT$impl$u20$serde_core..ser..Serialize$u20$for$u20$alloc..vec..Vec$LT$T$GT$$GT$9serialize17h363908043800be9cE', symObjAddr: 0xC8, symBinAddr: 0x35E4, symSize: 0x38 }
  - { offset: 0x1257D, size: 0x8, addend: 0x0, symName: '__ZN10serde_core3ser5impls81_$LT$impl$u20$serde_core..ser..Serialize$u20$for$u20$alloc..vec..Vec$LT$T$GT$$GT$9serialize17h43a2ea97a454848eE', symObjAddr: 0x100, symBinAddr: 0x361C, symSize: 0x38 }
  - { offset: 0x125C9, size: 0x8, addend: 0x0, symName: '__ZN10serde_core3ser5impls81_$LT$impl$u20$serde_core..ser..Serialize$u20$for$u20$alloc..vec..Vec$LT$T$GT$$GT$9serialize17he8f8edbb1a28db32E', symObjAddr: 0x138, symBinAddr: 0x3654, symSize: 0x24 }
  - { offset: 0x128B1, size: 0x8, addend: 0x0, symName: '__ZN4pyo35types8sequence85_$LT$impl$u20$pyo3..conversion..FromPyObject$u20$for$u20$alloc..vec..Vec$LT$T$GT$$GT$13extract_bound17h4a3ecae2e480a054E', symObjAddr: 0x534, symBinAddr: 0x3A50, symSize: 0x88 }
  - { offset: 0x12910, size: 0x8, addend: 0x0, symName: '__ZN57_$LT$T$u20$as$u20$pyo3..conversion..FromPyObjectBound$GT$20from_py_object_bound17hda8ad018edb97826E', symObjAddr: 0x5BC, symBinAddr: 0x3AD8, symSize: 0x34 }
  - { offset: 0x12958, size: 0x8, addend: 0x0, symName: '__ZN71_$LT$T$u20$as$u20$pyo3..impl_..extract_argument..PyFunctionArgument$GT$7extract17h3eeba86e9eca08d5E', symObjAddr: 0x24E0, symBinAddr: 0x59FC, symSize: 0x28 }
  - { offset: 0x12CB6, size: 0x8, addend: 0x0, symName: '__ZN5alloc3vec12Vec$LT$T$GT$13with_capacity17h06aa632cf6a46521E', symObjAddr: 0x644, symBinAddr: 0x3B60, symSize: 0x40 }
  - { offset: 0x12FD7, size: 0x8, addend: 0x0, symName: '__ZN5alloc3vec12Vec$LT$T$GT$13with_capacity17hdf964bbce1e66fc0E', symObjAddr: 0x684, symBinAddr: 0x3BA0, symSize: 0x40 }
  - { offset: 0x13070, size: 0x8, addend: 0x0, symName: '__ZN5alloc3vec12Vec$LT$T$GT$3new17h05c095e76b2b2b04E', symObjAddr: 0x6C4, symBinAddr: 0x3BE0, symSize: 0x14 }
  - { offset: 0x130AB, size: 0x8, addend: 0x0, symName: '__ZN5alloc3vec12Vec$LT$T$GT$3new17h1098152d84f1ca08E', symObjAddr: 0x6D8, symBinAddr: 0x3BF4, symSize: 0x14 }
  - { offset: 0x130C8, size: 0x8, addend: 0x0, symName: '__ZN5alloc3vec12Vec$LT$T$GT$3new17h4afe63a495f7773cE', symObjAddr: 0x6EC, symBinAddr: 0x3C08, symSize: 0x14 }
  - { offset: 0x130E5, size: 0x8, addend: 0x0, symName: '__ZN5alloc3vec12Vec$LT$T$GT$3new17h4bf3762659b4428dE', symObjAddr: 0x700, symBinAddr: 0x3C1C, symSize: 0x14 }
  - { offset: 0x13109, size: 0x8, addend: 0x0, symName: '__ZN5alloc3vec12Vec$LT$T$GT$3new17h78cfda6ab3c01895E', symObjAddr: 0x714, symBinAddr: 0x3C30, symSize: 0x14 }
  - { offset: 0x13144, size: 0x8, addend: 0x0, symName: '__ZN5alloc3vec12Vec$LT$T$GT$3new17h8b8f17b9fe7ccbbeE', symObjAddr: 0x728, symBinAddr: 0x3C44, symSize: 0x14 }
  - { offset: 0x13195, size: 0x8, addend: 0x0, symName: '__ZN5alloc3vec12Vec$LT$T$GT$3new17hc16b369ac2164b15E', symObjAddr: 0x73C, symBinAddr: 0x3C58, symSize: 0x14 }
  - { offset: 0x131B2, size: 0x8, addend: 0x0, symName: '__ZN5alloc3vec12Vec$LT$T$GT$3new17hcdce8fbb2321115eE', symObjAddr: 0x750, symBinAddr: 0x3C6C, symSize: 0x14 }
  - { offset: 0x131CF, size: 0x8, addend: 0x0, symName: '__ZN5alloc3vec12Vec$LT$T$GT$3new17hfd3ec9b91b63f801E', symObjAddr: 0x764, symBinAddr: 0x3C80, symSize: 0x14 }
  - { offset: 0x1326B, size: 0x8, addend: 0x0, symName: '__ZN5alloc3vec16Vec$LT$T$C$A$GT$10as_mut_ptr17h6f07cceab2096643E', symObjAddr: 0x778, symBinAddr: 0x3C94, symSize: 0x18 }
  - { offset: 0x13984, size: 0x8, addend: 0x0, symName: '__ZN5alloc3vec16Vec$LT$T$C$A$GT$14extend_trusted17hedfc1e73d3077646E', symObjAddr: 0x790, symBinAddr: 0x3CAC, symSize: 0x124 }
  - { offset: 0x13BE4, size: 0x8, addend: 0x0, symName: '__ZN5alloc3vec16Vec$LT$T$C$A$GT$15append_elements17h0caae5aa2bf6b04eE', symObjAddr: 0x8E4, symBinAddr: 0x3E00, symSize: 0xDC }
  - { offset: 0x13F9A, size: 0x8, addend: 0x0, symName: '__ZN5rayon4iter13from_par_iter97_$LT$impl$u20$rayon..iter..FromParallelIterator$LT$T$GT$$u20$for$u20$alloc..vec..Vec$LT$T$GT$$GT$13from_par_iter17h200cd30c8cd829cdE', symObjAddr: 0x2208, symBinAddr: 0x5724, symSize: 0x40 }
  - { offset: 0x13FE5, size: 0x8, addend: 0x0, symName: '__ZN5rayon4iter6extend91_$LT$impl$u20$rayon..iter..ParallelExtend$LT$T$GT$$u20$for$u20$alloc..vec..Vec$LT$T$GT$$GT$10par_extend17hc49291b8403d948bE', symObjAddr: 0x2248, symBinAddr: 0x5764, symSize: 0x284 }
  - { offset: 0x14246, size: 0x8, addend: 0x0, symName: '__ZN5alloc3vec16Vec$LT$T$C$A$GT$16extend_desugared17h0fa7c49b349b6358E', symObjAddr: 0x9C0, symBinAddr: 0x3EDC, symSize: 0x1C0 }
  - { offset: 0x1465E, size: 0x8, addend: 0x0, symName: '__ZN5alloc3vec16Vec$LT$T$C$A$GT$16extend_desugared17he312067fe7b95261E', symObjAddr: 0xB80, symBinAddr: 0x409C, symSize: 0x1C8 }
  - { offset: 0x148D2, size: 0x8, addend: 0x0, symName: '__ZN5alloc3vec16Vec$LT$T$C$A$GT$3len17h221effd4b8fff82fE', symObjAddr: 0xD48, symBinAddr: 0x4264, symSize: 0x18 }
  - { offset: 0x14914, size: 0x8, addend: 0x0, symName: '__ZN5alloc3vec16Vec$LT$T$C$A$GT$3len17h2be4b3c12eefb171E', symObjAddr: 0xD60, symBinAddr: 0x427C, symSize: 0x18 }
  - { offset: 0x14949, size: 0x8, addend: 0x0, symName: '__ZN5alloc3vec16Vec$LT$T$C$A$GT$3len17h7d986de027d12abaE', symObjAddr: 0xD78, symBinAddr: 0x4294, symSize: 0x18 }
  - { offset: 0x1498B, size: 0x8, addend: 0x0, symName: '__ZN5alloc3vec16Vec$LT$T$C$A$GT$3len17h8a503bdfeda1b796E', symObjAddr: 0xD90, symBinAddr: 0x42AC, symSize: 0x18 }
  - { offset: 0x149CD, size: 0x8, addend: 0x0, symName: '__ZN5alloc3vec16Vec$LT$T$C$A$GT$3len17hc5d5aabb90a79d0aE', symObjAddr: 0xDA8, symBinAddr: 0x42C4, symSize: 0x18 }
  - { offset: 0x14A02, size: 0x8, addend: 0x0, symName: '__ZN5alloc3vec16Vec$LT$T$C$A$GT$4push17h0734dbca9e5acb1bE', symObjAddr: 0xDC0, symBinAddr: 0x42DC, symSize: 0x24 }
  - { offset: 0x14A54, size: 0x8, addend: 0x0, symName: '__ZN5alloc3vec16Vec$LT$T$C$A$GT$4push17h2f5f4fc22a2579d0E', symObjAddr: 0xDE4, symBinAddr: 0x4300, symSize: 0x2C }
  - { offset: 0x14AA5, size: 0x8, addend: 0x0, symName: '__ZN5alloc3vec16Vec$LT$T$C$A$GT$4push17h7f5ab1fe0a42e7a2E', symObjAddr: 0xE10, symBinAddr: 0x432C, symSize: 0x24 }
  - { offset: 0x14AF7, size: 0x8, addend: 0x0, symName: '__ZN5alloc3vec16Vec$LT$T$C$A$GT$4push17h8540e857f996ff04E', symObjAddr: 0xE34, symBinAddr: 0x4350, symSize: 0x28 }
  - { offset: 0x14B48, size: 0x8, addend: 0x0, symName: '__ZN5alloc3vec16Vec$LT$T$C$A$GT$4push17h9043aa8301daa3a6E', symObjAddr: 0xE5C, symBinAddr: 0x4378, symSize: 0x24 }
  - { offset: 0x14B9A, size: 0x8, addend: 0x0, symName: '__ZN5alloc3vec16Vec$LT$T$C$A$GT$4push17h9805ed4f94ff68a0E', symObjAddr: 0xE80, symBinAddr: 0x439C, symSize: 0x30 }
  - { offset: 0x14BEB, size: 0x8, addend: 0x0, symName: '__ZN5alloc3vec16Vec$LT$T$C$A$GT$4push17hbe79c3d93b161eb9E', symObjAddr: 0xEB0, symBinAddr: 0x43CC, symSize: 0x24 }
  - { offset: 0x14C3D, size: 0x8, addend: 0x0, symName: '__ZN5alloc3vec16Vec$LT$T$C$A$GT$4push17hd07b688238fc3640E', symObjAddr: 0xED4, symBinAddr: 0x43F0, symSize: 0x24 }
  - { offset: 0x14C8F, size: 0x8, addend: 0x0, symName: '__ZN5alloc3vec16Vec$LT$T$C$A$GT$4push17hec9513ea36da5e5eE', symObjAddr: 0xEF8, symBinAddr: 0x4414, symSize: 0x28 }
  - { offset: 0x14CD3, size: 0x8, addend: 0x0, symName: '__ZN5alloc3vec16Vec$LT$T$C$A$GT$5dedup17he639a6c366d2d165E', symObjAddr: 0xF20, symBinAddr: 0x443C, symSize: 0x24 }
  - { offset: 0x14E8C, size: 0x8, addend: 0x0, symName: '__ZN5alloc3vec16Vec$LT$T$C$A$GT$6append17h00eb1de1865b66ceE', symObjAddr: 0xF80, symBinAddr: 0x449C, symSize: 0x84 }
  - { offset: 0x150F3, size: 0x8, addend: 0x0, symName: '__ZN5alloc3vec16Vec$LT$T$C$A$GT$7reserve17h26dd01fc3467b2ccE', symObjAddr: 0x1004, symBinAddr: 0x4520, symSize: 0xA8 }
  - { offset: 0x15357, size: 0x8, addend: 0x0, symName: '__ZN5alloc3vec16Vec$LT$T$C$A$GT$7reserve17he04f2b29a7ace2adE', symObjAddr: 0x10AC, symBinAddr: 0x45C8, symSize: 0xA0 }
  - { offset: 0x155BB, size: 0x8, addend: 0x0, symName: '__ZN5alloc3vec16Vec$LT$T$C$A$GT$7reserve17hec00334e28071830E', symObjAddr: 0x114C, symBinAddr: 0x4668, symSize: 0xA8 }
  - { offset: 0x1578E, size: 0x8, addend: 0x0, symName: '__ZN5alloc3vec16Vec$LT$T$C$A$GT$7set_len17hfd0361275796f8d9E', symObjAddr: 0x11F4, symBinAddr: 0x4710, symSize: 0x70 }
  - { offset: 0x1588A, size: 0x8, addend: 0x0, symName: '__ZN5alloc3vec16Vec$LT$T$C$A$GT$8capacity17hf11729e32b3eed43E', symObjAddr: 0x1264, symBinAddr: 0x4780, symSize: 0x38 }
  - { offset: 0x15A74, size: 0x8, addend: 0x0, symName: '__ZN5alloc3vec16Vec$LT$T$C$A$GT$8dedup_by17had7475b682d57698E', symObjAddr: 0x129C, symBinAddr: 0x47B8, symSize: 0x378 }
  - { offset: 0x15E5B, size: 0x8, addend: 0x0, symName: '__ZN5alloc3vec16Vec$LT$T$C$A$GT$8is_empty17h87a5937daf990957E', symObjAddr: 0x1614, symBinAddr: 0x4B30, symSize: 0x20 }
  - { offset: 0x15ED3, size: 0x8, addend: 0x0, symName: '__ZN5alloc3vec16Vec$LT$T$C$A$GT$8is_empty17hd1680f678a4a5212E', symObjAddr: 0x1634, symBinAddr: 0x4B50, symSize: 0x20 }
  - { offset: 0x1603A, size: 0x8, addend: 0x0, symName: '__ZN5alloc3vec16Vec$LT$T$C$A$GT$8push_mut17h3864e41cf950b3f6E', symObjAddr: 0x1654, symBinAddr: 0x4B70, symSize: 0xD8 }
  - { offset: 0x162D0, size: 0x8, addend: 0x0, symName: '__ZN5alloc3vec16Vec$LT$T$C$A$GT$8push_mut17h3a6e5f713bbdefd1E', symObjAddr: 0x172C, symBinAddr: 0x4C48, symSize: 0x100 }
  - { offset: 0x1656B, size: 0x8, addend: 0x0, symName: '__ZN5alloc3vec16Vec$LT$T$C$A$GT$8push_mut17h45494a6d5b06a3c5E', symObjAddr: 0x182C, symBinAddr: 0x4D48, symSize: 0xEC }
  - { offset: 0x16804, size: 0x8, addend: 0x0, symName: '__ZN5alloc3vec16Vec$LT$T$C$A$GT$8push_mut17h6794f88c11a35447E', symObjAddr: 0x1918, symBinAddr: 0x4E34, symSize: 0x110 }
  - { offset: 0x16A9F, size: 0x8, addend: 0x0, symName: '__ZN5alloc3vec16Vec$LT$T$C$A$GT$8push_mut17h74328e8ce1b9297dE', symObjAddr: 0x1A28, symBinAddr: 0x4F44, symSize: 0xE0 }
  - { offset: 0x16D36, size: 0x8, addend: 0x0, symName: '__ZN5alloc3vec16Vec$LT$T$C$A$GT$8push_mut17hcebd305caaec7865E', symObjAddr: 0x1B08, symBinAddr: 0x5024, symSize: 0x108 }
  - { offset: 0x16FC1, size: 0x8, addend: 0x0, symName: '__ZN5alloc3vec16Vec$LT$T$C$A$GT$8push_mut17he00633cef63398caE', symObjAddr: 0x1C10, symBinAddr: 0x512C, symSize: 0xCC }
  - { offset: 0x17257, size: 0x8, addend: 0x0, symName: '__ZN5alloc3vec16Vec$LT$T$C$A$GT$8push_mut17hf09f0f22479838beE', symObjAddr: 0x1CDC, symBinAddr: 0x51F8, symSize: 0xCC }
  - { offset: 0x174B9, size: 0x8, addend: 0x0, symName: '__ZN5alloc3vec16Vec$LT$T$C$A$GT$8push_mut17hfa1856b2a7385f19E', symObjAddr: 0x1DA8, symBinAddr: 0x52C4, symSize: 0xF4 }
  - { offset: 0x1946D, size: 0x8, addend: 0x0, symName: __ZN5alloc3vec16in_place_collect13needs_realloc17h5a0e949049a4e784E, symObjAddr: 0x0, symBinAddr: 0x6314, symSize: 0x2C }
  - { offset: 0x19CF8, size: 0x8, addend: 0x0, symName: __ZN5alloc3vec16in_place_collect13needs_realloc17h5a0e949049a4e784E, symObjAddr: 0x0, symBinAddr: 0x6314, symSize: 0x2C }
  - { offset: 0x19D44, size: 0x8, addend: 0x0, symName: __ZN5alloc3vec16in_place_collect18from_iter_in_place17ha3047b2d953fed75E, symObjAddr: 0x2C, symBinAddr: 0x6340, symSize: 0x38C }
  - { offset: 0x1A2CD, size: 0x8, addend: 0x0, symName: '__ZN5alloc3vec16in_place_collect24write_in_place_with_drop28_$u7b$$u7b$closure$u7d$$u7d$17hf0988bb58b53dc60E', symObjAddr: 0x3B8, symBinAddr: 0x66CC, symSize: 0x3C }
  - { offset: 0x1AA50, size: 0x8, addend: 0x0, symName: __ZN4core5error5Error11description17h70141887fca19d8eE, symObjAddr: 0x0, symBinAddr: 0x6708, symSize: 0x20 }
  - { offset: 0x1AA6C, size: 0x8, addend: 0x0, symName: __ZN4core5error5Error11description17h70141887fca19d8eE, symObjAddr: 0x0, symBinAddr: 0x6708, symSize: 0x20 }
  - { offset: 0x1AAA1, size: 0x8, addend: 0x0, symName: __ZN4core5error5Error5cause17h8e3f9124e0c99b86E, symObjAddr: 0x20, symBinAddr: 0x6728, symSize: 0x24 }
  - { offset: 0x1AAD6, size: 0x8, addend: 0x0, symName: __ZN4core5error5Error6source17h8918a9c4371dfa0fE, symObjAddr: 0x44, symBinAddr: 0x674C, symSize: 0x24 }
  - { offset: 0x1AB0B, size: 0x8, addend: 0x0, symName: __ZN4core5error5Error7provide17h31837de1a40722dfE, symObjAddr: 0x68, symBinAddr: 0x6770, symSize: 0x18 }
  - { offset: 0x1AB4D, size: 0x8, addend: 0x0, symName: __ZN4core5error5Error7type_id17hbf1a47ef55db1dfeE, symObjAddr: 0x80, symBinAddr: 0x6788, symSize: 0x20 }
  - { offset: 0x1AF5F, size: 0x8, addend: 0x0, symName: '__ZN69_$LT$hashbrown..control..tag..Tag$u20$as$u20$core..cmp..PartialEq$GT$2eq17h0f04519091ac9dddE', symObjAddr: 0x0, symBinAddr: 0x67A8, symSize: 0x2C }
  - { offset: 0x1AF80, size: 0x8, addend: 0x0, symName: '__ZN69_$LT$hashbrown..control..tag..Tag$u20$as$u20$core..cmp..PartialEq$GT$2eq17h0f04519091ac9dddE', symObjAddr: 0x0, symBinAddr: 0x67A8, symSize: 0x2C }
  - { offset: 0x1B029, size: 0x8, addend: 0x0, symName: '__ZN95_$LT$$u5b$hashbrown..control..tag..Tag$u5d$$u20$as$u20$hashbrown..control..tag..TagSliceExt$GT$8fill_tag17hff3c09c6e6ef59f4E', symObjAddr: 0x2C, symBinAddr: 0x67D4, symSize: 0x88 }
  - { offset: 0x1B16E, size: 0x8, addend: 0x0, symName: __ZN9hashbrown7control3tag3Tag10is_special17ha7d8920356e907b5E, symObjAddr: 0xB4, symBinAddr: 0x685C, symSize: 0x1C }
  - { offset: 0x1B190, size: 0x8, addend: 0x0, symName: __ZN9hashbrown7control3tag3Tag16special_is_empty17h896f77b309d828b9E, symObjAddr: 0xD0, symBinAddr: 0x6878, symSize: 0x54 }
  - { offset: 0x1B1B9, size: 0x8, addend: 0x0, symName: __ZN9hashbrown7control3tag3Tag4full17ha3828b987298bc69E, symObjAddr: 0x124, symBinAddr: 0x68CC, symSize: 0xB8 }
  - { offset: 0x1B1F8, size: 0x8, addend: 0x0, symName: __ZN9hashbrown7control3tag3Tag7is_full17h339606731e809255E, symObjAddr: 0x1DC, symBinAddr: 0x6984, symSize: 0x1C }
  - { offset: 0x1B26C, size: 0x8, addend: 0x0, symName: __ZN4core9core_arch10arm_shared4neon9generated18vreinterpret_s8_u817h3e11bfbf49344750E, symObjAddr: 0x0, symBinAddr: 0x69A0, symSize: 0xC }
  - { offset: 0x1B292, size: 0x8, addend: 0x0, symName: __ZN4core9core_arch10arm_shared4neon9generated18vreinterpret_s8_u817h3e11bfbf49344750E, symObjAddr: 0x0, symBinAddr: 0x69A0, symSize: 0xC }
  - { offset: 0x1B2C0, size: 0x8, addend: 0x0, symName: __ZN4core9core_arch10arm_shared4neon9generated19vreinterpret_u64_u817h764cb4744ffbf65cE, symObjAddr: 0xC, symBinAddr: 0x69AC, symSize: 0xC }
  - { offset: 0x1B2EE, size: 0x8, addend: 0x0, symName: __ZN4core9core_arch10arm_shared4neon9generated7vceq_u817h4f7b49bbfdc5ae77E, symObjAddr: 0x18, symBinAddr: 0x69B8, symSize: 0x14 }
  - { offset: 0x1B32B, size: 0x8, addend: 0x0, symName: __ZN4core9core_arch10arm_shared4neon9generated7vorr_u817h4d943a9339031e8dE, symObjAddr: 0x2C, symBinAddr: 0x69CC, symSize: 0x14 }
  - { offset: 0x1B368, size: 0x8, addend: 0x0, symName: __ZN4core9core_arch10arm_shared4neon9generated9vdup_n_u817he37ba57138d4dcd6E, symObjAddr: 0x40, symBinAddr: 0x69E0, symSize: 0x2C }
  - { offset: 0x1B4D6, size: 0x8, addend: 0x0, symName: __ZN4pyo310exceptions9PyIOError7new_err17h989d7d853d326168E, symObjAddr: 0x0, symBinAddr: 0x6A0C, symSize: 0x34 }
  - { offset: 0x1B5C4, size: 0x8, addend: 0x0, symName: '__ZN77_$LT$pyo3..exceptions..PyIOError$u20$as$u20$pyo3..type_object..PyTypeInfo$GT$15type_object_raw28_$u7b$$u7b$closure$u7d$$u7d$17hd5a8b10fa36a8349E', symObjAddr: 0x64, symBinAddr: 0x6A70, symSize: 0x4C }
  - { offset: 0x1B79B, size: 0x8, addend: 0x0, symName: __ZN4pyo311type_object10PyTypeInfo11type_object17he74a53601271da84E, symObjAddr: 0x34, symBinAddr: 0x6A40, symSize: 0x30 }
  - { offset: 0x1BF33, size: 0x8, addend: 0x0, symName: __ZN4pyo310exceptions9PyIOError7new_err17h989d7d853d326168E, symObjAddr: 0x0, symBinAddr: 0x6A0C, symSize: 0x34 }
  - { offset: 0x1BFC2, size: 0x8, addend: 0x0, symName: '__ZN70_$LT$serde_json..read..SliceRead$u20$as$u20$serde_json..read..Read$GT$4next17hd2fd7e00d929cbb9E', symObjAddr: 0x0, symBinAddr: 0x6ABC, symSize: 0xF4 }
  - { offset: 0x1C243, size: 0x8, addend: 0x0, symName: '__ZN70_$LT$serde_json..read..SliceRead$u20$as$u20$serde_json..read..Read$GT$4next17hd2fd7e00d929cbb9E', symObjAddr: 0x0, symBinAddr: 0x6ABC, symSize: 0xF4 }
  - { offset: 0x1C287, size: 0x8, addend: 0x0, symName: '__ZN70_$LT$serde_json..read..SliceRead$u20$as$u20$serde_json..read..Read$GT$4peek17hfe0b1bb5a11b86a4E', symObjAddr: 0xF4, symBinAddr: 0x6BB0, symSize: 0xB8 }
  - { offset: 0x1C2B5, size: 0x8, addend: 0x0, symName: '__ZN70_$LT$serde_json..read..SliceRead$u20$as$u20$serde_json..read..Read$GT$7discard17h514a1179a34a93bcE', symObjAddr: 0x1AC, symBinAddr: 0x6C68, symSize: 0x54 }
  - { offset: 0x1C804, size: 0x8, addend: 0x0, symName: __ZN4core5slice3raw14from_raw_parts18precondition_check17h7e83cb488ae58e31E, symObjAddr: 0x0, symBinAddr: 0x6CBC, symSize: 0x10C }
  - { offset: 0x1C9A3, size: 0x8, addend: 0x0, symName: __ZN4core5slice3raw14from_raw_parts18precondition_check17h7e83cb488ae58e31E, symObjAddr: 0x0, symBinAddr: 0x6CBC, symSize: 0x10C }
  - { offset: 0x1CABF, size: 0x8, addend: 0x0, symName: __ZN4core5slice3raw18from_raw_parts_mut18precondition_check17h9489eeac3cc5d130E, symObjAddr: 0x10C, symBinAddr: 0x6DC8, symSize: 0x10C }
  - { offset: 0x1CC54, size: 0x8, addend: 0x0, symName: __ZN9hashbrown3raw5alloc5inner8do_alloc17h1783c1a827771826E, symObjAddr: 0x0, symBinAddr: 0x6ED4, symSize: 0x160 }
  - { offset: 0x1D270, size: 0x8, addend: 0x0, symName: __ZN9hashbrown3raw5alloc5inner8do_alloc17h1783c1a827771826E, symObjAddr: 0x0, symBinAddr: 0x6ED4, symSize: 0x160 }
  - { offset: 0x1D39C, size: 0x8, addend: 0x0, symName: '__ZN52_$LT$Q$u20$as$u20$hashbrown..Equivalent$LT$K$GT$$GT$10equivalent17h64c11877a7a265b4E', symObjAddr: 0x0, symBinAddr: 0x7034, symSize: 0x50 }
  - { offset: 0x1D4E3, size: 0x8, addend: 0x0, symName: '__ZN52_$LT$Q$u20$as$u20$hashbrown..Equivalent$LT$K$GT$$GT$10equivalent17h64c11877a7a265b4E', symObjAddr: 0x0, symBinAddr: 0x7034, symSize: 0x50 }
  - { offset: 0x1D654, size: 0x8, addend: 0x0, symName: '__ZN71_$LT$core..hash..sip..Hasher$LT$S$GT$$u20$as$u20$core..hash..Hasher$GT$9write_str17h97857e6e29148765E', symObjAddr: 0x0, symBinAddr: 0x7084, symSize: 0x5C }
  - { offset: 0x1D752, size: 0x8, addend: 0x0, symName: '__ZN71_$LT$core..hash..sip..Hasher$LT$S$GT$$u20$as$u20$core..hash..Hasher$GT$9write_str17h97857e6e29148765E', symObjAddr: 0x0, symBinAddr: 0x7084, symSize: 0x5C }
  - { offset: 0x1D835, size: 0x8, addend: 0x0, symName: '__ZN4core3ptr8non_null16NonNull$LT$T$GT$13new_unchecked17h21f5b3dc02a00674E', symObjAddr: 0x0, symBinAddr: 0x70E0, symSize: 0x3C }
  - { offset: 0x1DA2D, size: 0x8, addend: 0x0, symName: '__ZN98_$LT$core..ptr..non_null..NonNull$LT$T$GT$$u20$as$u20$core..convert..From$LT$$RF$mut$u20$T$GT$$GT$4from17h9d473c79589d6120E', symObjAddr: 0x194, symBinAddr: 0x7274, symSize: 0x14 }
  - { offset: 0x1DF81, size: 0x8, addend: 0x0, symName: '__ZN4core3ptr8non_null16NonNull$LT$T$GT$13new_unchecked17h21f5b3dc02a00674E', symObjAddr: 0x0, symBinAddr: 0x70E0, symSize: 0x3C }
  - { offset: 0x1DFB9, size: 0x8, addend: 0x0, symName: '__ZN4core3ptr8non_null16NonNull$LT$T$GT$13new_unchecked17h5634b9504345a738E', symObjAddr: 0x3C, symBinAddr: 0x711C, symSize: 0x3C }
  - { offset: 0x1E020, size: 0x8, addend: 0x0, symName: '__ZN4core3ptr8non_null16NonNull$LT$T$GT$13new_unchecked17h70b77697393103c1E', symObjAddr: 0x78, symBinAddr: 0x7158, symSize: 0x48 }
  - { offset: 0x1E090, size: 0x8, addend: 0x0, symName: '__ZN4core3ptr8non_null16NonNull$LT$T$GT$13new_unchecked17hec60ea765ef1a1e9E', symObjAddr: 0xC0, symBinAddr: 0x71A0, symSize: 0x3C }
  - { offset: 0x1E0DD, size: 0x8, addend: 0x0, symName: '__ZN4core3ptr8non_null16NonNull$LT$T$GT$3new17h1654452ef795dba0E', symObjAddr: 0xFC, symBinAddr: 0x71DC, symSize: 0x58 }
  - { offset: 0x1E11F, size: 0x8, addend: 0x0, symName: '__ZN4core3ptr8non_null16NonNull$LT$T$GT$4cast17h7e0d5b8cc5a8d459E', symObjAddr: 0x154, symBinAddr: 0x7234, symSize: 0x14 }
  - { offset: 0x1E154, size: 0x8, addend: 0x0, symName: '__ZN4core3ptr8non_null16NonNull$LT$T$GT$4cast17hadd21b6df208fc5cE', symObjAddr: 0x168, symBinAddr: 0x7248, symSize: 0x18 }
  - { offset: 0x1E189, size: 0x8, addend: 0x0, symName: '__ZN4core3ptr8non_null16NonNull$LT$T$GT$4cast17hae4c726a3142654eE', symObjAddr: 0x180, symBinAddr: 0x7260, symSize: 0x14 }
  - { offset: 0x1E23B, size: 0x8, addend: 0x0, symName: '__ZN4core3ptr8non_null16NonNull$LT$T$GT$13new_unchecked18precondition_check17ha36e988ce7334ebfE', symObjAddr: 0x0, symBinAddr: 0x7288, symSize: 0x58 }
  - { offset: 0x1E261, size: 0x8, addend: 0x0, symName: '__ZN4core3ptr8non_null16NonNull$LT$T$GT$13new_unchecked18precondition_check17ha36e988ce7334ebfE', symObjAddr: 0x0, symBinAddr: 0x7288, symSize: 0x58 }
  - { offset: 0x1E312, size: 0x8, addend: 0x0, symName: '__ZN4core3f6421_$LT$impl$u20$f64$GT$11is_infinite17hba3e0fe5367c4bdaE', symObjAddr: 0x0, symBinAddr: 0x72E0, symSize: 0x34 }
  - { offset: 0x1E35E, size: 0x8, addend: 0x0, symName: '__ZN4core3f6421_$LT$impl$u20$f64$GT$11is_infinite17hba3e0fe5367c4bdaE', symObjAddr: 0x0, symBinAddr: 0x72E0, symSize: 0x34 }
  - { offset: 0x1E3AA, size: 0x8, addend: 0x0, symName: '__ZN4core3f6421_$LT$impl$u20$f64$GT$8classify17h36d099b7d91b768cE', symObjAddr: 0x34, symBinAddr: 0x7314, symSize: 0xC0 }
  - { offset: 0x1E449, size: 0x8, addend: 0x0, symName: '__ZN4core5array8equality103_$LT$impl$u20$core..cmp..PartialEq$LT$$u5b$U$u3b$$u20$N$u5d$$GT$$u20$for$u20$$u5b$T$u3b$$u20$N$u5d$$GT$2ne17h7517e6d8be5b1c76E', symObjAddr: 0x0, symBinAddr: 0x73D4, symSize: 0x2C }
  - { offset: 0x1E46A, size: 0x8, addend: 0x0, symName: '__ZN4core5array8equality103_$LT$impl$u20$core..cmp..PartialEq$LT$$u5b$U$u3b$$u20$N$u5d$$GT$$u20$for$u20$$u5b$T$u3b$$u20$N$u5d$$GT$2ne17h7517e6d8be5b1c76E', symObjAddr: 0x0, symBinAddr: 0x73D4, symSize: 0x2C }
  - { offset: 0x1E4F5, size: 0x8, addend: 0x0, symName: '__ZN69_$LT$T$u20$as$u20$core..array..equality..SpecArrayEq$LT$U$C$_$GT$$GT$7spec_ne17hebf5fc65d195119aE', symObjAddr: 0x2C, symBinAddr: 0x7400, symSize: 0x3C }
  - { offset: 0x1E5B7, size: 0x8, addend: 0x0, symName: '__ZN4core3num21_$LT$impl$u20$i32$GT$12wrapping_abs17h9b898ee9ab64f8e8E', symObjAddr: 0x0, symBinAddr: 0x743C, symSize: 0x40 }
  - { offset: 0x1E647, size: 0x8, addend: 0x0, symName: '__ZN4core3num21_$LT$impl$u20$i32$GT$12wrapping_abs17h9b898ee9ab64f8e8E', symObjAddr: 0x0, symBinAddr: 0x743C, symSize: 0x40 }
  - { offset: 0x1E6BF, size: 0x8, addend: 0x0, symName: '__ZN4core3num21_$LT$impl$u20$u32$GT$11to_le_bytes17hb9a16eae91fe528eE', symObjAddr: 0x40, symBinAddr: 0x747C, symSize: 0x18 }
  - { offset: 0x1E713, size: 0x8, addend: 0x0, symName: '__ZN4core3num21_$LT$impl$u20$u32$GT$13from_le_bytes17ha822b97a122f7328E', symObjAddr: 0x58, symBinAddr: 0x7494, symSize: 0x1C }
  - { offset: 0x1E785, size: 0x8, addend: 0x0, symName: '__ZN4core3num21_$LT$impl$u20$u32$GT$13unchecked_add18precondition_check17h37ab549aaace6a01E', symObjAddr: 0x74, symBinAddr: 0x74B0, symSize: 0x64 }
  - { offset: 0x1E8FB, size: 0x8, addend: 0x0, symName: '__ZN4core3num21_$LT$impl$u20$u32$GT$16from_ascii_radix17h3da7282c7914c2d8E', symObjAddr: 0xD8, symBinAddr: 0x7514, symSize: 0x434 }
  - { offset: 0x1EBA7, size: 0x8, addend: 0x0, symName: '__ZN4core3num21_$LT$impl$u20$u64$GT$11to_le_bytes17h0d13c98d0fd46a3fE', symObjAddr: 0x50C, symBinAddr: 0x7948, symSize: 0x18 }
  - { offset: 0x1EBFB, size: 0x8, addend: 0x0, symName: '__ZN4core3num21_$LT$impl$u20$u64$GT$13from_le_bytes17h7dde076e8a924295E', symObjAddr: 0x524, symBinAddr: 0x7960, symSize: 0x1C }
  - { offset: 0x1EC44, size: 0x8, addend: 0x0, symName: '__ZN4core3num23_$LT$impl$u20$usize$GT$11checked_add17h2f1ec0c2203b28b9E', symObjAddr: 0x540, symBinAddr: 0x797C, symSize: 0x7C }
  - { offset: 0x1ECC9, size: 0x8, addend: 0x0, symName: '__ZN4core3num23_$LT$impl$u20$usize$GT$11checked_mul17h122439b728416cb2E', symObjAddr: 0x5BC, symBinAddr: 0x79F8, symSize: 0x74 }
  - { offset: 0x1EDA7, size: 0x8, addend: 0x0, symName: '__ZN4core3num23_$LT$impl$u20$usize$GT$13unchecked_add18precondition_check17hdd1193dfd269eec8E', symObjAddr: 0x630, symBinAddr: 0x7A6C, symSize: 0x64 }
  - { offset: 0x1EE50, size: 0x8, addend: 0x0, symName: '__ZN4core3num23_$LT$impl$u20$usize$GT$13unchecked_mul18precondition_check17h7fa61955e536dbbcE', symObjAddr: 0x694, symBinAddr: 0x7AD0, symSize: 0x60 }
  - { offset: 0x1EF06, size: 0x8, addend: 0x0, symName: '__ZN4core3num23_$LT$impl$u20$usize$GT$17next_power_of_two17h2c8625b4154dd419E', symObjAddr: 0x6F4, symBinAddr: 0x7B30, symSize: 0x8C }
  - { offset: 0x1EF8C, size: 0x8, addend: 0x0, symName: '__ZN4core3num60_$LT$impl$u20$core..str..traits..FromStr$u20$for$u20$u32$GT$8from_str17h74682d528fe4de96E', symObjAddr: 0x780, symBinAddr: 0x7BBC, symSize: 0x40 }
  - { offset: 0x1F2BB, size: 0x8, addend: 0x0, symName: '__ZN12flash_expert12expert_store11ExpertStore12load_experts28_$u7b$$u7b$closure$u7d$$u7d$17hbee6e3e1dec60f9fE', symObjAddr: 0x0, symBinAddr: 0x7BFC, symSize: 0x44 }
  - { offset: 0x1F35F, size: 0x8, addend: 0x0, symName: '__ZN4core5array4iter94_$LT$impl$u20$core..iter..traits..collect..IntoIterator$u20$for$u20$$u5b$T$u3b$$u20$N$u5d$$GT$9into_iter17h41c561ef8400f94eE', symObjAddr: 0x7AC, symBinAddr: 0x83A8, symSize: 0x88 }
  - { offset: 0x1F503, size: 0x8, addend: 0x0, symName: '__ZN4core3ops8function5impls71_$LT$impl$u20$core..ops..function..FnMut$LT$A$GT$$u20$for$u20$$RF$F$GT$8call_mut17h7257942b0c7a7e28E', symObjAddr: 0x77C, symBinAddr: 0x8378, symSize: 0x30 }
  - { offset: 0x1FD27, size: 0x8, addend: 0x0, symName: '__ZN12flash_expert12expert_store11ExpertStore12load_experts28_$u7b$$u7b$closure$u7d$$u7d$17hbee6e3e1dec60f9fE', symObjAddr: 0x0, symBinAddr: 0x7BFC, symSize: 0x44 }
  - { offset: 0x1FDB9, size: 0x8, addend: 0x0, symName: '__ZN12flash_expert12expert_store11ExpertStore3new28_$u7b$$u7b$closure$u7d$$u7d$17h2ed97cf30a7e7c30E', symObjAddr: 0x44, symBinAddr: 0x7C40, symSize: 0x24 }
  - { offset: 0x1FE1B, size: 0x8, addend: 0x0, symName: '__ZN12flash_expert12expert_store16ExpertFileHeader10from_bytes28_$u7b$$u7b$closure$u7d$$u7d$17h8177775e4e36dd79E', symObjAddr: 0x68, symBinAddr: 0x7C64, symSize: 0x458 }
  - { offset: 0x20056, size: 0x8, addend: 0x0, symName: '__ZN12flash_expert12expert_store16ExpertFileHeader10from_bytes28_$u7b$$u7b$closure$u7d$$u7d$17hde60028e52d70de3E', symObjAddr: 0x4C0, symBinAddr: 0x80BC, symSize: 0xE0 }
  - { offset: 0x200B5, size: 0x8, addend: 0x0, symName: '__ZN12flash_expert12expert_store16ExpertFileHeader10from_bytes28_$u7b$$u7b$closure$u7d$$u7d$28_$u7b$$u7b$closure$u7d$$u7d$17h1671ae9686ee9768E', symObjAddr: 0x5A0, symBinAddr: 0x819C, symSize: 0x1DC }
  - { offset: 0x207C9, size: 0x8, addend: 0x0, symName: __ZN12flash_expert8splitter11parse_shard17heac014916262f303E, symObjAddr: 0x0, symBinAddr: 0x8430, symSize: 0x358 }
  - { offset: 0x22384, size: 0x8, addend: 0x0, symName: __ZN12flash_expert8splitter11parse_shard17heac014916262f303E, symObjAddr: 0x0, symBinAddr: 0x8430, symSize: 0x358 }
  - { offset: 0x2257E, size: 0x8, addend: 0x0, symName: __ZN12flash_expert8splitter11split_model17h263b8d1eb58b006eE, symObjAddr: 0x358, symBinAddr: 0x8788, symSize: 0x13A4 }
  - { offset: 0x22A80, size: 0x8, addend: 0x0, symName: __ZN12flash_expert8splitter12tensor_shape17h430b0fa3fdf9f498E, symObjAddr: 0x16FC, symBinAddr: 0x9B2C, symSize: 0xFC }
  - { offset: 0x22B11, size: 0x8, addend: 0x0, symName: __ZN12flash_expert8splitter14extract_tensor17h49c75770fe82a443E, symObjAddr: 0x17F8, symBinAddr: 0x9C28, symSize: 0x3C8 }
  - { offset: 0x22DBF, size: 0x8, addend: 0x0, symName: __ZN12flash_expert8splitter18write_expert_files17h0a79fc30391166caE, symObjAddr: 0x1BC0, symBinAddr: 0x9FF0, symSize: 0x710 }
  - { offset: 0x22FF5, size: 0x8, addend: 0x0, symName: __ZN12flash_expert8splitter19write_layer_experts17h855aececb3e40889E, symObjAddr: 0x22D0, symBinAddr: 0xA700, symSize: 0x1D18 }
  - { offset: 0x2364B, size: 0x8, addend: 0x0, symName: __ZN12flash_expert8splitter22write_resident_weights17h3f764d25f69f7184E, symObjAddr: 0x3FE8, symBinAddr: 0xC418, symSize: 0x10F0 }
  - { offset: 0x23A22, size: 0x8, addend: 0x0, symName: __ZN12flash_expert8splitter22write_safetensors_file17h9c871a42ab67f65bE, symObjAddr: 0x50D8, symBinAddr: 0xD508, symSize: 0xE48 }
  - { offset: 0x24E0A, size: 0x8, addend: 0x0, symName: __ZN4core4iter6traits10exact_size17ExactSizeIterator3len17h54b803e30191f871E, symObjAddr: 0x0, symBinAddr: 0xE350, symSize: 0xB8 }
  - { offset: 0x24E39, size: 0x8, addend: 0x0, symName: '__ZN9hashbrown3raw21RawTable$LT$T$C$A$GT$14reserve_rehash28_$u7b$$u7b$closure$u7d$$u7d$17h1833186bcbd3aea4E', symObjAddr: 0x48E0, symBinAddr: 0x10808, symSize: 0x30 }
  - { offset: 0x24E89, size: 0x8, addend: 0x0, symName: '__ZN9hashbrown3raw21RawTable$LT$T$C$A$GT$14reserve_rehash28_$u7b$$u7b$closure$u7d$$u7d$17h254c2fc6fe80d737E', symObjAddr: 0x4910, symBinAddr: 0x10838, symSize: 0x30 }
  - { offset: 0x24ED9, size: 0x8, addend: 0x0, symName: '__ZN9hashbrown3raw21RawTable$LT$T$C$A$GT$14reserve_rehash28_$u7b$$u7b$closure$u7d$$u7d$17h3c7790d1716f96f9E', symObjAddr: 0x4940, symBinAddr: 0x10868, symSize: 0xC0 }
  - { offset: 0x250B7, size: 0x8, addend: 0x0, symName: '__ZN9hashbrown3raw21RawTable$LT$T$C$A$GT$14reserve_rehash28_$u7b$$u7b$closure$u7d$$u7d$17h88f18e2fdda6c326E', symObjAddr: 0x4A00, symBinAddr: 0x10928, symSize: 0x60 }
  - { offset: 0x25121, size: 0x8, addend: 0x0, symName: '__ZN9hashbrown3raw21RawTable$LT$T$C$A$GT$14reserve_rehash28_$u7b$$u7b$closure$u7d$$u7d$17had650dd09cd8d311E', symObjAddr: 0x4A60, symBinAddr: 0x10988, symSize: 0xC0 }
  - { offset: 0x252FF, size: 0x8, addend: 0x0, symName: '__ZN9hashbrown3raw21RawTable$LT$T$C$A$GT$14reserve_rehash28_$u7b$$u7b$closure$u7d$$u7d$17haf247bd8cbb59bc6E', symObjAddr: 0x4B20, symBinAddr: 0x10A48, symSize: 0x30 }
  - { offset: 0x2534F, size: 0x8, addend: 0x0, symName: '__ZN9hashbrown3raw21RawTable$LT$T$C$A$GT$14reserve_rehash28_$u7b$$u7b$closure$u7d$$u7d$17hf16cda01dce54d2eE', symObjAddr: 0x4B50, symBinAddr: 0x10A78, symSize: 0xC0 }
  - { offset: 0x25548, size: 0x8, addend: 0x0, symName: '__ZN9hashbrown3raw21RawTable$LT$T$C$A$GT$24find_or_find_insert_slot28_$u7b$$u7b$closure$u7d$$u7d$17h602b7f45b3c26e39E', symObjAddr: 0x5304, symBinAddr: 0x1122C, symSize: 0x50 }
  - { offset: 0x255C6, size: 0x8, addend: 0x0, symName: '__ZN9hashbrown3raw21RawTable$LT$T$C$A$GT$25find_or_find_insert_index28_$u7b$$u7b$closure$u7d$$u7d$17h603cf2b36ab1c8ddE', symObjAddr: 0x56F0, symBinAddr: 0x11618, symSize: 0xC4 }
  - { offset: 0x257B3, size: 0x8, addend: 0x0, symName: '__ZN9hashbrown3raw21RawTable$LT$T$C$A$GT$25find_or_find_insert_index28_$u7b$$u7b$closure$u7d$$u7d$17h7fedbe2316b4b032E', symObjAddr: 0x57B4, symBinAddr: 0x116DC, symSize: 0xC4 }
  - { offset: 0x259A0, size: 0x8, addend: 0x0, symName: '__ZN9hashbrown3raw21RawTable$LT$T$C$A$GT$25find_or_find_insert_index28_$u7b$$u7b$closure$u7d$$u7d$17he1c2a54b6250c5b7E', symObjAddr: 0x5878, symBinAddr: 0x117A0, symSize: 0xC4 }
  - { offset: 0x25B93, size: 0x8, addend: 0x0, symName: '__ZN9hashbrown3raw21RawTable$LT$T$C$A$GT$4find28_$u7b$$u7b$closure$u7d$$u7d$17h87678c411766b441E', symObjAddr: 0x6604, symBinAddr: 0x1252C, symSize: 0x50 }
  - { offset: 0x25C02, size: 0x8, addend: 0x0, symName: '__ZN9hashbrown3raw21RawTable$LT$T$C$A$GT$4find28_$u7b$$u7b$closure$u7d$$u7d$17h9fb803a60184aae7E', symObjAddr: 0x6654, symBinAddr: 0x1257C, symSize: 0xC4 }
  - { offset: 0x25DE6, size: 0x8, addend: 0x0, symName: '__ZN9hashbrown3raw21RawTable$LT$T$C$A$GT$4find28_$u7b$$u7b$closure$u7d$$u7d$17hbd6d77a482de11beE', symObjAddr: 0x6718, symBinAddr: 0x12640, symSize: 0xC4 }
  - { offset: 0x25FCA, size: 0x8, addend: 0x0, symName: '__ZN9hashbrown3raw21RawTable$LT$T$C$A$GT$4find28_$u7b$$u7b$closure$u7d$$u7d$17hf9f61a87e96044a2E', symObjAddr: 0x67DC, symBinAddr: 0x12704, symSize: 0x50 }
  - { offset: 0x2717B, size: 0x8, addend: 0x0, symName: '__ZN91_$LT$hashbrown..raw..RawIter$LT$T$GT$$u20$as$u20$core..iter..traits..iterator..Iterator$GT$4next17hb4d7cfaaeabbc598E', symObjAddr: 0x1A0, symBinAddr: 0xE4F0, symSize: 0xB8 }
  - { offset: 0x271C8, size: 0x8, addend: 0x0, symName: '__ZN91_$LT$hashbrown..raw..RawIter$LT$T$GT$$u20$as$u20$core..iter..traits..iterator..Iterator$GT$9size_hint17hb33c3628fe25f973E', symObjAddr: 0x258, symBinAddr: 0xE5A8, symSize: 0x30 }
  - { offset: 0x27205, size: 0x8, addend: 0x0, symName: '__ZN96_$LT$hashbrown..raw..RawDrain$LT$T$C$A$GT$$u20$as$u20$core..iter..traits..iterator..Iterator$GT$4next17h0790042b29737edaE', symObjAddr: 0x288, symBinAddr: 0xE5D8, symSize: 0x7C }
  - { offset: 0x27586, size: 0x8, addend: 0x0, symName: '__ZN99_$LT$hashbrown..raw..RawIntoIter$LT$T$C$A$GT$$u20$as$u20$core..iter..traits..iterator..Iterator$GT$4next17had6509e7b3c1db33E', symObjAddr: 0x304, symBinAddr: 0xE654, symSize: 0xFC }
  - { offset: 0x2774C, size: 0x8, addend: 0x0, symName: '__ZN99_$LT$hashbrown..raw..RawTable$LT$T$C$A$GT$$u20$as$u20$core..iter..traits..collect..IntoIterator$GT$9into_iter17h94a613b88f5b3f01E', symObjAddr: 0x400, symBinAddr: 0xE750, symSize: 0x128 }
  - { offset: 0x2794D, size: 0x8, addend: 0x0, symName: __ZN9hashbrown3raw11offset_from17h0172f4305f7b96bcE, symObjAddr: 0x528, symBinAddr: 0xE878, symSize: 0x2C }
  - { offset: 0x27CFF, size: 0x8, addend: 0x0, symName: '__ZN9hashbrown3raw13RawTableInner14prepare_resize28_$u7b$$u7b$closure$u7d$$u7d$17h244f13d5b3c0aee3E', symObjAddr: 0xBDC, symBinAddr: 0xEF2C, symSize: 0x5C }
  - { offset: 0x27D7A, size: 0x8, addend: 0x0, symName: '__ZN9hashbrown3raw13RawTableInner15rehash_in_place28_$u7b$$u7b$closure$u7d$$u7d$17h17c63b37923dcf67E', symObjAddr: 0xC38, symBinAddr: 0xEF88, symSize: 0x184 }
  - { offset: 0x27E2E, size: 0x8, addend: 0x0, symName: '__ZN9hashbrown3raw13RawTableInner16is_in_same_group28_$u7b$$u7b$closure$u7d$$u7d$17h8b116ae68d7d2b0eE', symObjAddr: 0x1034, symBinAddr: 0xF384, symSize: 0x40 }
  - { offset: 0x27EAE, size: 0x8, addend: 0x0, symName: '__ZN9hashbrown3raw13RawTableInner22fallible_with_capacity28_$u7b$$u7b$closure$u7d$$u7d$17h8a486e96097d6504E', symObjAddr: 0x1438, symBinAddr: 0xF788, symSize: 0x2C }
  - { offset: 0x2AE7B, size: 0x8, addend: 0x0, symName: __ZN4core4iter6traits10exact_size17ExactSizeIterator3len17h54b803e30191f871E, symObjAddr: 0x0, symBinAddr: 0xE350, symSize: 0xB8 }
  - { offset: 0x2AFBA, size: 0x8, addend: 0x0, symName: __ZN4core4iter6traits8iterator8Iterator4fold17h9dd8f1f6ab360a3dE, symObjAddr: 0xB8, symBinAddr: 0xE408, symSize: 0xD4 }
  - { offset: 0x2B0A2, size: 0x8, addend: 0x0, symName: '__ZN63_$LT$I$u20$as$u20$core..iter..traits..collect..IntoIterator$GT$9into_iter17hd8b642e4759893ebE', symObjAddr: 0x18C, symBinAddr: 0xE4DC, symSize: 0x14 }
  - { offset: 0x2C704, size: 0x8, addend: 0x0, symName: __ZN9hashbrown3raw13RawTableInner12free_buckets17hd3f94473b8075dddE, symObjAddr: 0x554, symBinAddr: 0xE8A4, symSize: 0x9C }
  - { offset: 0x2C8E0, size: 0x8, addend: 0x0, symName: __ZN9hashbrown3raw13RawTableInner13drop_elements17h5e9c59120a19cab8E, symObjAddr: 0x5F0, symBinAddr: 0xE940, symSize: 0x15C }
  - { offset: 0x2CC91, size: 0x8, addend: 0x0, symName: __ZN9hashbrown3raw13RawTableInner13drop_elements17h90c4ea99bb709c71E, symObjAddr: 0x74C, symBinAddr: 0xEA9C, symSize: 0x15C }
  - { offset: 0x2D042, size: 0x8, addend: 0x0, symName: __ZN9hashbrown3raw13RawTableInner13drop_elements17haa219c4e68e96df0E, symObjAddr: 0x8A8, symBinAddr: 0xEBF8, symSize: 0x15C }
  - { offset: 0x2D297, size: 0x8, addend: 0x0, symName: __ZN9hashbrown3raw13RawTableInner13drop_elements17hb21d65766d58ab59E, symObjAddr: 0xA04, symBinAddr: 0xED54, symSize: 0x14 }
  - { offset: 0x2D2C3, size: 0x8, addend: 0x0, symName: __ZN9hashbrown3raw13RawTableInner13with_capacity17hdc3f3fafe6fc371cE, symObjAddr: 0xA18, symBinAddr: 0xED68, symSize: 0x78 }
  - { offset: 0x2D31A, size: 0x8, addend: 0x0, symName: __ZN9hashbrown3raw13RawTableInner14prepare_resize17h1022a47a6631d98aE, symObjAddr: 0xA90, symBinAddr: 0xEDE0, symSize: 0x14C }
  - { offset: 0x2D511, size: 0x8, addend: 0x0, symName: __ZN9hashbrown3raw13RawTableInner16drop_inner_table17hba43597ca4a773aaE, symObjAddr: 0xDBC, symBinAddr: 0xF10C, symSize: 0xB0 }
  - { offset: 0x2D69F, size: 0x8, addend: 0x0, symName: __ZN9hashbrown3raw13RawTableInner16drop_inner_table17hc3e2af853f527c71E, symObjAddr: 0xE6C, symBinAddr: 0xF1BC, symSize: 0x68 }
  - { offset: 0x2D7E9, size: 0x8, addend: 0x0, symName: __ZN9hashbrown3raw13RawTableInner16drop_inner_table17hddc080a447bb784eE, symObjAddr: 0xED4, symBinAddr: 0xF224, symSize: 0xB0 }
  - { offset: 0x2DA6E, size: 0x8, addend: 0x0, symName: __ZN9hashbrown3raw13RawTableInner16drop_inner_table17he029e5578eb4dfbfE, symObjAddr: 0xF84, symBinAddr: 0xF2D4, symSize: 0xB0 }
  - { offset: 0x2DBFC, size: 0x8, addend: 0x0, symName: __ZN9hashbrown3raw13RawTableInner17new_uninitialized17hb148eda0841cc7f8E, symObjAddr: 0x1074, symBinAddr: 0xF3C4, symSize: 0x204 }
  - { offset: 0x2DD2F, size: 0x8, addend: 0x0, symName: __ZN9hashbrown3raw13RawTableInner22fallible_with_capacity17h09b67bfcfb2b4a5bE, symObjAddr: 0x1278, symBinAddr: 0xF5C8, symSize: 0x1C0 }
  - { offset: 0x2DE30, size: 0x8, addend: 0x0, symName: __ZN9hashbrown3raw13RawTableInner4iter17hbe1d367e779277e3E, symObjAddr: 0x1464, symBinAddr: 0xF7B4, symSize: 0x88 }
  - { offset: 0x2DE7A, size: 0x8, addend: 0x0, symName: __ZN9hashbrown3raw13RawTableInner6bucket17h195300060d41516cE, symObjAddr: 0x14EC, symBinAddr: 0xF83C, symSize: 0xCC }
  - { offset: 0x2DEF9, size: 0x8, addend: 0x0, symName: __ZN9hashbrown3raw13RawTableInner8data_end17h7bd7e5ff180ebe6fE, symObjAddr: 0x15B8, symBinAddr: 0xF908, symSize: 0x28 }
  - { offset: 0x2DF25, size: 0x8, addend: 0x0, symName: __ZN9hashbrown3raw13RawTableInner8data_end17hf3d9e2abad0f4d79E, symObjAddr: 0x15E0, symBinAddr: 0xF930, symSize: 0x28 }
  - { offset: 0x2DF5E, size: 0x8, addend: 0x0, symName: '__ZN9hashbrown3raw15Bucket$LT$T$GT$13to_base_index17hd8900daafe90e7feE', symObjAddr: 0x1608, symBinAddr: 0xF958, symSize: 0x54 }
  - { offset: 0x2DFA6, size: 0x8, addend: 0x0, symName: '__ZN9hashbrown3raw15Bucket$LT$T$GT$15from_base_index17h382344108fbc3819E', symObjAddr: 0x165C, symBinAddr: 0xF9AC, symSize: 0x6C }
  - { offset: 0x2E025, size: 0x8, addend: 0x0, symName: '__ZN9hashbrown3raw15Bucket$LT$T$GT$4read17hd5a1cb1d4047d0dfE', symObjAddr: 0x16C8, symBinAddr: 0xFA18, symSize: 0x38 }
  - { offset: 0x2E084, size: 0x8, addend: 0x0, symName: '__ZN9hashbrown3raw15Bucket$LT$T$GT$5write17h4a6f680bed5f202aE', symObjAddr: 0x1700, symBinAddr: 0xFA50, symSize: 0xA4 }
  - { offset: 0x2E110, size: 0x8, addend: 0x0, symName: '__ZN9hashbrown3raw15Bucket$LT$T$GT$6as_mut17h1cc72ced9f24ae76E', symObjAddr: 0x17A4, symBinAddr: 0xFAF4, symSize: 0x24 }
  - { offset: 0x2E13C, size: 0x8, addend: 0x0, symName: '__ZN9hashbrown3raw15Bucket$LT$T$GT$6as_ptr17h2c46e79f71efbac6E', symObjAddr: 0x17C8, symBinAddr: 0xFB18, symSize: 0x48 }
  - { offset: 0x2E19B, size: 0x8, addend: 0x0, symName: '__ZN9hashbrown3raw15Bucket$LT$T$GT$6as_ref17h39c0588203f6e421E', symObjAddr: 0x1810, symBinAddr: 0xFB60, symSize: 0x24 }
  - { offset: 0x2E1C7, size: 0x8, addend: 0x0, symName: '__ZN9hashbrown3raw15Bucket$LT$T$GT$6next_n17hb5d23aee9894bc1dE', symObjAddr: 0x1834, symBinAddr: 0xFB84, symSize: 0x70 }
  - { offset: 0x2E2A7, size: 0x8, addend: 0x0, symName: '__ZN9hashbrown3raw16RawIter$LT$T$GT$13drop_elements17h65fbcf77cf0ea15aE', symObjAddr: 0x18A4, symBinAddr: 0xFBF4, symSize: 0xDC }
  - { offset: 0x2E3DF, size: 0x8, addend: 0x0, symName: '__ZN9hashbrown3raw16RawIter$LT$T$GT$13drop_elements17h976dc8440f87b3b7E', symObjAddr: 0x1980, symBinAddr: 0xFCD0, symSize: 0x14 }
  - { offset: 0x2E40B, size: 0x8, addend: 0x0, symName: '__ZN9hashbrown3raw17RawTable$LT$T$GT$13with_capacity17h7a2660b9ffffa024E', symObjAddr: 0x1994, symBinAddr: 0xFCE4, symSize: 0x20 }
  - { offset: 0x2E48B, size: 0x8, addend: 0x0, symName: '__ZN9hashbrown3raw21RawIterRange$LT$T$GT$3new17h0483cc5c4fb82d0dE', symObjAddr: 0x19B4, symBinAddr: 0xFD04, symSize: 0x98 }
  - { offset: 0x2E5F8, size: 0x8, addend: 0x0, symName: '__ZN9hashbrown3raw21RawIterRange$LT$T$GT$3new17h31661ad82fc7316eE', symObjAddr: 0x1A4C, symBinAddr: 0xFD9C, symSize: 0x98 }
  - { offset: 0x2E765, size: 0x8, addend: 0x0, symName: '__ZN9hashbrown3raw21RawIterRange$LT$T$GT$3new17hb7286852ec69dee4E', symObjAddr: 0x1AE4, symBinAddr: 0xFE34, symSize: 0x98 }
  - { offset: 0x2E898, size: 0x8, addend: 0x0, symName: '__ZN9hashbrown3raw21RawIterRange$LT$T$GT$3new17hcdd22bf34e68951dE', symObjAddr: 0x1B7C, symBinAddr: 0xFECC, symSize: 0x174 }
  - { offset: 0x2EB79, size: 0x8, addend: 0x0, symName: '__ZN9hashbrown3raw21RawIterRange$LT$T$GT$9next_impl17h321d87b3693c0518E', symObjAddr: 0x1CF0, symBinAddr: 0x10040, symSize: 0x1B4 }
  - { offset: 0x2EFC4, size: 0x8, addend: 0x0, symName: '__ZN9hashbrown3raw21RawIterRange$LT$T$GT$9next_impl17h9ce1bea93612a472E', symObjAddr: 0x1EA4, symBinAddr: 0x101F4, symSize: 0x1B4 }
  - { offset: 0x2F2C8, size: 0x8, addend: 0x0, symName: '__ZN9hashbrown3raw21RawIterRange$LT$T$GT$9next_impl17hb8eded0eebecc14fE', symObjAddr: 0x2058, symBinAddr: 0x103A8, symSize: 0xCC }
  - { offset: 0x2F48C, size: 0x8, addend: 0x0, symName: '__ZN9hashbrown3raw21RawIterRange$LT$T$GT$9next_impl17hdf0ffba90d2f971bE', symObjAddr: 0x2124, symBinAddr: 0x10474, symSize: 0x1B4 }
  - { offset: 0x2F783, size: 0x8, addend: 0x0, symName: '__ZN9hashbrown3raw21RawTable$LT$T$C$A$GT$12bucket_index17h54be03d79cf6cff2E', symObjAddr: 0x22D8, symBinAddr: 0x10628, symSize: 0x38 }
  - { offset: 0x2F7D4, size: 0x8, addend: 0x0, symName: '__ZN9hashbrown3raw21RawTable$LT$T$C$A$GT$12remove_entry17hc4b88d55b6cd77c2E', symObjAddr: 0x2310, symBinAddr: 0x10660, symSize: 0x84 }
  - { offset: 0x2F84E, size: 0x8, addend: 0x0, symName: '__ZN9hashbrown3raw21RawTable$LT$T$C$A$GT$13erase_no_drop17hc414c753384bd4dcE', symObjAddr: 0x2394, symBinAddr: 0x106E4, symSize: 0x40 }
  - { offset: 0x2F8B0, size: 0x8, addend: 0x0, symName: '__ZN9hashbrown3raw21RawTable$LT$T$C$A$GT$14insert_in_slot17h836b59094b5a91faE', symObjAddr: 0x23D4, symBinAddr: 0x10724, symSize: 0xE4 }
  - { offset: 0x2FE3D, size: 0x8, addend: 0x0, symName: '__ZN9hashbrown3raw21RawTable$LT$T$C$A$GT$14reserve_rehash17h4bd7e8f5a666d826E', symObjAddr: 0x24B8, symBinAddr: 0xFBCDC, symSize: 0x7A4 }
  - { offset: 0x309AC, size: 0x8, addend: 0x0, symName: '__ZN9hashbrown3raw21RawTable$LT$T$C$A$GT$14reserve_rehash17h97a588d79c6aa5cdE', symObjAddr: 0x2C5C, symBinAddr: 0xFC480, symSize: 0xD30 }
  - { offset: 0x30E15, size: 0x8, addend: 0x0, symName: '__ZN9hashbrown3raw21RawTable$LT$T$C$A$GT$14reserve_rehash17hbbe99bcdf5ec65afE', symObjAddr: 0x398C, symBinAddr: 0xFD1B0, symSize: 0x7A0 }
  - { offset: 0x316D9, size: 0x8, addend: 0x0, symName: '__ZN9hashbrown3raw21RawTable$LT$T$C$A$GT$14reserve_rehash17hf297c113f194685bE', symObjAddr: 0x412C, symBinAddr: 0xFD950, symSize: 0x7B4 }
  - { offset: 0x32378, size: 0x8, addend: 0x0, symName: '__ZN9hashbrown3raw21RawTable$LT$T$C$A$GT$15drain_iter_from17he0cf7c57f7094e16E', symObjAddr: 0x4C10, symBinAddr: 0x10B38, symSize: 0x100 }
  - { offset: 0x3244B, size: 0x8, addend: 0x0, symName: '__ZN9hashbrown3raw21RawTable$LT$T$C$A$GT$15into_allocation17hf225e8e199df18e4E', symObjAddr: 0x4D10, symBinAddr: 0x10C38, symSize: 0x120 }
  - { offset: 0x3254E, size: 0x8, addend: 0x0, symName: '__ZN9hashbrown3raw21RawTable$LT$T$C$A$GT$16with_capacity_in17h3931123261dc5bb5E', symObjAddr: 0x4E30, symBinAddr: 0x10D58, symSize: 0x70 }
  - { offset: 0x3275C, size: 0x8, addend: 0x0, symName: '__ZN9hashbrown3raw21RawTable$LT$T$C$A$GT$22insert_tagged_at_index17h4970ef3f69dd8841E', symObjAddr: 0x4EA0, symBinAddr: 0x10DC8, symSize: 0x11C }
  - { offset: 0x32C8C, size: 0x8, addend: 0x0, symName: '__ZN9hashbrown3raw21RawTable$LT$T$C$A$GT$22insert_tagged_at_index17h74c308dd94c40f00E', symObjAddr: 0x4FBC, symBinAddr: 0x10EE4, symSize: 0x124 }
  - { offset: 0x331B2, size: 0x8, addend: 0x0, symName: '__ZN9hashbrown3raw21RawTable$LT$T$C$A$GT$22insert_tagged_at_index17ha6113e59164abd72E', symObjAddr: 0x50E0, symBinAddr: 0x11008, symSize: 0x124 }
  - { offset: 0x3350E, size: 0x8, addend: 0x0, symName: '__ZN9hashbrown3raw21RawTable$LT$T$C$A$GT$24find_or_find_insert_slot17ha187e0eea2d3906fE', symObjAddr: 0x5204, symBinAddr: 0x1112C, symSize: 0x100 }
  - { offset: 0x336C8, size: 0x8, addend: 0x0, symName: '__ZN9hashbrown3raw21RawTable$LT$T$C$A$GT$25find_or_find_insert_index17h1a7ad0358f514ec3E', symObjAddr: 0x5354, symBinAddr: 0x1127C, symSize: 0x134 }
  - { offset: 0x33982, size: 0x8, addend: 0x0, symName: '__ZN9hashbrown3raw21RawTable$LT$T$C$A$GT$25find_or_find_insert_index17hab133b99a6ce4ea3E', symObjAddr: 0x5488, symBinAddr: 0x113B0, symSize: 0x134 }
  - { offset: 0x33C3C, size: 0x8, addend: 0x0, symName: '__ZN9hashbrown3raw21RawTable$LT$T$C$A$GT$25find_or_find_insert_index17hd17642e2ca0b2e21E', symObjAddr: 0x55BC, symBinAddr: 0x114E4, symSize: 0x134 }
  - { offset: 0x341D6, size: 0x8, addend: 0x0, symName: '__ZN9hashbrown3raw21RawTable$LT$T$C$A$GT$3len17hf473e5d03ac982d3E', symObjAddr: 0x593C, symBinAddr: 0x11864, symSize: 0x18 }
  - { offset: 0x34515, size: 0x8, addend: 0x0, symName: '__ZN9hashbrown3raw21RawTable$LT$T$C$A$GT$4find17h17eed2b157734b75E', symObjAddr: 0x5954, symBinAddr: 0x1187C, symSize: 0x318 }
  - { offset: 0x34A9D, size: 0x8, addend: 0x0, symName: '__ZN9hashbrown3raw21RawTable$LT$T$C$A$GT$4find17h81d73935bdbb6ac9E', symObjAddr: 0x5C6C, symBinAddr: 0x11B94, symSize: 0x318 }
  - { offset: 0x34FA0, size: 0x8, addend: 0x0, symName: '__ZN9hashbrown3raw21RawTable$LT$T$C$A$GT$4find17hacc3d125486fc466E', symObjAddr: 0x5F84, symBinAddr: 0x11EAC, symSize: 0x340 }
  - { offset: 0x35149, size: 0x8, addend: 0x0, symName: '__ZN9hashbrown3raw21RawTable$LT$T$C$A$GT$4find17he08edb112f6a7018E', symObjAddr: 0x62C4, symBinAddr: 0x121EC, symSize: 0x340 }
  - { offset: 0x3558E, size: 0x8, addend: 0x0, symName: '__ZN9hashbrown3raw21RawTable$LT$T$C$A$GT$4iter17hfc27840439531454E', symObjAddr: 0x682C, symBinAddr: 0x12754, symSize: 0x24 }
  - { offset: 0x355C3, size: 0x8, addend: 0x0, symName: '__ZN9hashbrown3raw21RawTable$LT$T$C$A$GT$5drain17h4aa3f2a8e62acd45E', symObjAddr: 0x6850, symBinAddr: 0x12778, symSize: 0x5C }
  - { offset: 0x35616, size: 0x8, addend: 0x0, symName: '__ZN9hashbrown3raw21RawTable$LT$T$C$A$GT$6bucket17h13c66322b5bf770fE', symObjAddr: 0x68AC, symBinAddr: 0x127D4, symSize: 0xCC }
  - { offset: 0x356BC, size: 0x8, addend: 0x0, symName: '__ZN9hashbrown3raw21RawTable$LT$T$C$A$GT$6remove17h75e0e5b476619303E', symObjAddr: 0x6978, symBinAddr: 0x128A0, symSize: 0x9C }
  - { offset: 0x35700, size: 0x8, addend: 0x0, symName: '__ZN9hashbrown3raw21RawTable$LT$T$C$A$GT$7buckets17h6b83d766cbf14841E', symObjAddr: 0x6A14, symBinAddr: 0x1293C, symSize: 0x48 }
  - { offset: 0x35735, size: 0x8, addend: 0x0, symName: '__ZN9hashbrown3raw21RawTable$LT$T$C$A$GT$7get_mut17h4c233f094334f45fE', symObjAddr: 0x6A5C, symBinAddr: 0x12984, symSize: 0x6C }
  - { offset: 0x357AF, size: 0x8, addend: 0x0, symName: '__ZN9hashbrown3raw21RawTable$LT$T$C$A$GT$7get_mut17h80907cd8855c56d9E', symObjAddr: 0x6AC8, symBinAddr: 0x129F0, symSize: 0x6C }
  - { offset: 0x35880, size: 0x8, addend: 0x0, symName: '__ZN9hashbrown3raw21RawTable$LT$T$C$A$GT$7reserve17h03e3d88fe68b750aE', symObjAddr: 0x6B34, symBinAddr: 0x12A5C, symSize: 0xB0 }
  - { offset: 0x35984, size: 0x8, addend: 0x0, symName: '__ZN9hashbrown3raw21RawTable$LT$T$C$A$GT$7reserve17h74c242bb0ac5b8f2E', symObjAddr: 0x6BE4, symBinAddr: 0x12B0C, symSize: 0xB0 }
  - { offset: 0x35A3E, size: 0x8, addend: 0x0, symName: '__ZN9hashbrown3raw21RawTable$LT$T$C$A$GT$7reserve17h7fc5649ef0b07ceaE', symObjAddr: 0x6C94, symBinAddr: 0x12BBC, symSize: 0x12C }
  - { offset: 0x35B16, size: 0x8, addend: 0x0, symName: '__ZN9hashbrown3raw21RawTable$LT$T$C$A$GT$7reserve17hfbb14b469c3d5673E', symObjAddr: 0x6DC0, symBinAddr: 0x12CE8, symSize: 0xB0 }
  - { offset: 0x35BD0, size: 0x8, addend: 0x0, symName: '__ZN9hashbrown3raw21RawTable$LT$T$C$A$GT$8data_end17ha6f5ca0c1f6ba478E', symObjAddr: 0x6E70, symBinAddr: 0x12D98, symSize: 0x28 }
  - { offset: 0x35C05, size: 0x8, addend: 0x0, symName: '__ZN9hashbrown3raw21RawTable$LT$T$C$A$GT$8is_empty17hd9bdeb070faf7a99E', symObjAddr: 0x6E98, symBinAddr: 0x12DC0, symSize: 0x2C }
  - { offset: 0x35CD1, size: 0x8, addend: 0x0, symName: _PyInit__native, symObjAddr: 0x0, symBinAddr: 0x12DEC, symSize: 0x34 }
  - { offset: 0x35CF5, size: 0x8, addend: 0x0, symName: __ZN12flash_expert7_native9_PYO3_DEF17h414062ff5fcf40a7E, symObjAddr: 0x50, symBinAddr: 0x1904E8, symSize: 0x0 }
  - { offset: 0x35D02, size: 0x8, addend: 0x0, symName: _PyInit__native, symObjAddr: 0x0, symBinAddr: 0x12DEC, symSize: 0x34 }
  - { offset: 0x36C0C, size: 0x8, addend: 0x0, symName: '__ZN4core3cmp5impls69_$LT$impl$u20$core..cmp..PartialEq$LT$$RF$B$GT$$u20$for$u20$$RF$A$GT$2ne17h8fa03e9ed3290131E', symObjAddr: 0x0, symBinAddr: 0x12E20, symSize: 0x34 }
  - { offset: 0x36C2D, size: 0x8, addend: 0x0, symName: '__ZN4core3cmp5impls69_$LT$impl$u20$core..cmp..PartialEq$LT$$RF$B$GT$$u20$for$u20$$RF$A$GT$2ne17h8fa03e9ed3290131E', symObjAddr: 0x0, symBinAddr: 0x12E20, symSize: 0x34 }
  - { offset: 0x36CDA, size: 0x8, addend: 0x0, symName: __ZN3std4path4Path3new17ha96dfaf60236d826E, symObjAddr: 0x0, symBinAddr: 0x12E54, symSize: 0x28 }
  - { offset: 0x36E9A, size: 0x8, addend: 0x0, symName: __ZN3std4path4Path3new17ha96dfaf60236d826E, symObjAddr: 0x0, symBinAddr: 0x12E54, symSize: 0x28 }
  - { offset: 0x36FB3, size: 0x8, addend: 0x0, symName: '__ZN5alloc5slice29_$LT$impl$u20$$u5b$T$u5d$$GT$11sort_by_key17h9d6377494a821f9cE', symObjAddr: 0x550, symBinAddr: 0x133A4, symSize: 0x48 }
  - { offset: 0x37192, size: 0x8, addend: 0x0, symName: '__ZN42_$LT$$RF$T$u20$as$u20$core..fmt..Debug$GT$3fmt17h90fc89ff381e3360E', symObjAddr: 0x234, symBinAddr: 0x13088, symSize: 0x30 }
  - { offset: 0x3726D, size: 0x8, addend: 0x0, symName: '__ZN4core5slice29_$LT$impl$u20$$u5b$T$u5d$$GT$12split_at_mut17h7b7dba32115198fdE', symObjAddr: 0x264, symBinAddr: 0x130B8, symSize: 0xAC }
  - { offset: 0x372F8, size: 0x8, addend: 0x0, symName: '__ZN4core5slice29_$LT$impl$u20$$u5b$T$u5d$$GT$22split_at_mut_unchecked17h4719a572b14498c8E', symObjAddr: 0x310, symBinAddr: 0x13164, symSize: 0xF0 }
  - { offset: 0x37458, size: 0x8, addend: 0x0, symName: '__ZN4core5slice29_$LT$impl$u20$$u5b$T$u5d$$GT$7reverse17h08f36d86ec13230eE', symObjAddr: 0x400, symBinAddr: 0x13254, symSize: 0xF8 }
  - { offset: 0x3765F, size: 0x8, addend: 0x0, symName: '__ZN68_$LT$T$u20$as$u20$core..slice..sort..stable..quicksort..IsFreeze$GT$9is_freeze17he29fdaeac7de77a6E', symObjAddr: 0x598, symBinAddr: 0x133EC, symSize: 0xC }
  - { offset: 0x37732, size: 0x8, addend: 0x0, symName: '__ZN55_$LT$$RF$T$u20$as$u20$core..convert..AsRef$LT$U$GT$$GT$6as_ref17h45995d117a116c32E', symObjAddr: 0x4F8, symBinAddr: 0x1334C, symSize: 0x30 }
  - { offset: 0x37772, size: 0x8, addend: 0x0, symName: '__ZN55_$LT$$RF$T$u20$as$u20$core..convert..AsRef$LT$U$GT$$GT$6as_ref17haedc14cbc686fe1aE', symObjAddr: 0x528, symBinAddr: 0x1337C, symSize: 0x28 }
  - { offset: 0x37848, size: 0x8, addend: 0x0, symName: __ZN3std4path4Path4join17h175c79793d05b7bdE, symObjAddr: 0x28, symBinAddr: 0x12E7C, symSize: 0x7C }
  - { offset: 0x37883, size: 0x8, addend: 0x0, symName: __ZN3std4path4Path4join17h652014af94413541E, symObjAddr: 0xA4, symBinAddr: 0x12EF8, symSize: 0x80 }
  - { offset: 0x378BE, size: 0x8, addend: 0x0, symName: __ZN3std4path4Path4join17h944bf6359227180aE, symObjAddr: 0x124, symBinAddr: 0x12F78, symSize: 0x94 }
  - { offset: 0x37907, size: 0x8, addend: 0x0, symName: __ZN3std4path4Path4join17ha769dce68cb1c15bE, symObjAddr: 0x1B8, symBinAddr: 0x1300C, symSize: 0x7C }
  - { offset: 0x37AB3, size: 0x8, addend: 0x0, symName: '__ZN106_$LT$pyo3..impl_..extract_argument..NoVarargs$u20$as$u20$pyo3..impl_..extract_argument..VarargsHandler$GT$20handle_varargs_tuple17h95f65c544805053dE', symObjAddr: 0x0, symBinAddr: 0x133F8, symSize: 0xA0 }
  - { offset: 0x37B59, size: 0x8, addend: 0x0, symName: '__ZN106_$LT$pyo3..impl_..extract_argument..NoVarargs$u20$as$u20$pyo3..impl_..extract_argument..VarargsHandler$GT$20handle_varargs_tuple17h95f65c544805053dE', symObjAddr: 0x0, symBinAddr: 0x133F8, symSize: 0xA0 }
  - { offset: 0x37BD2, size: 0x8, addend: 0x0, symName: '__ZN106_$LT$pyo3..impl_..extract_argument..NoVarargs$u20$as$u20$pyo3..impl_..extract_argument..VarargsHandler$GT$23handle_varargs_fastcall17hd0686b3e12d7828bE', symObjAddr: 0xA0, symBinAddr: 0x13498, symSize: 0xB4 }
  - { offset: 0x37C46, size: 0x8, addend: 0x0, symName: '__ZN114_$LT$pyo3..impl_..extract_argument..NoVarkeywords$u20$as$u20$pyo3..impl_..extract_argument..VarkeywordsHandler$GT$17handle_varkeyword17h033fc32df014a63bE', symObjAddr: 0x154, symBinAddr: 0x1354C, symSize: 0x6C }
  - { offset: 0x37D85, size: 0x8, addend: 0x0, symName: __ZN4pyo35impl_16extract_argument24unwrap_required_argument17h8a51153decbc0436E, symObjAddr: 0x574, symBinAddr: 0x1396C, symSize: 0x58 }
  - { offset: 0x38931, size: 0x8, addend: 0x0, symName: __ZN4pyo35impl_16extract_argument19FunctionDescription36find_keyword_parameter_in_positional17h29fe5dfc25045ea9E, symObjAddr: 0x1C0, symBinAddr: 0x135B8, symSize: 0x5C }
  - { offset: 0x38963, size: 0x8, addend: 0x0, symName: __ZN4pyo35impl_16extract_argument19FunctionDescription38find_keyword_parameter_in_keyword_only17h4a87f3dacb3fcaffE, symObjAddr: 0x21C, symBinAddr: 0x13614, symSize: 0x5C }
  - { offset: 0x38C49, size: 0x8, addend: 0x0, symName: __ZN4pyo35impl_16extract_argument19FunctionDescription44ensure_no_missing_required_keyword_arguments17h43c2f9dcdde7393dE, symObjAddr: 0x278, symBinAddr: 0x13670, symSize: 0x160 }
  - { offset: 0x38D15, size: 0x8, addend: 0x0, symName: __ZN4pyo35impl_16extract_argument19FunctionDescription47ensure_no_missing_required_positional_arguments17h0691a62e550156d5E, symObjAddr: 0x3D8, symBinAddr: 0x137D0, symSize: 0x19C }
  - { offset: 0x38EAA, size: 0x8, addend: 0x0, symName: '__ZN106_$LT$hashbrown..map..HashMap$LT$K$C$V$C$S$C$A$GT$$u20$as$u20$core..iter..traits..collect..IntoIterator$GT$9into_iter17ha0e5036b3e173399E', symObjAddr: 0x0, symBinAddr: 0x139C4, symSize: 0x6C }
  - { offset: 0x3955E, size: 0x8, addend: 0x0, symName: __ZN4core4iter6traits8iterator8Iterator8for_each17h2764f36052ad0c4aE, symObjAddr: 0x6C, symBinAddr: 0x13A30, symSize: 0x1C }
  - { offset: 0x3A35D, size: 0x8, addend: 0x0, symName: '__ZN106_$LT$hashbrown..map..HashMap$LT$K$C$V$C$S$C$A$GT$$u20$as$u20$core..iter..traits..collect..IntoIterator$GT$9into_iter17ha0e5036b3e173399E', symObjAddr: 0x0, symBinAddr: 0x139C4, symSize: 0x6C }
  - { offset: 0x3A3B6, size: 0x8, addend: 0x0, symName: '__ZN92_$LT$hashbrown..map..Iter$LT$K$C$V$GT$$u20$as$u20$core..iter..traits..iterator..Iterator$GT$4next17h83012e99f97e05dbE', symObjAddr: 0x88, symBinAddr: 0x13A4C, symSize: 0xF0 }
  - { offset: 0x3A4D7, size: 0x8, addend: 0x0, symName: '__ZN97_$LT$hashbrown..map..Drain$LT$K$C$V$C$A$GT$$u20$as$u20$core..iter..traits..iterator..Iterator$GT$4fold17h5cb4ddb3b5ebae59E', symObjAddr: 0x178, symBinAddr: 0x13B3C, symSize: 0x38 }
  - { offset: 0x3A54E, size: 0x8, addend: 0x0, symName: __ZN9hashbrown3map11make_hasher17hb5dbc69b41829263E, symObjAddr: 0x1B0, symBinAddr: 0x13B74, symSize: 0x14 }
  - { offset: 0x3A5D3, size: 0x8, addend: 0x0, symName: '__ZN9hashbrown3map11make_hasher28_$u7b$$u7b$closure$u7d$$u7d$17h0b00ac6b06b81fb4E', symObjAddr: 0x1C4, symBinAddr: 0x13B88, symSize: 0x3C }
  - { offset: 0x3A64F, size: 0x8, addend: 0x0, symName: '__ZN9hashbrown3map11make_hasher28_$u7b$$u7b$closure$u7d$$u7d$17h11e8e3ee36c0d0f2E', symObjAddr: 0x200, symBinAddr: 0x13BC4, symSize: 0x30 }
  - { offset: 0x3A6A6, size: 0x8, addend: 0x0, symName: '__ZN9hashbrown3map11make_hasher28_$u7b$$u7b$closure$u7d$$u7d$17hc146be403a4713c8E', symObjAddr: 0x230, symBinAddr: 0x13BF4, symSize: 0x3C }
  - { offset: 0x3A722, size: 0x8, addend: 0x0, symName: '__ZN9hashbrown3map11make_hasher28_$u7b$$u7b$closure$u7d$$u7d$17he570bf2d0c0098d3E', symObjAddr: 0x26C, symBinAddr: 0x13C30, symSize: 0x3C }
  - { offset: 0x3A824, size: 0x8, addend: 0x0, symName: __ZN9hashbrown3map14equivalent_key17h80b5d7d4f13f53ecE, symObjAddr: 0x2A8, symBinAddr: 0x13C6C, symSize: 0x14 }
  - { offset: 0x3A86B, size: 0x8, addend: 0x0, symName: __ZN9hashbrown3map14equivalent_key17haf7d0ef3d45c2edcE, symObjAddr: 0x2BC, symBinAddr: 0x13C80, symSize: 0x14 }
  - { offset: 0x3A8B7, size: 0x8, addend: 0x0, symName: '__ZN9hashbrown3map14equivalent_key28_$u7b$$u7b$closure$u7d$$u7d$17h045e3a837ca381faE', symObjAddr: 0x2D0, symBinAddr: 0x13C94, symSize: 0x3C }
  - { offset: 0x3A90E, size: 0x8, addend: 0x0, symName: '__ZN9hashbrown3map14equivalent_key28_$u7b$$u7b$closure$u7d$$u7d$17h0ed332a3b6263a00E', symObjAddr: 0x30C, symBinAddr: 0x13CD0, symSize: 0x3C }
  - { offset: 0x3A965, size: 0x8, addend: 0x0, symName: '__ZN9hashbrown3map14equivalent_key28_$u7b$$u7b$closure$u7d$$u7d$17h41ee7fa23dc16f25E', symObjAddr: 0x348, symBinAddr: 0x13D0C, symSize: 0x30 }
  - { offset: 0x3A9BC, size: 0x8, addend: 0x0, symName: '__ZN9hashbrown3map14equivalent_key28_$u7b$$u7b$closure$u7d$$u7d$17h61dab916be8c9f17E', symObjAddr: 0x378, symBinAddr: 0x13D3C, symSize: 0x30 }
  - { offset: 0x3AA13, size: 0x8, addend: 0x0, symName: '__ZN9hashbrown3map14equivalent_key28_$u7b$$u7b$closure$u7d$$u7d$17h64e3126207f39b71E', symObjAddr: 0x3A8, symBinAddr: 0x13D6C, symSize: 0x30 }
  - { offset: 0x3AA6A, size: 0x8, addend: 0x0, symName: '__ZN9hashbrown3map14equivalent_key28_$u7b$$u7b$closure$u7d$$u7d$17hfad2813dc9afaae7E', symObjAddr: 0x3D8, symBinAddr: 0x13D9C, symSize: 0x30 }
  - { offset: 0x3AAC1, size: 0x8, addend: 0x0, symName: '__ZN9hashbrown3map14equivalent_key28_$u7b$$u7b$closure$u7d$$u7d$17hfaf5b47ee1307fc8E', symObjAddr: 0x408, symBinAddr: 0x13DCC, symSize: 0x30 }
  - { offset: 0x3B3F7, size: 0x8, addend: 0x0, symName: __ZN9hashbrown3map9make_hash17h806161a8fe45f1cbE, symObjAddr: 0x12B4, symBinAddr: 0x14C78, symSize: 0x14C }
  - { offset: 0x3B569, size: 0x8, addend: 0x0, symName: __ZN9hashbrown3map9make_hash17h949583341c291aaaE, symObjAddr: 0x1400, symBinAddr: 0x14DC4, symSize: 0x14C }
  - { offset: 0x3C788, size: 0x8, addend: 0x0, symName: '__ZN9hashbrown3map20HashMap$LT$K$C$V$GT$13with_capacity17h70915dc97a511396E', symObjAddr: 0x438, symBinAddr: 0x13DFC, symSize: 0x68 }
  - { offset: 0x3C7E7, size: 0x8, addend: 0x0, symName: '__ZN9hashbrown3map24HashMap$LT$K$C$V$C$S$GT$24with_capacity_and_hasher17hdc55bfd3065e12ddE', symObjAddr: 0x4A0, symBinAddr: 0x13E64, symSize: 0x68 }
  - { offset: 0x3C84E, size: 0x8, addend: 0x0, symName: '__ZN9hashbrown3map28HashMap$LT$K$C$V$C$S$C$A$GT$12remove_entry17h468dedacd111e851E', symObjAddr: 0x508, symBinAddr: 0x13ECC, symSize: 0x58 }
  - { offset: 0x3C8E5, size: 0x8, addend: 0x0, symName: '__ZN9hashbrown3map28HashMap$LT$K$C$V$C$S$C$A$GT$13get_inner_mut17h3986abe97ab351d2E', symObjAddr: 0x560, symBinAddr: 0x13F24, symSize: 0x7C }
  - { offset: 0x3C962, size: 0x8, addend: 0x0, symName: '__ZN9hashbrown3map28HashMap$LT$K$C$V$C$S$C$A$GT$13get_inner_mut17h59d3b541832c00eeE', symObjAddr: 0x5DC, symBinAddr: 0x13FA0, symSize: 0x7C }
  - { offset: 0x3C9EC, size: 0x8, addend: 0x0, symName: '__ZN9hashbrown3map28HashMap$LT$K$C$V$C$S$C$A$GT$24find_or_find_insert_slot17h6673d5888da926ebE', symObjAddr: 0x658, symBinAddr: 0x1401C, symSize: 0x64 }
  - { offset: 0x3CE2A, size: 0x8, addend: 0x0, symName: '__ZN9hashbrown3map28HashMap$LT$K$C$V$C$S$C$A$GT$3get17h4913c14edced6626E', symObjAddr: 0x6BC, symBinAddr: 0x14080, symSize: 0x118 }
  - { offset: 0x3D10D, size: 0x8, addend: 0x0, symName: '__ZN9hashbrown3map28HashMap$LT$K$C$V$C$S$C$A$GT$3get17hbf81e30ab629a830E', symObjAddr: 0x7D4, symBinAddr: 0x14198, symSize: 0x118 }
  - { offset: 0x3D2E3, size: 0x8, addend: 0x0, symName: '__ZN9hashbrown3map28HashMap$LT$K$C$V$C$S$C$A$GT$3len17hd8e2a75078185bfdE', symObjAddr: 0x8EC, symBinAddr: 0x142B0, symSize: 0x24 }
  - { offset: 0x3D489, size: 0x8, addend: 0x0, symName: '__ZN9hashbrown3map28HashMap$LT$K$C$V$C$S$C$A$GT$4iter17h4c04efffceb66d54E', symObjAddr: 0x910, symBinAddr: 0x142D4, symSize: 0xA8 }
  - { offset: 0x3D63B, size: 0x8, addend: 0x0, symName: '__ZN9hashbrown3map28HashMap$LT$K$C$V$C$S$C$A$GT$5drain17h854e17d5d1fed96bE', symObjAddr: 0x9B8, symBinAddr: 0x1437C, symSize: 0x44 }
  - { offset: 0x3D7BD, size: 0x8, addend: 0x0, symName: '__ZN9hashbrown3map28HashMap$LT$K$C$V$C$S$C$A$GT$6insert17h410b5145eab3b753E', symObjAddr: 0x9FC, symBinAddr: 0x143C0, symSize: 0x228 }
  - { offset: 0x3DAEB, size: 0x8, addend: 0x0, symName: '__ZN9hashbrown3map28HashMap$LT$K$C$V$C$S$C$A$GT$6insert17h771b7a7e7996a61aE', symObjAddr: 0xC24, symBinAddr: 0x145E8, symSize: 0x200 }
  - { offset: 0x3DF50, size: 0x8, addend: 0x0, symName: '__ZN9hashbrown3map28HashMap$LT$K$C$V$C$S$C$A$GT$6insert17heb36e4575127f287E', symObjAddr: 0xE24, symBinAddr: 0x147E8, symSize: 0x1D0 }
  - { offset: 0x3E141, size: 0x8, addend: 0x0, symName: '__ZN9hashbrown3map28HashMap$LT$K$C$V$C$S$C$A$GT$6insert17hfe456d2d6b485ac8E', symObjAddr: 0xFF4, symBinAddr: 0x149B8, symSize: 0x150 }
  - { offset: 0x3E1F1, size: 0x8, addend: 0x0, symName: '__ZN9hashbrown3map28HashMap$LT$K$C$V$C$S$C$A$GT$6remove17h8a28307ead0525baE', symObjAddr: 0x1144, symBinAddr: 0x14B08, symSize: 0xA0 }
  - { offset: 0x3E27B, size: 0x8, addend: 0x0, symName: '__ZN9hashbrown3map28HashMap$LT$K$C$V$C$S$C$A$GT$7get_mut17h080e3d4b69ed055cE', symObjAddr: 0x11E4, symBinAddr: 0x14BA8, symSize: 0x68 }
  - { offset: 0x3E2F8, size: 0x8, addend: 0x0, symName: '__ZN9hashbrown3map28HashMap$LT$K$C$V$C$S$C$A$GT$7get_mut17hc953f4e84975c1a9E', symObjAddr: 0x124C, symBinAddr: 0x14C10, symSize: 0x68 }
  - { offset: 0x3E404, size: 0x8, addend: 0x0, symName: '__ZN4core4hash5impls50_$LT$impl$u20$core..hash..Hash$u20$for$u20$str$GT$4hash17h8cea69f7b0c66b33E', symObjAddr: 0x0, symBinAddr: 0x14F10, symSize: 0x48 }
  - { offset: 0x3E425, size: 0x8, addend: 0x0, symName: '__ZN4core4hash5impls50_$LT$impl$u20$core..hash..Hash$u20$for$u20$str$GT$4hash17h8cea69f7b0c66b33E', symObjAddr: 0x0, symBinAddr: 0x14F10, symSize: 0x48 }
  - { offset: 0x3E46D, size: 0x8, addend: 0x0, symName: '__ZN4core4hash5impls50_$LT$impl$u20$core..hash..Hash$u20$for$u20$u32$GT$4hash17hf26737c08e332032E', symObjAddr: 0x48, symBinAddr: 0x14F58, symSize: 0x2A8 }
  - { offset: 0x3E5DA, size: 0x8, addend: 0x0, symName: '__ZN4core4hash5impls52_$LT$impl$u20$core..hash..Hash$u20$for$u20$$RF$T$GT$4hash17h96eb20d80e1ce9bcE', symObjAddr: 0x2F0, symBinAddr: 0x15200, symSize: 0x3C }
  - { offset: 0x3E62B, size: 0x8, addend: 0x0, symName: '__ZN4core4hash5impls60_$LT$impl$u20$core..hash..Hash$u20$for$u20$$LP$T$C$B$RP$$GT$4hash17heec14029762186e6E', symObjAddr: 0x32C, symBinAddr: 0x1523C, symSize: 0x4C }
  - { offset: 0x3EA01, size: 0x8, addend: 0x0, symName: __ZN4core9core_arch7aarch644neon9generated7vld1_u817hbffac881ea26e79fE, symObjAddr: 0x0, symBinAddr: 0x15288, symSize: 0x34 }
  - { offset: 0x3EA27, size: 0x8, addend: 0x0, symName: __ZN4core9core_arch7aarch644neon9generated7vld1_u817hbffac881ea26e79fE, symObjAddr: 0x0, symBinAddr: 0x15288, symSize: 0x34 }
  - { offset: 0x3EA55, size: 0x8, addend: 0x0, symName: __ZN4core9core_arch7aarch644neon9generated7vst1_u817he0304bd66c893d01E, symObjAddr: 0x34, symBinAddr: 0x152BC, symSize: 0x40 }
  - { offset: 0x3EA8F, size: 0x8, addend: 0x0, symName: __ZN4core9core_arch7aarch644neon9generated8vcgez_s817h5941ff033ecf5d24E, symObjAddr: 0x74, symBinAddr: 0x152FC, symSize: 0x68 }
  - { offset: 0x3EB31, size: 0x8, addend: 0x0, symName: __ZN4core9core_arch7aarch644neon9generated8vcltz_s817h3145d9332236edabE, symObjAddr: 0xDC, symBinAddr: 0x15364, symSize: 0x68 }
  - { offset: 0x3ED27, size: 0x8, addend: 0x0, symName: '__ZN59_$LT$std..fs..File$u20$as$u20$std..os..fd..raw..AsRawFd$GT$9as_raw_fd17h6a28e9db71eb22b0E', symObjAddr: 0x0, symBinAddr: 0x153CC, symSize: 0x18 }
  - { offset: 0x3ED7E, size: 0x8, addend: 0x0, symName: '__ZN59_$LT$std..fs..File$u20$as$u20$std..os..fd..raw..AsRawFd$GT$9as_raw_fd17h6a28e9db71eb22b0E', symObjAddr: 0x0, symBinAddr: 0x153CC, symSize: 0x18 }
  - { offset: 0x3EED9, size: 0x8, addend: 0x0, symName: '__ZN4core5array4iter94_$LT$impl$u20$core..iter..traits..collect..IntoIterator$u20$for$u20$$u5b$T$u3b$$u20$N$u5d$$GT$9into_iter17h1650310ea2e7b7abE', symObjAddr: 0x0, symBinAddr: 0x153E4, symSize: 0xA4 }
  - { offset: 0x3EF77, size: 0x8, addend: 0x0, symName: '__ZN4core5array4iter94_$LT$impl$u20$core..iter..traits..collect..IntoIterator$u20$for$u20$$u5b$T$u3b$$u20$N$u5d$$GT$9into_iter17h1650310ea2e7b7abE', symObjAddr: 0x0, symBinAddr: 0x153E4, symSize: 0xA4 }
  - { offset: 0x3EFF0, size: 0x8, addend: 0x0, symName: '__ZN99_$LT$core..array..iter..IntoIter$LT$T$C$_$GT$$u20$as$u20$core..iter..traits..iterator..Iterator$GT$4next17h4c053c059beda40aE', symObjAddr: 0xA4, symBinAddr: 0x15488, symSize: 0x2C }
  - { offset: 0x3F025, size: 0x8, addend: 0x0, symName: '__ZN99_$LT$core..array..iter..IntoIter$LT$T$C$_$GT$$u20$as$u20$core..iter..traits..iterator..Iterator$GT$4next17hec3589ba1423e0cbE', symObjAddr: 0xD0, symBinAddr: 0x154B4, symSize: 0x2C }
  - { offset: 0x3F457, size: 0x8, addend: 0x0, symName: __ZN12flash_expert12expert_store10ExpertData9byte_size17hcd95ca1f215500b4E, symObjAddr: 0x0, symBinAddr: 0x154E0, symSize: 0x24 }
  - { offset: 0x4075B, size: 0x8, addend: 0x0, symName: __ZN12flash_expert12expert_store8align_up17h674604068c875ea7E, symObjAddr: 0x296C, symBinAddr: 0x17E4C, symSize: 0x98 }
  - { offset: 0x40AD7, size: 0x8, addend: 0x0, symName: __ZN12flash_expert12expert_store10ExpertData9byte_size17hcd95ca1f215500b4E, symObjAddr: 0x0, symBinAddr: 0x154E0, symSize: 0x24 }
  - { offset: 0x40B35, size: 0x8, addend: 0x0, symName: __ZN12flash_expert12expert_store11ExpertStore10num_layers17hc54524467eab09e0E, symObjAddr: 0x24, symBinAddr: 0x15504, symSize: 0x18 }
  - { offset: 0x40BE1, size: 0x8, addend: 0x0, symName: __ZN12flash_expert12expert_store11ExpertStore11load_expert17h90b3e83e8100c35dE, symObjAddr: 0x3C, symBinAddr: 0x1551C, symSize: 0x2A4 }
  - { offset: 0x40D27, size: 0x8, addend: 0x0, symName: __ZN12flash_expert12expert_store11ExpertStore12load_experts17he5c5f6bad76f4a91E, symObjAddr: 0x2E0, symBinAddr: 0x157C0, symSize: 0x70 }
  - { offset: 0x40D8F, size: 0x8, addend: 0x0, symName: __ZN12flash_expert12expert_store11ExpertStore3new17h4824bacf5029e137E, symObjAddr: 0x350, symBinAddr: 0x15830, symSize: 0xAA8 }
  - { offset: 0x41063, size: 0x8, addend: 0x0, symName: __ZN12flash_expert12expert_store11ExpertStore6header17h689e67cf3f72d310E, symObjAddr: 0xDF8, symBinAddr: 0x162D8, symSize: 0x38 }
  - { offset: 0x4118F, size: 0x8, addend: 0x0, symName: __ZN12flash_expert12expert_store16ExpertFileHeader10from_bytes17hcddf26802a37006dE, symObjAddr: 0xE30, symBinAddr: 0x16310, symSize: 0xDC8 }
  - { offset: 0x418DA, size: 0x8, addend: 0x0, symName: __ZN12flash_expert12expert_store16ExpertFileHeader8to_bytes17h277b59572b679e06E, symObjAddr: 0x1BF8, symBinAddr: 0x170D8, symSize: 0xD74 }
  - { offset: 0x41BE4, size: 0x8, addend: 0x0, symName: __ZN5rayon4iter13from_par_iter16collect_extended17hb7e65aaf6613e676E, symObjAddr: 0x0, symBinAddr: 0x17EE4, symSize: 0xC0 }
  - { offset: 0x41F9D, size: 0x8, addend: 0x0, symName: __ZN5rayon4iter13from_par_iter16collect_extended17hb7e65aaf6613e676E, symObjAddr: 0x0, symBinAddr: 0x17EE4, symSize: 0xC0 }
  - { offset: 0x4284D, size: 0x8, addend: 0x0, symName: __ZN4core5slice4sort6stable9quicksort16stable_partition17h27362accbb552960E, symObjAddr: 0x0, symBinAddr: 0x17FA4, symSize: 0x340 }
  - { offset: 0x43DF2, size: 0x8, addend: 0x0, symName: __ZN4core5slice4sort6stable9quicksort16stable_partition17h27362accbb552960E, symObjAddr: 0x0, symBinAddr: 0x17FA4, symSize: 0x340 }
  - { offset: 0x442CB, size: 0x8, addend: 0x0, symName: __ZN4core5slice4sort6stable9quicksort16stable_partition17h31102da0d071338aE, symObjAddr: 0x340, symBinAddr: 0x182E4, symSize: 0x364 }
  - { offset: 0x447A4, size: 0x8, addend: 0x0, symName: __ZN4core5slice4sort6stable9quicksort16stable_partition17h509ca33c7d94b012E, symObjAddr: 0x6A4, symBinAddr: 0x18648, symSize: 0x35C }
  - { offset: 0x44BF0, size: 0x8, addend: 0x0, symName: __ZN4core5slice4sort6stable9quicksort16stable_partition17h93d51f7c8806c133E, symObjAddr: 0xA00, symBinAddr: 0x189A4, symSize: 0x340 }
  - { offset: 0x4503C, size: 0x8, addend: 0x0, symName: __ZN4core5slice4sort6stable9quicksort16stable_partition17hb9cc618faec9769eE, symObjAddr: 0xD40, symBinAddr: 0x18CE4, symSize: 0x35C }
  - { offset: 0x45488, size: 0x8, addend: 0x0, symName: __ZN4core5slice4sort6stable9quicksort16stable_partition17hbfc8a250e31cc441E, symObjAddr: 0x109C, symBinAddr: 0x19040, symSize: 0x364 }
  - { offset: 0x458D4, size: 0x8, addend: 0x0, symName: __ZN4core5slice4sort6stable9quicksort9quicksort17h452f8ca0e7f86e54E, symObjAddr: 0x17AC, symBinAddr: 0x19750, symSize: 0x380 }
  - { offset: 0x45BAE, size: 0x8, addend: 0x0, symName: __ZN4core5slice4sort6stable9quicksort9quicksort17hc780adf07bb6d6dbE, symObjAddr: 0x1B2C, symBinAddr: 0x19AD0, symSize: 0x37C }
  - { offset: 0x45E88, size: 0x8, addend: 0x0, symName: __ZN4core5slice4sort6stable9quicksort9quicksort17hcd14ae2e003c660cE, symObjAddr: 0x1EA8, symBinAddr: 0x19E4C, symSize: 0x364 }
  - { offset: 0x4614D, size: 0x8, addend: 0x0, symName: '__ZN4core5slice4sort6stable9quicksort9quicksort28_$u7b$$u7b$closure$u7d$$u7d$17h4e89ed1873d14f53E', symObjAddr: 0x220C, symBinAddr: 0x1A1B0, symSize: 0x48 }
  - { offset: 0x461AA, size: 0x8, addend: 0x0, symName: '__ZN4core5slice4sort6stable9quicksort9quicksort28_$u7b$$u7b$closure$u7d$$u7d$17hacd18d4afb846151E', symObjAddr: 0x2254, symBinAddr: 0x1A1F8, symSize: 0x48 }
  - { offset: 0x46207, size: 0x8, addend: 0x0, symName: '__ZN4core5slice4sort6stable9quicksort9quicksort28_$u7b$$u7b$closure$u7d$$u7d$17hb5c7e5bf9295238dE', symObjAddr: 0x229C, symBinAddr: 0x1A240, symSize: 0x48 }
  - { offset: 0x46F3C, size: 0x8, addend: 0x0, symName: '__ZN4core5slice4sort6stable9quicksort23PartitionState$LT$T$GT$13partition_one17h109554f259c05811E', symObjAddr: 0x1400, symBinAddr: 0x193A4, symSize: 0x13C }
  - { offset: 0x47032, size: 0x8, addend: 0x0, symName: '__ZN4core5slice4sort6stable9quicksort23PartitionState$LT$T$GT$13partition_one17hc50cba5aeff6606bE', symObjAddr: 0x153C, symBinAddr: 0x194E0, symSize: 0x13C }
  - { offset: 0x47128, size: 0x8, addend: 0x0, symName: '__ZN4core5slice4sort6stable9quicksort23PartitionState$LT$T$GT$13partition_one17hef41d0c6919a2c82E', symObjAddr: 0x1678, symBinAddr: 0x1961C, symSize: 0x134 }
  - { offset: 0x47466, size: 0x8, addend: 0x0, symName: '__ZN4core3num7nonzero16NonZero$LT$T$GT$13new_unchecked18precondition_check17heb3a3370aa8e7d3aE', symObjAddr: 0x0, symBinAddr: 0x1A288, symSize: 0x3C }
  - { offset: 0x4748C, size: 0x8, addend: 0x0, symName: '__ZN4core3num7nonzero16NonZero$LT$T$GT$13new_unchecked18precondition_check17heb3a3370aa8e7d3aE', symObjAddr: 0x0, symBinAddr: 0x1A288, symSize: 0x3C }
  - { offset: 0x47525, size: 0x8, addend: 0x0, symName: '__ZN4core3num7nonzero18NonZero$LT$u64$GT$14trailing_zeros17h9b8c1b69c7bc5a2dE', symObjAddr: 0x3C, symBinAddr: 0x1A2C4, symSize: 0x20 }
  - { offset: 0x4759B, size: 0x8, addend: 0x0, symName: '__ZN3std3ffi6os_str103_$LT$impl$u20$core..convert..AsRef$LT$std..ffi..os_str..OsStr$GT$$u20$for$u20$alloc..string..String$GT$6as_ref17h241fade1b71fbb66E', symObjAddr: 0x0, symBinAddr: 0x1A2E4, symSize: 0x20 }
  - { offset: 0x47F06, size: 0x8, addend: 0x0, symName: '__ZN65_$LT$alloc..string..String$u20$as$u20$core..ops..deref..Deref$GT$5deref17h964a17b768c7d673E', symObjAddr: 0x3C8, symBinAddr: 0x1A6AC, symSize: 0x20 }
  - { offset: 0x47FE3, size: 0x8, addend: 0x0, symName: '__ZN76_$LT$alloc..string..String$u20$as$u20$core..convert..From$LT$$RF$str$GT$$GT$4from17h011b88eaa3de74dbE', symObjAddr: 0x3E8, symBinAddr: 0x1A6CC, symSize: 0x50 }
  - { offset: 0x480D0, size: 0x8, addend: 0x0, symName: '__ZN51_$LT$str$u20$as$u20$alloc..string..SpecToString$GT$14spec_to_string17h4e90c59d3c0e6135E', symObjAddr: 0x44, symBinAddr: 0x1A328, symSize: 0x50 }
  - { offset: 0x481F9, size: 0x8, addend: 0x0, symName: '__ZN56_$LT$alloc..string..String$u20$as$u20$core..cmp..Ord$GT$3cmp17he4e3e21fadf30445E', symObjAddr: 0x94, symBinAddr: 0x1A378, symSize: 0x2C }
  - { offset: 0x4823C, size: 0x8, addend: 0x0, symName: '__ZN58_$LT$alloc..string..String$u20$as$u20$core..fmt..Write$GT$10write_char17hba75cd8f97b266f0E', symObjAddr: 0xC0, symBinAddr: 0x1A3A4, symSize: 0x30 }
  - { offset: 0x48279, size: 0x8, addend: 0x0, symName: '__ZN58_$LT$alloc..string..String$u20$as$u20$core..fmt..Write$GT$9write_str17h48cae291cdf72ecdE', symObjAddr: 0xF0, symBinAddr: 0x1A3D4, symSize: 0x38 }
  - { offset: 0x482E9, size: 0x8, addend: 0x0, symName: '__ZN62_$LT$alloc..string..String$u20$as$u20$core..cmp..PartialEq$GT$2eq17had153fbc461850e6E', symObjAddr: 0x370, symBinAddr: 0x1A654, symSize: 0x2C }
  - { offset: 0x4832C, size: 0x8, addend: 0x0, symName: '__ZN63_$LT$alloc..string..String$u20$as$u20$core..cmp..PartialOrd$GT$11partial_cmp17hdbb17620aa175f83E', symObjAddr: 0x39C, symBinAddr: 0x1A680, symSize: 0x2C }
  - { offset: 0x4836F, size: 0x8, addend: 0x0, symName: '__ZN82_$LT$alloc..string..String$u20$as$u20$core..convert..AsRef$LT$$u5b$u8$u5d$$GT$$GT$6as_ref17hf62444ef76ed8671E', symObjAddr: 0x438, symBinAddr: 0x1A71C, symSize: 0x20 }
  - { offset: 0x48472, size: 0x8, addend: 0x0, symName: '__ZN5alloc3str83_$LT$impl$u20$core..borrow..Borrow$LT$str$GT$$u20$for$u20$alloc..string..String$GT$6borrow17h633d9d380d889d4dE', symObjAddr: 0x128, symBinAddr: 0x1A40C, symSize: 0x20 }
  - { offset: 0x487B6, size: 0x8, addend: 0x0, symName: '__ZN3std3ffi6os_str103_$LT$impl$u20$core..convert..AsRef$LT$std..ffi..os_str..OsStr$GT$$u20$for$u20$alloc..string..String$GT$6as_ref17h241fade1b71fbb66E', symObjAddr: 0x0, symBinAddr: 0x1A2E4, symSize: 0x20 }
  - { offset: 0x488E3, size: 0x8, addend: 0x0, symName: '__ZN3std4path95_$LT$impl$u20$core..convert..AsRef$LT$std..path..Path$GT$$u20$for$u20$alloc..string..String$GT$6as_ref17h63ba1139b2ee550eE', symObjAddr: 0x20, symBinAddr: 0x1A304, symSize: 0x24 }
  - { offset: 0x48A3F, size: 0x8, addend: 0x0, symName: __ZN5alloc6string6String19from_utf8_unchecked17hcc6ed13aca5c46aaE, symObjAddr: 0x148, symBinAddr: 0x1A42C, symSize: 0x18 }
  - { offset: 0x48BF9, size: 0x8, addend: 0x0, symName: __ZN5alloc6string6String4push17h8a0a87e32dc39c82E, symObjAddr: 0x160, symBinAddr: 0x1A444, symSize: 0x114 }
  - { offset: 0x48E92, size: 0x8, addend: 0x0, symName: __ZN5alloc6string6String8as_bytes17h5014d789dd979944E, symObjAddr: 0x274, symBinAddr: 0x1A558, symSize: 0x20 }
  - { offset: 0x490A8, size: 0x8, addend: 0x0, symName: __ZN5alloc6string6String8push_str17h586555d971e5fe5cE, symObjAddr: 0x294, symBinAddr: 0x1A578, symSize: 0xDC }
  - { offset: 0x49555, size: 0x8, addend: 0x0, symName: '__ZN71_$LT$std..hash..random..DefaultHasher$u20$as$u20$core..hash..Hasher$GT$6finish17h8d1dc39ded5dee2bE', symObjAddr: 0x0, symBinAddr: 0x1A73C, symSize: 0x20 }
  - { offset: 0x496F9, size: 0x8, addend: 0x0, symName: '__ZN71_$LT$std..hash..random..DefaultHasher$u20$as$u20$core..hash..Hasher$GT$6finish17h8d1dc39ded5dee2bE', symObjAddr: 0x0, symBinAddr: 0x1A73C, symSize: 0x20 }
  - { offset: 0x49741, size: 0x8, addend: 0x0, symName: '__ZN71_$LT$std..hash..random..DefaultHasher$u20$as$u20$core..hash..Hasher$GT$9write_str17h8c5066540263088eE', symObjAddr: 0x20, symBinAddr: 0x1A75C, symSize: 0x2C }
  - { offset: 0x497A1, size: 0x8, addend: 0x0, symName: '__ZN74_$LT$std..hash..random..RandomState$u20$as$u20$core..hash..BuildHasher$GT$12build_hasher17ha5fadf6bc12a4b72E', symObjAddr: 0x4C, symBinAddr: 0x1A788, symSize: 0xCC }
  - { offset: 0x4993D, size: 0x8, addend: 0x0, symName: __ZN7memmap211MmapOptions3map17hb8f388e8f64ce99cE, symObjAddr: 0x0, symBinAddr: 0x1A854, symSize: 0x10C }
  - { offset: 0x4A016, size: 0x8, addend: 0x0, symName: '__ZN7memmap211MmapOptions3map28_$u7b$$u7b$closure$u7d$$u7d$17hf73b98c3ff629f59E', symObjAddr: 0x10C, symBinAddr: 0x1A960, symSize: 0x18 }
  - { offset: 0x4A15E, size: 0x8, addend: 0x0, symName: __ZN7memmap211MmapOptions3map17hb8f388e8f64ce99cE, symObjAddr: 0x0, symBinAddr: 0x1A854, symSize: 0x10C }
  - { offset: 0x4A1E3, size: 0x8, addend: 0x0, symName: __ZN7memmap211MmapOptions7get_len17h665d5d429563f4d7E, symObjAddr: 0x124, symBinAddr: 0x1A978, symSize: 0x130 }
  - { offset: 0x4A2A4, size: 0x8, addend: 0x0, symName: __ZN7memmap24Mmap3map17hd48724fde7b0b8eaE, symObjAddr: 0x254, symBinAddr: 0x1AAA8, symSize: 0x7C }
  - { offset: 0x4A2EE, size: 0x8, addend: 0x0, symName: __ZN3std2fs10DirBuilder6create17h2c9591df8361ea19E, symObjAddr: 0x0, symBinAddr: 0x1AB24, symSize: 0x74 }
  - { offset: 0x4A67B, size: 0x8, addend: 0x0, symName: __ZN3std2io5Write9write_all17hb770e7c3a3b5ab28E, symObjAddr: 0x794, symBinAddr: 0x1B2B8, symSize: 0x27C }
  - { offset: 0x4AA09, size: 0x8, addend: 0x0, symName: __ZN3std2fs14create_dir_all17h59670ab5dfc81362E, symObjAddr: 0xE8, symBinAddr: 0x1AC0C, symSize: 0x84 }
  - { offset: 0x4AA6B, size: 0x8, addend: 0x0, symName: __ZN3std2fs14create_dir_all17hae8fad9e3c69ca25E, symObjAddr: 0x16C, symBinAddr: 0x1AC90, symSize: 0x80 }
  - { offset: 0x4AACD, size: 0x8, addend: 0x0, symName: __ZN3std2fs14read_to_string17h08fdbb12847faef4E, symObjAddr: 0x1EC, symBinAddr: 0x1AD10, symSize: 0x64 }
  - { offset: 0x4AB04, size: 0x8, addend: 0x0, symName: __ZN3std2fs4copy17h40ab2ccd4b963cbbE, symObjAddr: 0x46C, symBinAddr: 0x1AF90, symSize: 0xB8 }
  - { offset: 0x4AB54, size: 0x8, addend: 0x0, symName: __ZN3std2fs5write17h97cab8b06680120fE, symObjAddr: 0x524, symBinAddr: 0x1B048, symSize: 0xBC }
  - { offset: 0x4ABD0, size: 0x8, addend: 0x0, symName: __ZN3std2fs8metadata17h483f8f9d5d6d6a4cE, symObjAddr: 0x5E0, symBinAddr: 0x1B104, symSize: 0xEC }
  - { offset: 0x4ACA2, size: 0x8, addend: 0x0, symName: __ZN3std2fs8read_dir17habd67264cf8dfce0E, symObjAddr: 0x6CC, symBinAddr: 0x1B1F0, symSize: 0xC8 }
  - { offset: 0x4B71D, size: 0x8, addend: 0x0, symName: '__ZN63_$LT$I$u20$as$u20$core..iter..traits..collect..IntoIterator$GT$9into_iter17hbef66e4a207904bfE', symObjAddr: 0xA38, symBinAddr: 0x1B55C, symSize: 0x18 }
  - { offset: 0x4B818, size: 0x8, addend: 0x0, symName: __ZN3std2fs10DirBuilder6create17h2c9591df8361ea19E, symObjAddr: 0x0, symBinAddr: 0x1AB24, symSize: 0x74 }
  - { offset: 0x4B867, size: 0x8, addend: 0x0, symName: __ZN3std2fs11OpenOptions4open17h46fd7d0c8a0f21abE, symObjAddr: 0x74, symBinAddr: 0x1AB98, symSize: 0x74 }
  - { offset: 0x4BAB3, size: 0x8, addend: 0x0, symName: __ZN3std2fs4File4open17hebcb84336c52b993E, symObjAddr: 0x250, symBinAddr: 0x1AD74, symSize: 0xA8 }
  - { offset: 0x4BBB3, size: 0x8, addend: 0x0, symName: __ZN3std2fs4File6create17h3850efe6c0e73d4dE, symObjAddr: 0x2F8, symBinAddr: 0x1AE1C, symSize: 0xBC }
  - { offset: 0x4BD09, size: 0x8, addend: 0x0, symName: __ZN3std2fs4File6create17ha740a67b384f42f2E, symObjAddr: 0x3B4, symBinAddr: 0x1AED8, symSize: 0xB8 }
  - { offset: 0x4C124, size: 0x8, addend: 0x0, symName: '__ZN48_$LT$$RF$T$u20$as$u20$memmap2..MmapAsRawDesc$GT$11as_raw_desc17h2a896d5cb6b30c41E', symObjAddr: 0xA10, symBinAddr: 0x1B534, symSize: 0x28 }
  - { offset: 0x4C1B5, size: 0x8, addend: 0x0, symName: __ZN9hashbrown3raw11Fallibility17capacity_overflow17hd9cd54b1b59e9473E, symObjAddr: 0x0, symBinAddr: 0x1B574, symSize: 0x58 }
  - { offset: 0x4C7F1, size: 0x8, addend: 0x0, symName: __ZN9hashbrown3raw19capacity_to_buckets17h4e267ef8ff7e4473E, symObjAddr: 0x21B8, symBinAddr: 0x1D72C, symSize: 0x1A0 }
  - { offset: 0x4C8D1, size: 0x8, addend: 0x0, symName: __ZN9hashbrown3raw23bucket_mask_to_capacity17hbb5748b32334e5a5E, symObjAddr: 0x2358, symBinAddr: 0x1D8CC, symSize: 0xA0 }
  - { offset: 0x4C8FD, size: 0x8, addend: 0x0, symName: __ZN9hashbrown3raw2h117h0c87800d35b5ec67E, symObjAddr: 0x23F8, symBinAddr: 0x1D96C, symSize: 0x10 }
  - { offset: 0x4DFEB, size: 0x8, addend: 0x0, symName: __ZN9hashbrown3raw11Fallibility17capacity_overflow17hd9cd54b1b59e9473E, symObjAddr: 0x0, symBinAddr: 0x1B574, symSize: 0x58 }
  - { offset: 0x4E00D, size: 0x8, addend: 0x0, symName: __ZN9hashbrown3raw11Fallibility9alloc_err17h1180eacec9fa7880E, symObjAddr: 0x58, symBinAddr: 0x1B5CC, symSize: 0x54 }
  - { offset: 0x4E080, size: 0x8, addend: 0x0, symName: __ZN9hashbrown3raw11TableLayout20calculate_layout_for17h60a7c3b54306765fE, symObjAddr: 0xAC, symBinAddr: 0x1B620, symSize: 0x220 }
  - { offset: 0x4E34F, size: 0x8, addend: 0x0, symName: __ZN9hashbrown3raw11TableLayout20calculate_layout_for17h852987c464bee9ccE, symObjAddr: 0x2CC, symBinAddr: 0x1B840, symSize: 0x264 }
  - { offset: 0x4E48D, size: 0x8, addend: 0x0, symName: __ZN9hashbrown3raw13RawTableInner10bucket_ptr17h5fb97d23a2d0aaf6E, symObjAddr: 0x530, symBinAddr: 0x1BAA4, symSize: 0x140 }
  - { offset: 0x4E55D, size: 0x8, addend: 0x0, symName: __ZN9hashbrown3raw13RawTableInner13clear_no_drop17ha2dda57bbe729b6cE, symObjAddr: 0x670, symBinAddr: 0x1BBE4, symSize: 0x58 }
  - { offset: 0x4E580, size: 0x8, addend: 0x0, symName: __ZN9hashbrown3raw13RawTableInner13set_ctrl_hash17h32fd14c4620d8213E, symObjAddr: 0x6C8, symBinAddr: 0x1BC3C, symSize: 0x48 }
  - { offset: 0x4E5C1, size: 0x8, addend: 0x0, symName: __ZN9hashbrown3raw13RawTableInner14is_bucket_full17h3830dd6472164345E, symObjAddr: 0x710, symBinAddr: 0x1BC84, symSize: 0x70 }
  - { offset: 0x4E5F3, size: 0x8, addend: 0x0, symName: __ZN9hashbrown3raw13RawTableInner14num_ctrl_bytes17h179a97000613e9f9E, symObjAddr: 0x780, symBinAddr: 0x1BCF4, symSize: 0x6C }
  - { offset: 0x4E634, size: 0x8, addend: 0x0, symName: __ZN9hashbrown3raw13RawTableInner15allocation_info17h142d18ade7d91741E, symObjAddr: 0x7EC, symBinAddr: 0x1BD60, symSize: 0x114 }
  - { offset: 0x4E6BC, size: 0x8, addend: 0x0, symName: __ZN9hashbrown3raw13RawTableInner15fix_insert_slot17h9b0528a55461b994E, symObjAddr: 0x900, symBinAddr: 0x1BE74, symSize: 0xCC }
  - { offset: 0x4E969, size: 0x8, addend: 0x0, symName: __ZN9hashbrown3raw13RawTableInner15rehash_in_place17h8d364a197246b22cE, symObjAddr: 0x9CC, symBinAddr: 0x1BF40, symSize: 0x41C }
  - { offset: 0x4F147, size: 0x8, addend: 0x0, symName: __ZN9hashbrown3raw13RawTableInner16find_insert_slot17he28f556326b0bb79E, symObjAddr: 0xDE8, symBinAddr: 0x1C35C, symSize: 0xDC }
  - { offset: 0x4F36D, size: 0x8, addend: 0x0, symName: __ZN9hashbrown3raw13RawTableInner16fix_insert_index17h0288f2c9732aa18bE, symObjAddr: 0xEC4, symBinAddr: 0x1C438, symSize: 0x100 }
  - { offset: 0x4F511, size: 0x8, addend: 0x0, symName: __ZN9hashbrown3raw13RawTableInner16is_in_same_group17hd4fe8cf0ca39b5a3E, symObjAddr: 0xFC4, symBinAddr: 0x1C538, symSize: 0x8C }
  - { offset: 0x4F66B, size: 0x8, addend: 0x0, symName: __ZN9hashbrown3raw13RawTableInner17find_insert_index17h53941e4215391978E, symObjAddr: 0x1050, symBinAddr: 0x1C5C4, symSize: 0xFC }
  - { offset: 0x4F7D0, size: 0x8, addend: 0x0, symName: __ZN9hashbrown3raw13RawTableInner17replace_ctrl_hash17hb579dfe2318e03efE, symObjAddr: 0x114C, symBinAddr: 0x1C6C0, symSize: 0x5C }
  - { offset: 0x4F82F, size: 0x8, addend: 0x0, symName: __ZN9hashbrown3raw13RawTableInner18is_empty_singleton17ha4ff12c5423c16eaE, symObjAddr: 0x11A8, symBinAddr: 0x1C71C, symSize: 0x20 }
  - { offset: 0x4F870, size: 0x8, addend: 0x0, symName: __ZN9hashbrown3raw13RawTableInner19prepare_insert_slot17h741dde4fd85e164fE, symObjAddr: 0x11C8, symBinAddr: 0x1C73C, symSize: 0x6C }
  - { offset: 0x4F8DE, size: 0x8, addend: 0x0, symName: __ZN9hashbrown3raw13RawTableInner21record_item_insert_at17h01e524aee04afaf1E, symObjAddr: 0x1234, symBinAddr: 0x1C7A8, symSize: 0xC4 }
  - { offset: 0x4F966, size: 0x8, addend: 0x0, symName: __ZN9hashbrown3raw13RawTableInner23prepare_rehash_in_place17h02e8c979e796cf24E, symObjAddr: 0x12F8, symBinAddr: 0x1C86C, symSize: 0x250 }
  - { offset: 0x4FC7A, size: 0x8, addend: 0x0, symName: __ZN9hashbrown3raw13RawTableInner23prepare_rehash_in_place17h3a65178e63fd80cdE, symObjAddr: 0x1548, symBinAddr: 0x1CABC, symSize: 0x204 }
  - { offset: 0x501E5, size: 0x8, addend: 0x0, symName: __ZN9hashbrown3raw13RawTableInner25find_insert_slot_in_group17hda90ebb4575e1f6dE, symObjAddr: 0x174C, symBinAddr: 0x1CCC0, symSize: 0x114 }
  - { offset: 0x50349, size: 0x8, addend: 0x0, symName: __ZN9hashbrown3raw13RawTableInner26find_insert_index_in_group17h02b24a090f0a818aE, symObjAddr: 0x1860, symBinAddr: 0x1CDD4, symSize: 0x120 }
  - { offset: 0x5049B, size: 0x8, addend: 0x0, symName: __ZN9hashbrown3raw13RawTableInner30find_or_find_insert_slot_inner17h012626c3414c844fE, symObjAddr: 0x1980, symBinAddr: 0x1CEF4, symSize: 0x244 }
  - { offset: 0x50759, size: 0x8, addend: 0x0, symName: __ZN9hashbrown3raw13RawTableInner31find_or_find_insert_index_inner17h9490af0dfefba01dE, symObjAddr: 0x1BC4, symBinAddr: 0x1D138, symSize: 0x2A0 }
  - { offset: 0x50AE7, size: 0x8, addend: 0x0, symName: __ZN9hashbrown3raw13RawTableInner4ctrl17h57271f838988db42E, symObjAddr: 0x1E64, symBinAddr: 0x1D3D8, symSize: 0x7C }
  - { offset: 0x50B3F, size: 0x8, addend: 0x0, symName: __ZN9hashbrown3raw13RawTableInner5erase17hfcc7b8f439cdea6dE, symObjAddr: 0x1EE0, symBinAddr: 0x1D454, symSize: 0x1B0 }
  - { offset: 0x50BF3, size: 0x8, addend: 0x0, symName: __ZN9hashbrown3raw13RawTableInner7buckets17he4867867b50f9a4eE, symObjAddr: 0x2090, symBinAddr: 0x1D604, symSize: 0x48 }
  - { offset: 0x50C16, size: 0x8, addend: 0x0, symName: __ZN9hashbrown3raw13RawTableInner8set_ctrl17hc551f14c51c8b85dE, symObjAddr: 0x20D8, symBinAddr: 0x1D64C, symSize: 0xA0 }
  - { offset: 0x50C9B, size: 0x8, addend: 0x0, symName: __ZN9hashbrown3raw13RawTableInner9probe_seq17he842d38cc19a9ecaE, symObjAddr: 0x2178, symBinAddr: 0x1D6EC, symSize: 0x40 }
  - { offset: 0x50CDA, size: 0x8, addend: 0x0, symName: __ZN9hashbrown3raw8ProbeSeq9move_next17h38352732cbf78906E, symObjAddr: 0x2408, symBinAddr: 0x1D97C, symSize: 0xD4 }
  - { offset: 0x50D28, size: 0x8, addend: 0x0, symName: '__ZN4core3str21_$LT$impl$u20$str$GT$12strip_prefix17h289cdd2e95819e9fE', symObjAddr: 0x0, symBinAddr: 0x1DA50, symSize: 0x4C }
  - { offset: 0x50D8F, size: 0x8, addend: 0x0, symName: '__ZN4core3str21_$LT$impl$u20$str$GT$12strip_prefix17h289cdd2e95819e9fE', symObjAddr: 0x0, symBinAddr: 0x1DA50, symSize: 0x4C }
  - { offset: 0x50DD5, size: 0x8, addend: 0x0, symName: '__ZN4core3str21_$LT$impl$u20$str$GT$12strip_suffix17h889767ac26c227f6E', symObjAddr: 0x4C, symBinAddr: 0x1DA9C, symSize: 0x4C }
  - { offset: 0x50E28, size: 0x8, addend: 0x0, symName: '__ZN4core3str21_$LT$impl$u20$str$GT$4find17hb61c79f3cc10b976E', symObjAddr: 0x98, symBinAddr: 0x1DAE8, symSize: 0xC8 }
  - { offset: 0x50EB4, size: 0x8, addend: 0x0, symName: '__ZN4core3str21_$LT$impl$u20$str$GT$5parse17hc0ab675fca7dcf01E', symObjAddr: 0x160, symBinAddr: 0x1DBB0, symSize: 0x38 }
  - { offset: 0x50EEB, size: 0x8, addend: 0x0, symName: '__ZN4core3str21_$LT$impl$u20$str$GT$8contains17hfc92292c1c639b33E', symObjAddr: 0x198, symBinAddr: 0x1DBE8, symSize: 0x4C }
  - { offset: 0x511F2, size: 0x8, addend: 0x0, symName: '__ZN115_$LT$core..iter..adapters..filter_map..FilterMap$LT$I$C$F$GT$$u20$as$u20$core..iter..traits..iterator..Iterator$GT$4next17hac83d53fe9b418b0E', symObjAddr: 0x0, symBinAddr: 0x1DC34, symSize: 0x2C }
  - { offset: 0x51218, size: 0x8, addend: 0x0, symName: '__ZN115_$LT$core..iter..adapters..filter_map..FilterMap$LT$I$C$F$GT$$u20$as$u20$core..iter..traits..iterator..Iterator$GT$4next17hac83d53fe9b418b0E', symObjAddr: 0x0, symBinAddr: 0x1DC34, symSize: 0x2C }
  - { offset: 0x5125F, size: 0x8, addend: 0x0, symName: '__ZN115_$LT$core..iter..adapters..filter_map..FilterMap$LT$I$C$F$GT$$u20$as$u20$core..iter..traits..iterator..Iterator$GT$9size_hint17h68143789e48c6b1cE', symObjAddr: 0x2C, symBinAddr: 0x1DC60, symSize: 0x4C }
  - { offset: 0x51308, size: 0x8, addend: 0x0, symName: __ZN4core4iter6traits8iterator8Iterator7collect17ha493bf1ca4d7a077E, symObjAddr: 0x78, symBinAddr: 0x1DCAC, symSize: 0x14 }
  - { offset: 0x51355, size: 0x8, addend: 0x0, symName: '__ZN63_$LT$I$u20$as$u20$core..iter..traits..collect..IntoIterator$GT$9into_iter17hbe581ac5a34a74eaE', symObjAddr: 0x8C, symBinAddr: 0x1DCC0, symSize: 0x30 }
  - { offset: 0x52158, size: 0x8, addend: 0x0, symName: __ZN10rayon_core5latch9CoreLatch3new17h5eb062cdd3264bb7E, symObjAddr: 0x0, symBinAddr: 0x1DCF0, symSize: 0x38 }
  - { offset: 0x52D19, size: 0x8, addend: 0x0, symName: '__ZN73_$LT$rayon_core..latch..LockLatch$u20$as$u20$rayon_core..latch..Latch$GT$3set17h4ed092f020066b4fE', symObjAddr: 0x1CC, symBinAddr: 0x1DEBC, symSize: 0x1BC }
  - { offset: 0x52D98, size: 0x8, addend: 0x0, symName: '__ZN73_$LT$rayon_core..latch..SpinLatch$u20$as$u20$rayon_core..latch..Latch$GT$3set17h6ffc6c3b2a68f38bE', symObjAddr: 0x388, symBinAddr: 0x1E078, symSize: 0x298 }
  - { offset: 0x52FAF, size: 0x8, addend: 0x0, symName: __ZN10rayon_core5latch9CoreLatch3new17h5eb062cdd3264bb7E, symObjAddr: 0x0, symBinAddr: 0x1DCF0, symSize: 0x38 }
  - { offset: 0x52FCF, size: 0x8, addend: 0x0, symName: __ZN10rayon_core5latch9CoreLatch3set17h49cffd22b366828bE, symObjAddr: 0x38, symBinAddr: 0x1DD28, symSize: 0x84 }
  - { offset: 0x5301B, size: 0x8, addend: 0x0, symName: __ZN10rayon_core5latch9CoreLatch5probe17h0f36000b9d734d6bE, symObjAddr: 0xBC, symBinAddr: 0x1DDAC, symSize: 0x30 }
  - { offset: 0x534AF, size: 0x8, addend: 0x0, symName: __ZN10rayon_core5latch9SpinLatch3new17ha1ce5fa12c1a46e3E, symObjAddr: 0xEC, symBinAddr: 0x1DDDC, symSize: 0x6C }
  - { offset: 0x534D1, size: 0x8, addend: 0x0, symName: __ZN10rayon_core5latch9SpinLatch5cross17hef0af59ae45c97caE, symObjAddr: 0x158, symBinAddr: 0x1DE48, symSize: 0x50 }
  - { offset: 0x53500, size: 0x8, addend: 0x0, symName: __ZN10rayon_core5latch9SpinLatch5probe17h13e4b029e795ed7bE, symObjAddr: 0x1A8, symBinAddr: 0x1DE98, symSize: 0x24 }
  - { offset: 0x53603, size: 0x8, addend: 0x0, symName: __ZN7memmap22os9MmapInner3len17h84fbe6b1e391eceaE, symObjAddr: 0x0, symBinAddr: 0x1E310, symSize: 0x18 }
  - { offset: 0x536B5, size: 0x8, addend: 0x0, symName: __ZN7memmap22os9MmapInner3len17h84fbe6b1e391eceaE, symObjAddr: 0x0, symBinAddr: 0x1E310, symSize: 0x18 }
  - { offset: 0x536E5, size: 0x8, addend: 0x0, symName: __ZN7memmap22os9MmapInner3ptr17haaeda3cc86e7e551E, symObjAddr: 0x18, symBinAddr: 0x1E328, symSize: 0x18 }
  - { offset: 0x53726, size: 0x8, addend: 0x0, symName: __ZN10rayon_core4join12join_context17h4931c9e898abdd0dE, symObjAddr: 0x0, symBinAddr: 0x1E340, symSize: 0x58 }
  - { offset: 0x53D74, size: 0x8, addend: 0x0, symName: __ZN10rayon_core4join12join_context17h4931c9e898abdd0dE, symObjAddr: 0x0, symBinAddr: 0x1E340, symSize: 0x58 }
  - { offset: 0x53DD4, size: 0x8, addend: 0x0, symName: __ZN10rayon_core4join12join_context17h65c0c17087a03813E, symObjAddr: 0x58, symBinAddr: 0x1E398, symSize: 0x58 }
  - { offset: 0x53E39, size: 0x8, addend: 0x0, symName: '__ZN10rayon_core4join12join_context28_$u7b$$u7b$closure$u7d$$u7d$17h0baad6c0d66029bfE', symObjAddr: 0xB0, symBinAddr: 0x1E3F0, symSize: 0x4B8 }
  - { offset: 0x53F94, size: 0x8, addend: 0x0, symName: '__ZN10rayon_core4join12join_context28_$u7b$$u7b$closure$u7d$$u7d$17hd9fb39790da308d1E', symObjAddr: 0x568, symBinAddr: 0x1E8A8, symSize: 0x4B8 }
  - { offset: 0x540EF, size: 0x8, addend: 0x0, symName: __ZN10rayon_core4join12join_context6call_a17hb50627dd1e42f8bdE, symObjAddr: 0xA20, symBinAddr: 0x1ED60, symSize: 0x50 }
  - { offset: 0x5413C, size: 0x8, addend: 0x0, symName: __ZN10rayon_core4join12join_context6call_a17hb906c4ba35f98b18E, symObjAddr: 0xA70, symBinAddr: 0x1EDB0, symSize: 0x50 }
  - { offset: 0x5418E, size: 0x8, addend: 0x0, symName: '__ZN10rayon_core4join12join_context6call_a28_$u7b$$u7b$closure$u7d$$u7d$17h925439a166a4e04cE', symObjAddr: 0xAC0, symBinAddr: 0x1EE00, symSize: 0x9C }
  - { offset: 0x541DE, size: 0x8, addend: 0x0, symName: '__ZN10rayon_core4join12join_context6call_a28_$u7b$$u7b$closure$u7d$$u7d$17haff76dbf08667b12E', symObjAddr: 0xB5C, symBinAddr: 0x1EE9C, symSize: 0x9C }
  - { offset: 0x5426B, size: 0x8, addend: 0x0, symName: __ZN10rayon_core4join12join_context6call_b17h59166710caf81302E, symObjAddr: 0xBF8, symBinAddr: 0x1EF38, symSize: 0x30 }
  - { offset: 0x542AA, size: 0x8, addend: 0x0, symName: __ZN10rayon_core4join12join_context6call_b17hb34a903b07cf0a78E, symObjAddr: 0xC28, symBinAddr: 0x1EF68, symSize: 0x30 }
  - { offset: 0x542EE, size: 0x8, addend: 0x0, symName: '__ZN10rayon_core4join12join_context6call_b28_$u7b$$u7b$closure$u7d$$u7d$17h0b4131d21752d0cfE', symObjAddr: 0xC58, symBinAddr: 0x1EF98, symSize: 0xA0 }
  - { offset: 0x5433C, size: 0x8, addend: 0x0, symName: '__ZN10rayon_core4join12join_context6call_b28_$u7b$$u7b$closure$u7d$$u7d$17h5b7bfc96bdf88a6fE', symObjAddr: 0xCF8, symBinAddr: 0x1F038, symSize: 0xA0 }
  - { offset: 0x55F6B, size: 0x8, addend: 0x0, symName: '__ZN106_$LT$core..result..Result$LT$T$C$E$GT$$u20$as$u20$pyo3..impl_..callback..IntoPyCallbackOutput$LT$U$GT$$GT$7convert17hd0fc41ad1f9ceb62E', symObjAddr: 0x0, symBinAddr: 0x1F0D8, symSize: 0xF4 }
  - { offset: 0x57076, size: 0x8, addend: 0x0, symName: '__ZN153_$LT$core..result..Result$LT$T$C$F$GT$$u20$as$u20$core..ops..try_trait..FromResidual$LT$core..result..Result$LT$core..convert..Infallible$C$E$GT$$GT$$GT$13from_residual17h111795aab00f6a76E', symObjAddr: 0xF4, symBinAddr: 0x1F1CC, symSize: 0x6C }
  - { offset: 0x570FC, size: 0x8, addend: 0x0, symName: '__ZN153_$LT$core..result..Result$LT$T$C$F$GT$$u20$as$u20$core..ops..try_trait..FromResidual$LT$core..result..Result$LT$core..convert..Infallible$C$E$GT$$GT$$GT$13from_residual17h419d09269f2f6f20E', symObjAddr: 0x160, symBinAddr: 0x1F238, symSize: 0x64 }
  - { offset: 0x57164, size: 0x8, addend: 0x0, symName: '__ZN153_$LT$core..result..Result$LT$T$C$F$GT$$u20$as$u20$core..ops..try_trait..FromResidual$LT$core..result..Result$LT$core..convert..Infallible$C$E$GT$$GT$$GT$13from_residual17h4a2d2fdd45a631bcE', symObjAddr: 0x1C4, symBinAddr: 0x1F29C, symSize: 0x34 }
  - { offset: 0x571CB, size: 0x8, addend: 0x0, symName: '__ZN153_$LT$core..result..Result$LT$T$C$F$GT$$u20$as$u20$core..ops..try_trait..FromResidual$LT$core..result..Result$LT$core..convert..Infallible$C$E$GT$$GT$$GT$13from_residual17h608ca137a1dd869eE', symObjAddr: 0x1F8, symBinAddr: 0x1F2D0, symSize: 0x2C }
  - { offset: 0x57232, size: 0x8, addend: 0x0, symName: '__ZN153_$LT$core..result..Result$LT$T$C$F$GT$$u20$as$u20$core..ops..try_trait..FromResidual$LT$core..result..Result$LT$core..convert..Infallible$C$E$GT$$GT$$GT$13from_residual17h6a9bdbbbbcbd06fcE', symObjAddr: 0x224, symBinAddr: 0x1F2FC, symSize: 0x6C }
  - { offset: 0x572B8, size: 0x8, addend: 0x0, symName: '__ZN153_$LT$core..result..Result$LT$T$C$F$GT$$u20$as$u20$core..ops..try_trait..FromResidual$LT$core..result..Result$LT$core..convert..Infallible$C$E$GT$$GT$$GT$13from_residual17h719503609bc1021eE', symObjAddr: 0x298, symBinAddr: 0x1F368, symSize: 0x6C }
  - { offset: 0x5733E, size: 0x8, addend: 0x0, symName: '__ZN153_$LT$core..result..Result$LT$T$C$F$GT$$u20$as$u20$core..ops..try_trait..FromResidual$LT$core..result..Result$LT$core..convert..Infallible$C$E$GT$$GT$$GT$13from_residual17h8240872e7a1d5491E', symObjAddr: 0x304, symBinAddr: 0x1F3D4, symSize: 0x6C }
  - { offset: 0x573C4, size: 0x8, addend: 0x0, symName: '__ZN153_$LT$core..result..Result$LT$T$C$F$GT$$u20$as$u20$core..ops..try_trait..FromResidual$LT$core..result..Result$LT$core..convert..Infallible$C$E$GT$$GT$$GT$13from_residual17h828569767abf32eaE', symObjAddr: 0x370, symBinAddr: 0x1F440, symSize: 0x34 }
  - { offset: 0x5742B, size: 0x8, addend: 0x0, symName: '__ZN153_$LT$core..result..Result$LT$T$C$F$GT$$u20$as$u20$core..ops..try_trait..FromResidual$LT$core..result..Result$LT$core..convert..Infallible$C$E$GT$$GT$$GT$13from_residual17h8a71ce87e21bc058E', symObjAddr: 0x3A4, symBinAddr: 0x1F474, symSize: 0x30 }
  - { offset: 0x57492, size: 0x8, addend: 0x0, symName: '__ZN153_$LT$core..result..Result$LT$T$C$F$GT$$u20$as$u20$core..ops..try_trait..FromResidual$LT$core..result..Result$LT$core..convert..Infallible$C$E$GT$$GT$$GT$13from_residual17h9cc9000964b77585E', symObjAddr: 0x3D4, symBinAddr: 0x1F4A4, symSize: 0x6C }
  - { offset: 0x57518, size: 0x8, addend: 0x0, symName: '__ZN153_$LT$core..result..Result$LT$T$C$F$GT$$u20$as$u20$core..ops..try_trait..FromResidual$LT$core..result..Result$LT$core..convert..Infallible$C$E$GT$$GT$$GT$13from_residual17h9d0db5cfeaaa9dddE', symObjAddr: 0x440, symBinAddr: 0x1F510, symSize: 0x6C }
  - { offset: 0x5759E, size: 0x8, addend: 0x0, symName: '__ZN153_$LT$core..result..Result$LT$T$C$F$GT$$u20$as$u20$core..ops..try_trait..FromResidual$LT$core..result..Result$LT$core..convert..Infallible$C$E$GT$$GT$$GT$13from_residual17ha4042049a5f23212E', symObjAddr: 0x4AC, symBinAddr: 0x1F57C, symSize: 0x6C }
  - { offset: 0x57624, size: 0x8, addend: 0x0, symName: '__ZN153_$LT$core..result..Result$LT$T$C$F$GT$$u20$as$u20$core..ops..try_trait..FromResidual$LT$core..result..Result$LT$core..convert..Infallible$C$E$GT$$GT$$GT$13from_residual17hb24e93ecbaadc2f3E', symObjAddr: 0x518, symBinAddr: 0x1F5E8, symSize: 0x2C }
  - { offset: 0x5768B, size: 0x8, addend: 0x0, symName: '__ZN153_$LT$core..result..Result$LT$T$C$F$GT$$u20$as$u20$core..ops..try_trait..FromResidual$LT$core..result..Result$LT$core..convert..Infallible$C$E$GT$$GT$$GT$13from_residual17hbd81b1cb4de64817E', symObjAddr: 0x544, symBinAddr: 0x1F614, symSize: 0x34 }
  - { offset: 0x576F2, size: 0x8, addend: 0x0, symName: '__ZN153_$LT$core..result..Result$LT$T$C$F$GT$$u20$as$u20$core..ops..try_trait..FromResidual$LT$core..result..Result$LT$core..convert..Infallible$C$E$GT$$GT$$GT$13from_residual17hc08f55396c7285f1E', symObjAddr: 0x578, symBinAddr: 0x1F648, symSize: 0x30 }
  - { offset: 0x57759, size: 0x8, addend: 0x0, symName: '__ZN153_$LT$core..result..Result$LT$T$C$F$GT$$u20$as$u20$core..ops..try_trait..FromResidual$LT$core..result..Result$LT$core..convert..Infallible$C$E$GT$$GT$$GT$13from_residual17hc4f154fa1be9d223E', symObjAddr: 0x5A8, symBinAddr: 0x1F678, symSize: 0x34 }
  - { offset: 0x577C0, size: 0x8, addend: 0x0, symName: '__ZN153_$LT$core..result..Result$LT$T$C$F$GT$$u20$as$u20$core..ops..try_trait..FromResidual$LT$core..result..Result$LT$core..convert..Infallible$C$E$GT$$GT$$GT$13from_residual17hd642f027c69d344aE', symObjAddr: 0x5DC, symBinAddr: 0x1F6AC, symSize: 0x6C }
  - { offset: 0x57846, size: 0x8, addend: 0x0, symName: '__ZN153_$LT$core..result..Result$LT$T$C$F$GT$$u20$as$u20$core..ops..try_trait..FromResidual$LT$core..result..Result$LT$core..convert..Infallible$C$E$GT$$GT$$GT$13from_residual17he3ec690e31c75f85E', symObjAddr: 0x648, symBinAddr: 0x1F718, symSize: 0x10 }
  - { offset: 0x5788F, size: 0x8, addend: 0x0, symName: '__ZN153_$LT$core..result..Result$LT$T$C$F$GT$$u20$as$u20$core..ops..try_trait..FromResidual$LT$core..result..Result$LT$core..convert..Infallible$C$E$GT$$GT$$GT$13from_residual17he508a284978aeaecE', symObjAddr: 0x658, symBinAddr: 0x1F728, symSize: 0x30 }
  - { offset: 0x578D8, size: 0x8, addend: 0x0, symName: '__ZN153_$LT$core..result..Result$LT$T$C$F$GT$$u20$as$u20$core..ops..try_trait..FromResidual$LT$core..result..Result$LT$core..convert..Infallible$C$E$GT$$GT$$GT$13from_residual17hebc240669a01c7abE', symObjAddr: 0x688, symBinAddr: 0x1F758, symSize: 0x24 }
  - { offset: 0x58EAE, size: 0x8, addend: 0x0, symName: '__ZN79_$LT$core..result..Result$LT$T$C$E$GT$$u20$as$u20$core..ops..try_trait..Try$GT$11from_output17h529d739b6733a9dbE', symObjAddr: 0x165C, symBinAddr: 0x2072C, symSize: 0x1C }
  - { offset: 0x58EEE, size: 0x8, addend: 0x0, symName: '__ZN79_$LT$core..result..Result$LT$T$C$E$GT$$u20$as$u20$core..ops..try_trait..Try$GT$6branch17h04d0f6b646e1e40aE', symObjAddr: 0x1678, symBinAddr: 0x20748, symSize: 0x7C }
  - { offset: 0x58F6B, size: 0x8, addend: 0x0, symName: '__ZN79_$LT$core..result..Result$LT$T$C$E$GT$$u20$as$u20$core..ops..try_trait..Try$GT$6branch17h0d483180776343beE', symObjAddr: 0x16F4, symBinAddr: 0x207C4, symSize: 0x70 }
  - { offset: 0x58FE8, size: 0x8, addend: 0x0, symName: '__ZN79_$LT$core..result..Result$LT$T$C$E$GT$$u20$as$u20$core..ops..try_trait..Try$GT$6branch17h1abf69f0d2e7811aE', symObjAddr: 0x1764, symBinAddr: 0x20834, symSize: 0x6C }
  - { offset: 0x59065, size: 0x8, addend: 0x0, symName: '__ZN79_$LT$core..result..Result$LT$T$C$E$GT$$u20$as$u20$core..ops..try_trait..Try$GT$6branch17h1cd88f1f5ea42a87E', symObjAddr: 0x17D0, symBinAddr: 0x208A0, symSize: 0xCC }
  - { offset: 0x590E4, size: 0x8, addend: 0x0, symName: '__ZN79_$LT$core..result..Result$LT$T$C$E$GT$$u20$as$u20$core..ops..try_trait..Try$GT$6branch17h2115be38a2199926E', symObjAddr: 0x189C, symBinAddr: 0x2096C, symSize: 0x78 }
  - { offset: 0x59161, size: 0x8, addend: 0x0, symName: '__ZN79_$LT$core..result..Result$LT$T$C$E$GT$$u20$as$u20$core..ops..try_trait..Try$GT$6branch17h2d799631f2c071ceE', symObjAddr: 0x1914, symBinAddr: 0x209E4, symSize: 0x54 }
  - { offset: 0x591DD, size: 0x8, addend: 0x0, symName: '__ZN79_$LT$core..result..Result$LT$T$C$E$GT$$u20$as$u20$core..ops..try_trait..Try$GT$6branch17h343b77eaf69a925dE', symObjAddr: 0x1968, symBinAddr: 0x20A38, symSize: 0x68 }
  - { offset: 0x5925A, size: 0x8, addend: 0x0, symName: '__ZN79_$LT$core..result..Result$LT$T$C$E$GT$$u20$as$u20$core..ops..try_trait..Try$GT$6branch17h3d891593b86960f2E', symObjAddr: 0x19D0, symBinAddr: 0x20AA0, symSize: 0x3C }
  - { offset: 0x592B8, size: 0x8, addend: 0x0, symName: '__ZN79_$LT$core..result..Result$LT$T$C$E$GT$$u20$as$u20$core..ops..try_trait..Try$GT$6branch17h47a93c5be0efb660E', symObjAddr: 0x1A0C, symBinAddr: 0x20ADC, symSize: 0x88 }
  - { offset: 0x59335, size: 0x8, addend: 0x0, symName: '__ZN79_$LT$core..result..Result$LT$T$C$E$GT$$u20$as$u20$core..ops..try_trait..Try$GT$6branch17h50ff11246431d6c1E', symObjAddr: 0x1A94, symBinAddr: 0x20B64, symSize: 0x7C }
  - { offset: 0x593B2, size: 0x8, addend: 0x0, symName: '__ZN79_$LT$core..result..Result$LT$T$C$E$GT$$u20$as$u20$core..ops..try_trait..Try$GT$6branch17h5204570ab237d5f4E', symObjAddr: 0x1B10, symBinAddr: 0x20BE0, symSize: 0x94 }
  - { offset: 0x5942F, size: 0x8, addend: 0x0, symName: '__ZN79_$LT$core..result..Result$LT$T$C$E$GT$$u20$as$u20$core..ops..try_trait..Try$GT$6branch17h53b3ca8865426251E', symObjAddr: 0x1BA4, symBinAddr: 0x20C74, symSize: 0xB4 }
  - { offset: 0x594AD, size: 0x8, addend: 0x0, symName: '__ZN79_$LT$core..result..Result$LT$T$C$E$GT$$u20$as$u20$core..ops..try_trait..Try$GT$6branch17h56be30ef30ea3f47E', symObjAddr: 0x1C58, symBinAddr: 0x20D28, symSize: 0x7C }
  - { offset: 0x5952A, size: 0x8, addend: 0x0, symName: '__ZN79_$LT$core..result..Result$LT$T$C$E$GT$$u20$as$u20$core..ops..try_trait..Try$GT$6branch17h608fa419f696d92bE', symObjAddr: 0x1CD4, symBinAddr: 0x20DA4, symSize: 0x88 }
  - { offset: 0x595A8, size: 0x8, addend: 0x0, symName: '__ZN79_$LT$core..result..Result$LT$T$C$E$GT$$u20$as$u20$core..ops..try_trait..Try$GT$6branch17h620f61928ae8459cE', symObjAddr: 0x1D5C, symBinAddr: 0x20E2C, symSize: 0xCC }
  - { offset: 0x59627, size: 0x8, addend: 0x0, symName: '__ZN79_$LT$core..result..Result$LT$T$C$E$GT$$u20$as$u20$core..ops..try_trait..Try$GT$6branch17h6ae2676dae1e5591E', symObjAddr: 0x1E28, symBinAddr: 0x20EF8, symSize: 0x7C }
  - { offset: 0x596A4, size: 0x8, addend: 0x0, symName: '__ZN79_$LT$core..result..Result$LT$T$C$E$GT$$u20$as$u20$core..ops..try_trait..Try$GT$6branch17h7e2bd29880bb68dfE', symObjAddr: 0x1EA4, symBinAddr: 0x20F74, symSize: 0x90 }
  - { offset: 0x59721, size: 0x8, addend: 0x0, symName: '__ZN79_$LT$core..result..Result$LT$T$C$E$GT$$u20$as$u20$core..ops..try_trait..Try$GT$6branch17h876ff87a561914afE', symObjAddr: 0x1F34, symBinAddr: 0x21004, symSize: 0x6C }
  - { offset: 0x5979E, size: 0x8, addend: 0x0, symName: '__ZN79_$LT$core..result..Result$LT$T$C$E$GT$$u20$as$u20$core..ops..try_trait..Try$GT$6branch17h88da500a7fb1e119E', symObjAddr: 0x1FA0, symBinAddr: 0x21070, symSize: 0x7C }
  - { offset: 0x5981B, size: 0x8, addend: 0x0, symName: '__ZN79_$LT$core..result..Result$LT$T$C$E$GT$$u20$as$u20$core..ops..try_trait..Try$GT$6branch17ha0789a34ae760f12E', symObjAddr: 0x201C, symBinAddr: 0x210EC, symSize: 0x54 }
  - { offset: 0x59897, size: 0x8, addend: 0x0, symName: '__ZN79_$LT$core..result..Result$LT$T$C$E$GT$$u20$as$u20$core..ops..try_trait..Try$GT$6branch17ha17e0a5b4b160856E', symObjAddr: 0x2070, symBinAddr: 0x21140, symSize: 0x64 }
  - { offset: 0x59914, size: 0x8, addend: 0x0, symName: '__ZN79_$LT$core..result..Result$LT$T$C$E$GT$$u20$as$u20$core..ops..try_trait..Try$GT$6branch17ha4b7b833f54c0fffE', symObjAddr: 0x20D4, symBinAddr: 0x211A4, symSize: 0xA0 }
  - { offset: 0x59991, size: 0x8, addend: 0x0, symName: '__ZN79_$LT$core..result..Result$LT$T$C$E$GT$$u20$as$u20$core..ops..try_trait..Try$GT$6branch17ha6d580a15f4f476dE', symObjAddr: 0x2174, symBinAddr: 0x21244, symSize: 0x80 }
  - { offset: 0x59A0E, size: 0x8, addend: 0x0, symName: '__ZN79_$LT$core..result..Result$LT$T$C$E$GT$$u20$as$u20$core..ops..try_trait..Try$GT$6branch17ha895ec8245cf12f3E', symObjAddr: 0x21F4, symBinAddr: 0x212C4, symSize: 0xA0 }
  - { offset: 0x59A8B, size: 0x8, addend: 0x0, symName: '__ZN79_$LT$core..result..Result$LT$T$C$E$GT$$u20$as$u20$core..ops..try_trait..Try$GT$6branch17hb2aab90fc6e3325bE', symObjAddr: 0x2294, symBinAddr: 0x21364, symSize: 0x44 }
  - { offset: 0x59B07, size: 0x8, addend: 0x0, symName: '__ZN79_$LT$core..result..Result$LT$T$C$E$GT$$u20$as$u20$core..ops..try_trait..Try$GT$6branch17hb3a4c78cec238346E', symObjAddr: 0x22D8, symBinAddr: 0x213A8, symSize: 0x90 }
  - { offset: 0x59B84, size: 0x8, addend: 0x0, symName: '__ZN79_$LT$core..result..Result$LT$T$C$E$GT$$u20$as$u20$core..ops..try_trait..Try$GT$6branch17hb91a0819f6365cf6E', symObjAddr: 0x2368, symBinAddr: 0x21438, symSize: 0xA0 }
  - { offset: 0x59C01, size: 0x8, addend: 0x0, symName: '__ZN79_$LT$core..result..Result$LT$T$C$E$GT$$u20$as$u20$core..ops..try_trait..Try$GT$6branch17hbac6678d0a4b22e8E', symObjAddr: 0x2408, symBinAddr: 0x214D8, symSize: 0x54 }
  - { offset: 0x59C7D, size: 0x8, addend: 0x0, symName: '__ZN79_$LT$core..result..Result$LT$T$C$E$GT$$u20$as$u20$core..ops..try_trait..Try$GT$6branch17hbd690576eb543edfE', symObjAddr: 0x245C, symBinAddr: 0x2152C, symSize: 0xA0 }
  - { offset: 0x59CFA, size: 0x8, addend: 0x0, symName: '__ZN79_$LT$core..result..Result$LT$T$C$E$GT$$u20$as$u20$core..ops..try_trait..Try$GT$6branch17hc0a8d81615a3f463E', symObjAddr: 0x24FC, symBinAddr: 0x215CC, symSize: 0x78 }
  - { offset: 0x59D77, size: 0x8, addend: 0x0, symName: '__ZN79_$LT$core..result..Result$LT$T$C$E$GT$$u20$as$u20$core..ops..try_trait..Try$GT$6branch17hd7e8bf8ad2dad736E', symObjAddr: 0x2574, symBinAddr: 0x21644, symSize: 0x54 }
  - { offset: 0x59DF3, size: 0x8, addend: 0x0, symName: '__ZN79_$LT$core..result..Result$LT$T$C$E$GT$$u20$as$u20$core..ops..try_trait..Try$GT$6branch17heaf02f98cf17c8b5E', symObjAddr: 0x25C8, symBinAddr: 0x21698, symSize: 0x90 }
  - { offset: 0x59E70, size: 0x8, addend: 0x0, symName: '__ZN79_$LT$core..result..Result$LT$T$C$E$GT$$u20$as$u20$core..ops..try_trait..Try$GT$6branch17hf10cd53a4126c9f1E', symObjAddr: 0x2658, symBinAddr: 0x21728, symSize: 0xB4 }
  - { offset: 0x59EEE, size: 0x8, addend: 0x0, symName: '__ZN79_$LT$core..result..Result$LT$T$C$E$GT$$u20$as$u20$core..ops..try_trait..Try$GT$6branch17hf5522b659e5daa31E', symObjAddr: 0x270C, symBinAddr: 0x217DC, symSize: 0xB4 }
  - { offset: 0x59F6C, size: 0x8, addend: 0x0, symName: '__ZN79_$LT$core..result..Result$LT$T$C$E$GT$$u20$as$u20$core..ops..try_trait..Try$GT$6branch17hfd2b94a413e7b1d5E', symObjAddr: 0x27C0, symBinAddr: 0x21890, symSize: 0xAC }
  - { offset: 0x5C8E0, size: 0x8, addend: 0x0, symName: '__ZN106_$LT$core..result..Result$LT$T$C$E$GT$$u20$as$u20$pyo3..impl_..callback..IntoPyCallbackOutput$LT$U$GT$$GT$7convert17hd0fc41ad1f9ceb62E', symObjAddr: 0x0, symBinAddr: 0x1F0D8, symSize: 0xF4 }
  - { offset: 0x5D0FC, size: 0x8, addend: 0x0, symName: '__ZN4core6result19Result$LT$T$C$E$GT$14unwrap_or_else17h83a9845ba4b55346E', symObjAddr: 0x6AC, symBinAddr: 0x1F77C, symSize: 0x8C }
  - { offset: 0x5D196, size: 0x8, addend: 0x0, symName: '__ZN4core6result19Result$LT$T$C$E$GT$14unwrap_or_else17hf837b99a4516a1e3E', symObjAddr: 0x738, symBinAddr: 0x1F808, symSize: 0x70 }
  - { offset: 0x5D227, size: 0x8, addend: 0x0, symName: '__ZN4core6result19Result$LT$T$C$E$GT$3map17h1341a9c6a71dce46E', symObjAddr: 0x7A8, symBinAddr: 0x1F878, symSize: 0x90 }
  - { offset: 0x5D31C, size: 0x8, addend: 0x0, symName: '__ZN4core6result19Result$LT$T$C$E$GT$3map17h2caf34e102f60b0fE', symObjAddr: 0x838, symBinAddr: 0x1F908, symSize: 0x78 }
  - { offset: 0x5D3AF, size: 0x8, addend: 0x0, symName: '__ZN4core6result19Result$LT$T$C$E$GT$3map17h318f540cbb413539E', symObjAddr: 0x8B0, symBinAddr: 0x1F980, symSize: 0x90 }
  - { offset: 0x5D442, size: 0x8, addend: 0x0, symName: '__ZN4core6result19Result$LT$T$C$E$GT$3map17h6f0259eb157d17caE', symObjAddr: 0x940, symBinAddr: 0x1FA10, symSize: 0x90 }
  - { offset: 0x5DC78, size: 0x8, addend: 0x0, symName: '__ZN4core6result19Result$LT$T$C$E$GT$3map17h885c31988e7e6a3fE', symObjAddr: 0x9D0, symBinAddr: 0x1FAA0, symSize: 0x94 }
  - { offset: 0x5E39A, size: 0x8, addend: 0x0, symName: '__ZN4core6result19Result$LT$T$C$E$GT$3map17h99d967d5b034e2faE', symObjAddr: 0xA64, symBinAddr: 0x1FB34, symSize: 0x90 }
  - { offset: 0x5E43A, size: 0x8, addend: 0x0, symName: '__ZN4core6result19Result$LT$T$C$E$GT$3map17hcc71d9c311b35ae7E', symObjAddr: 0xAF4, symBinAddr: 0x1FBC4, symSize: 0x4C }
  - { offset: 0x5E505, size: 0x8, addend: 0x0, symName: '__ZN4core6result19Result$LT$T$C$E$GT$6is_err17h935665f378a266efE', symObjAddr: 0xB40, symBinAddr: 0x1FC10, symSize: 0x20 }
  - { offset: 0x5E58A, size: 0x8, addend: 0x0, symName: '__ZN4core6result19Result$LT$T$C$E$GT$6is_err17hf27dea4f9d44d518E', symObjAddr: 0xB60, symBinAddr: 0x1FC30, symSize: 0x2C }
  - { offset: 0x5E5F5, size: 0x8, addend: 0x0, symName: '__ZN4core6result19Result$LT$T$C$E$GT$7map_err17h066f2126066c0e51E', symObjAddr: 0xB8C, symBinAddr: 0x1FC5C, symSize: 0xA0 }
  - { offset: 0x5E6A0, size: 0x8, addend: 0x0, symName: '__ZN4core6result19Result$LT$T$C$E$GT$7map_err17h2b2cd36da8fa33a7E', symObjAddr: 0xC2C, symBinAddr: 0x1FCFC, symSize: 0x30 }
  - { offset: 0x5EC25, size: 0x8, addend: 0x0, symName: '__ZN4core6result19Result$LT$T$C$E$GT$7map_err17h2de265d4353ce689E', symObjAddr: 0xC5C, symBinAddr: 0x1FD2C, symSize: 0x88 }
  - { offset: 0x5ECB8, size: 0x8, addend: 0x0, symName: '__ZN4core6result19Result$LT$T$C$E$GT$7map_err17h7ea2d3c8c2ff2014E', symObjAddr: 0xCE4, symBinAddr: 0x1FDB4, symSize: 0x30 }
  - { offset: 0x5ED4C, size: 0x8, addend: 0x0, symName: '__ZN4core6result19Result$LT$T$C$E$GT$7map_err17h997c22d746de7216E', symObjAddr: 0xD14, symBinAddr: 0x1FDE4, symSize: 0xDC }
  - { offset: 0x5EDE1, size: 0x8, addend: 0x0, symName: '__ZN4core6result19Result$LT$T$C$E$GT$7map_err17ha40e9b0fafcb65b1E', symObjAddr: 0xDF0, symBinAddr: 0x1FEC0, symSize: 0xAC }
  - { offset: 0x5EE74, size: 0x8, addend: 0x0, symName: '__ZN4core6result19Result$LT$T$C$E$GT$7map_err17ha59d228d32d44373E', symObjAddr: 0xE9C, symBinAddr: 0x1FF6C, symSize: 0x7C }
  - { offset: 0x5EF2F, size: 0x8, addend: 0x0, symName: '__ZN4core6result19Result$LT$T$C$E$GT$7map_err17hbf4b72944ef518bcE', symObjAddr: 0xF18, symBinAddr: 0x1FFE8, symSize: 0x48 }
  - { offset: 0x5EFA5, size: 0x8, addend: 0x0, symName: '__ZN4core6result19Result$LT$T$C$E$GT$7map_err17hbf820dc5cb72c50fE', symObjAddr: 0xF60, symBinAddr: 0x20030, symSize: 0xAC }
  - { offset: 0x5F050, size: 0x8, addend: 0x0, symName: '__ZN4core6result19Result$LT$T$C$E$GT$7map_err17hefdaf298f9290d6eE', symObjAddr: 0x100C, symBinAddr: 0x200DC, symSize: 0x84 }
  - { offset: 0x5F0E2, size: 0x8, addend: 0x0, symName: '__ZN4core6result19Result$LT$T$C$E$GT$8and_then17h36cbec65d86b1cc5E', symObjAddr: 0x1090, symBinAddr: 0x20160, symSize: 0x9C }
  - { offset: 0x5F175, size: 0x8, addend: 0x0, symName: '__ZN4core6result19Result$LT$T$C$E$GT$8and_then17h3d5c00e67ce4db75E', symObjAddr: 0x112C, symBinAddr: 0x201FC, symSize: 0xB0 }
  - { offset: 0x5F208, size: 0x8, addend: 0x0, symName: '__ZN4core6result19Result$LT$T$C$E$GT$8and_then17hb49e6570b0b6767dE', symObjAddr: 0x11DC, symBinAddr: 0x202AC, symSize: 0x94 }
  - { offset: 0x5F29B, size: 0x8, addend: 0x0, symName: '__ZN4core6result19Result$LT$T$C$E$GT$8and_then17hd5c29499ebc36580E', symObjAddr: 0x1270, symBinAddr: 0x20340, symSize: 0xC0 }
  - { offset: 0x5F32F, size: 0x8, addend: 0x0, symName: '__ZN4core6result19Result$LT$T$C$E$GT$9unwrap_or17hac65b9928c87620cE', symObjAddr: 0x1330, symBinAddr: 0x20400, symSize: 0x6C }
  - { offset: 0x5F3C6, size: 0x8, addend: 0x0, symName: '__ZN5rayon6result138_$LT$impl$u20$rayon..iter..FromParallelIterator$LT$core..result..Result$LT$T$C$E$GT$$GT$$u20$for$u20$core..result..Result$LT$C$C$E$GT$$GT$13from_par_iter17hae0bb2fc5ddfcd77E', symObjAddr: 0x139C, symBinAddr: 0x2046C, symSize: 0x2C0 }
  - { offset: 0x5F665, size: 0x8, addend: 0x0, symName: __ZN4core4hint16assert_unchecked18precondition_check17hc6a3ec2e1c25ba28E, symObjAddr: 0x0, symBinAddr: 0x2193C, symSize: 0x58 }
  - { offset: 0x5F681, size: 0x8, addend: 0x0, symName: __ZN4core4hint16assert_unchecked18precondition_check17hc6a3ec2e1c25ba28E, symObjAddr: 0x0, symBinAddr: 0x2193C, symSize: 0x58 }
  - { offset: 0x5F6C7, size: 0x8, addend: 0x0, symName: __ZN4core4hint21unreachable_unchecked17h7fdf4d1cfa18b945E, symObjAddr: 0x58, symBinAddr: 0x21994, symSize: 0x10 }
  - { offset: 0x5F6E5, size: 0x8, addend: 0x0, symName: __ZN4core4hint21unreachable_unchecked18precondition_check17h88453a3e6db3aa58E, symObjAddr: 0x68, symBinAddr: 0x219A4, symSize: 0x3C }
  - { offset: 0x5F779, size: 0x8, addend: 0x0, symName: '__ZN10serde_core3ser5impls62_$LT$impl$u20$serde_core..ser..Serialize$u20$for$u20$$RF$T$GT$9serialize17h40551881a589c379E', symObjAddr: 0x0, symBinAddr: 0x219E0, symSize: 0x28 }
  - { offset: 0x5FB54, size: 0x8, addend: 0x0, symName: '__ZN10serde_json5value2de82_$LT$impl$u20$serde_core..de..Deserialize$u20$for$u20$serde_json..value..Value$GT$11deserialize17hc2715e01c6f30093E', symObjAddr: 0xB0, symBinAddr: 0x21A90, symSize: 0x24 }
  - { offset: 0x5FB95, size: 0x8, addend: 0x0, symName: '__ZN10serde_json5value3ser81_$LT$impl$u20$serde_core..ser..Serialize$u20$for$u20$serde_json..value..Value$GT$9serialize17h004e8ec788ecbfa1E', symObjAddr: 0xD4, symBinAddr: 0x21AB4, symSize: 0x35C }
  - { offset: 0x5FD0A, size: 0x8, addend: 0x0, symName: '__ZN10serde_json5value3ser81_$LT$impl$u20$serde_core..ser..Serialize$u20$for$u20$serde_json..value..Value$GT$9serialize17h20006c880ac4697eE', symObjAddr: 0x430, symBinAddr: 0x21E10, symSize: 0x35C }
  - { offset: 0x5FE7F, size: 0x8, addend: 0x0, symName: '__ZN10serde_json5value3ser81_$LT$impl$u20$serde_core..ser..Serialize$u20$for$u20$serde_json..value..Value$GT$9serialize17h88f42206a45a9d56E', symObjAddr: 0x78C, symBinAddr: 0x2216C, symSize: 0x384 }
  - { offset: 0x6013F, size: 0x8, addend: 0x0, symName: '__ZN10serde_json5value5index87_$LT$impl$u20$core..ops..index..Index$LT$I$GT$$u20$for$u20$serde_json..value..Value$GT$5index17h6a771144678470cfE', symObjAddr: 0xB70, symBinAddr: 0x22550, symSize: 0x74 }
  - { offset: 0x60182, size: 0x8, addend: 0x0, symName: '__ZN10serde_json5value5index87_$LT$impl$u20$core..ops..index..Index$LT$I$GT$$u20$for$u20$serde_json..value..Value$GT$5index17h9eaeedb4f2f4486eE', symObjAddr: 0xBE4, symBinAddr: 0x225C4, symSize: 0x78 }
  - { offset: 0x601C7, size: 0x8, addend: 0x0, symName: __ZN10serde_json5value8to_value17h1eeab44b27b860a8E, symObjAddr: 0xC5C, symBinAddr: 0x2263C, symSize: 0x44 }
  - { offset: 0x601FE, size: 0x8, addend: 0x0, symName: __ZN10serde_json5value8to_value17h426ebb9d0f85c32bE, symObjAddr: 0xCA0, symBinAddr: 0x22680, symSize: 0x44 }
  - { offset: 0x60235, size: 0x8, addend: 0x0, symName: __ZN10serde_json5value8to_value17h61a02ed991914804E, symObjAddr: 0xCE4, symBinAddr: 0x226C4, symSize: 0x44 }
  - { offset: 0x6026C, size: 0x8, addend: 0x0, symName: __ZN10serde_json5value8to_value17h79a745fed2281899E, symObjAddr: 0xD28, symBinAddr: 0x22708, symSize: 0x44 }
  - { offset: 0x602A3, size: 0x8, addend: 0x0, symName: __ZN10serde_json5value8to_value17h984d691c563c85ecE, symObjAddr: 0xD6C, symBinAddr: 0x2274C, symSize: 0x44 }
  - { offset: 0x602DA, size: 0x8, addend: 0x0, symName: __ZN10serde_json5value8to_value17hb0862f6a65618d0eE, symObjAddr: 0xDB0, symBinAddr: 0x22790, symSize: 0x44 }
  - { offset: 0x60311, size: 0x8, addend: 0x0, symName: __ZN10serde_json5value8to_value17hd562e99a62c478c3E, symObjAddr: 0xDF4, symBinAddr: 0x227D4, symSize: 0x44 }
  - { offset: 0x60348, size: 0x8, addend: 0x0, symName: __ZN10serde_json5value8to_value17he751b5640d412db4E, symObjAddr: 0xE38, symBinAddr: 0x22818, symSize: 0x44 }
  - { offset: 0x6037F, size: 0x8, addend: 0x0, symName: __ZN10serde_json5value8to_value17hf7a3ca9f1ae4441fE, symObjAddr: 0xE7C, symBinAddr: 0x2285C, symSize: 0x44 }
  - { offset: 0x607A9, size: 0x8, addend: 0x0, symName: '__ZN10serde_core3ser5impls62_$LT$impl$u20$serde_core..ser..Serialize$u20$for$u20$$RF$T$GT$9serialize17h40551881a589c379E', symObjAddr: 0x0, symBinAddr: 0x219E0, symSize: 0x28 }
  - { offset: 0x607F8, size: 0x8, addend: 0x0, symName: '__ZN10serde_core3ser5impls62_$LT$impl$u20$serde_core..ser..Serialize$u20$for$u20$$RF$T$GT$9serialize17h98157249a2c5da20E', symObjAddr: 0x28, symBinAddr: 0x21A08, symSize: 0x30 }
  - { offset: 0x60847, size: 0x8, addend: 0x0, symName: '__ZN10serde_core3ser5impls62_$LT$impl$u20$serde_core..ser..Serialize$u20$for$u20$$RF$T$GT$9serialize17ha3121309181ab5c4E', symObjAddr: 0x58, symBinAddr: 0x21A38, symSize: 0x30 }
  - { offset: 0x60896, size: 0x8, addend: 0x0, symName: '__ZN10serde_core3ser5impls62_$LT$impl$u20$serde_core..ser..Serialize$u20$for$u20$$RF$T$GT$9serialize17hf286f065a766d13dE', symObjAddr: 0x88, symBinAddr: 0x21A68, symSize: 0x28 }
  - { offset: 0x60F1D, size: 0x8, addend: 0x0, symName: '__ZN5alloc5slice29_$LT$impl$u20$$u5b$T$u5d$$GT$8into_vec17h7614b56779cc2adfE', symObjAddr: 0xEC0, symBinAddr: 0x228A0, symSize: 0xB8 }
  - { offset: 0x619DD, size: 0x8, addend: 0x0, symName: __ZN10serde_json5value5Value3get17h62c55869a483046cE, symObjAddr: 0xB10, symBinAddr: 0x224F0, symSize: 0x60 }
  - { offset: 0x61E04, size: 0x8, addend: 0x0, symName: '__ZN10rayon_core8registry8Registry14in_worker_cold10LOCK_LATCH29_$u7b$$u7b$constant$u7d$$u7d$28_$u7b$$u7b$closure$u7d$$u7d$17h7a1e4f00f45afeecE', symObjAddr: 0x0, symBinAddr: 0x22958, symSize: 0x34 }
  - { offset: 0x62466, size: 0x8, addend: 0x0, symName: '__ZN10rayon_core8registry8Registry14in_worker_cold10LOCK_LATCH29_$u7b$$u7b$constant$u7d$$u7d$28_$u7b$$u7b$closure$u7d$$u7d$17h7a1e4f00f45afeecE', symObjAddr: 0x0, symBinAddr: 0x22958, symSize: 0x34 }
  - { offset: 0x624A1, size: 0x8, addend: 0x0, symName: '__ZN10rayon_core8registry8Registry14in_worker_cold28_$u7b$$u7b$closure$u7d$$u7d$17h2085ab10e7348284E', symObjAddr: 0xDC, symBinAddr: 0x2298C, symSize: 0x1D8 }
  - { offset: 0x6251B, size: 0x8, addend: 0x0, symName: '__ZN10rayon_core8registry8Registry14in_worker_cold28_$u7b$$u7b$closure$u7d$$u7d$17hbb7cd1bdb1211b95E', symObjAddr: 0x2B4, symBinAddr: 0x22B64, symSize: 0x1D8 }
  - { offset: 0x6259A, size: 0x8, addend: 0x0, symName: '__ZN10rayon_core8registry8Registry14in_worker_cold28_$u7b$$u7b$closure$u7d$$u7d$28_$u7b$$u7b$closure$u7d$$u7d$17h2a2a29f5ee8fb60fE', symObjAddr: 0x48C, symBinAddr: 0x22D3C, symSize: 0x138 }
  - { offset: 0x62609, size: 0x8, addend: 0x0, symName: '__ZN10rayon_core8registry8Registry14in_worker_cold28_$u7b$$u7b$closure$u7d$$u7d$28_$u7b$$u7b$closure$u7d$$u7d$17h4b9fcce6f5e2f64dE', symObjAddr: 0x5C4, symBinAddr: 0x22E74, symSize: 0x138 }
  - { offset: 0x626A5, size: 0x8, addend: 0x0, symName: '__ZN10rayon_core8registry8Registry15in_worker_cross28_$u7b$$u7b$closure$u7d$$u7d$17h6ac599d3877bee2cE', symObjAddr: 0xAF4, symBinAddr: 0x22FAC, symSize: 0x138 }
  - { offset: 0x62714, size: 0x8, addend: 0x0, symName: '__ZN10rayon_core8registry8Registry15in_worker_cross28_$u7b$$u7b$closure$u7d$$u7d$17hda0c8bf8b4e34558E', symObjAddr: 0xC2C, symBinAddr: 0x230E4, symSize: 0x138 }
  - { offset: 0x629DD, size: 0x8, addend: 0x0, symName: __ZN10rayon_core8registry9in_worker17h1fbf3ab42b5ee2f8E, symObjAddr: 0x125C, symBinAddr: 0x23714, symSize: 0x158 }
  - { offset: 0x62A34, size: 0x8, addend: 0x0, symName: __ZN10rayon_core8registry9in_worker17hf1bef1b9b5efc806E, symObjAddr: 0x13B4, symBinAddr: 0x2386C, symSize: 0x158 }
  - { offset: 0x63CF7, size: 0x8, addend: 0x0, symName: __ZN4core3cmp9PartialEq2ne17h267401cebe450f44E, symObjAddr: 0x150C, symBinAddr: 0x239C4, symSize: 0x30 }
  - { offset: 0x64659, size: 0x8, addend: 0x0, symName: __ZN10rayon_core8registry8Registry14in_worker_cold17h2346cf533ae413feE, symObjAddr: 0x34, symBinAddr: 0xFE104, symSize: 0x54 }
  - { offset: 0x6470A, size: 0x8, addend: 0x0, symName: __ZN10rayon_core8registry8Registry14in_worker_cold17hda91d9d8165d11e1E, symObjAddr: 0x88, symBinAddr: 0xFE158, symSize: 0x54 }
  - { offset: 0x64769, size: 0x8, addend: 0x0, symName: __ZN10rayon_core8registry8Registry15in_worker_cross17h87b44ed633a40e1bE, symObjAddr: 0x6FC, symBinAddr: 0xFE1AC, symSize: 0x1FC }
  - { offset: 0x647ED, size: 0x8, addend: 0x0, symName: __ZN10rayon_core8registry8Registry15in_worker_cross17hd567bcf64b797a7eE, symObjAddr: 0x8F8, symBinAddr: 0xFE3A8, symSize: 0x1FC }
  - { offset: 0x64871, size: 0x8, addend: 0x0, symName: __ZN10rayon_core8registry8Registry9in_worker17h06de42e41a2498a5E, symObjAddr: 0xD64, symBinAddr: 0x2321C, symSize: 0x27C }
  - { offset: 0x648CC, size: 0x8, addend: 0x0, symName: __ZN10rayon_core8registry8Registry9in_worker17h8de3e96faa4fb602E, symObjAddr: 0xFE0, symBinAddr: 0x23498, symSize: 0x27C }
  - { offset: 0x649E8, size: 0x8, addend: 0x0, symName: __ZN4core3fmt9Arguments3new17h1dc7fc31b3cb99adE, symObjAddr: 0x0, symBinAddr: 0x239F4, symSize: 0x1C }
  - { offset: 0x64E3E, size: 0x8, addend: 0x0, symName: __ZN4core3fmt9Arguments3new17h1dc7fc31b3cb99adE, symObjAddr: 0x0, symBinAddr: 0x239F4, symSize: 0x1C }
  - { offset: 0x64EA4, size: 0x8, addend: 0x0, symName: __ZN4core3fmt9Arguments3new17h36a02a3b05603f68E, symObjAddr: 0x1C, symBinAddr: 0x23A10, symSize: 0x1C }
  - { offset: 0x64EF0, size: 0x8, addend: 0x0, symName: __ZN4core3fmt9Arguments3new17h3bc287699f8cfea2E, symObjAddr: 0x38, symBinAddr: 0x23A2C, symSize: 0x1C }
  - { offset: 0x64F3C, size: 0x8, addend: 0x0, symName: __ZN4core3fmt9Arguments3new17h4a03d069ee8a30dbE, symObjAddr: 0x54, symBinAddr: 0x23A48, symSize: 0x1C }
  - { offset: 0x64F88, size: 0x8, addend: 0x0, symName: __ZN4core3fmt9Arguments3new17h514179f9ce923a70E, symObjAddr: 0x70, symBinAddr: 0x23A64, symSize: 0x1C }
  - { offset: 0x64FD4, size: 0x8, addend: 0x0, symName: __ZN4core3fmt9Arguments3new17h7289df2c757dc86bE, symObjAddr: 0x8C, symBinAddr: 0x23A80, symSize: 0x1C }
  - { offset: 0x6503A, size: 0x8, addend: 0x0, symName: __ZN4core3fmt9Arguments3new17h798393dafee7181eE, symObjAddr: 0xA8, symBinAddr: 0x23A9C, symSize: 0x1C }
  - { offset: 0x65086, size: 0x8, addend: 0x0, symName: __ZN4core3fmt9Arguments3new17h8b72607797886656E, symObjAddr: 0xC4, symBinAddr: 0x23AB8, symSize: 0x1C }
  - { offset: 0x650EC, size: 0x8, addend: 0x0, symName: __ZN4core3fmt9Arguments3new17hc836e896eb0afca2E, symObjAddr: 0xE0, symBinAddr: 0x23AD4, symSize: 0x1C }
  - { offset: 0x65138, size: 0x8, addend: 0x0, symName: __ZN4core3fmt9Arguments3new17he84ef0fa8f7752e2E, symObjAddr: 0xFC, symBinAddr: 0x23AF0, symSize: 0x1C }
  - { offset: 0x65184, size: 0x8, addend: 0x0, symName: __ZN4core3fmt9Arguments3new17hf7207100fe576619E, symObjAddr: 0x118, symBinAddr: 0x23B0C, symSize: 0x1C }
  - { offset: 0x651D4, size: 0x8, addend: 0x0, symName: '__ZN5alloc7raw_vec19RawVec$LT$T$C$A$GT$8grow_one17h0c4a6ef09f4c5876E', symObjAddr: 0x0, symBinAddr: 0x23B28, symSize: 0x88 }
  - { offset: 0x65DED, size: 0x8, addend: 0x0, symName: '__ZN5alloc7raw_vec19RawVec$LT$T$C$A$GT$8grow_one17h0c4a6ef09f4c5876E', symObjAddr: 0x0, symBinAddr: 0x23B28, symSize: 0x88 }
  - { offset: 0x65EC5, size: 0x8, addend: 0x0, symName: '__ZN5alloc7raw_vec19RawVec$LT$T$C$A$GT$8grow_one17h2015c2beeec546d6E', symObjAddr: 0x88, symBinAddr: 0x23BB0, symSize: 0x88 }
  - { offset: 0x65FFC, size: 0x8, addend: 0x0, symName: '__ZN5alloc7raw_vec19RawVec$LT$T$C$A$GT$8grow_one17h258d5cc459e5832eE', symObjAddr: 0x110, symBinAddr: 0x23C38, symSize: 0x88 }
  - { offset: 0x660D3, size: 0x8, addend: 0x0, symName: '__ZN5alloc7raw_vec19RawVec$LT$T$C$A$GT$8grow_one17h48085007108830a4E', symObjAddr: 0x198, symBinAddr: 0x23CC0, symSize: 0x88 }
  - { offset: 0x661B7, size: 0x8, addend: 0x0, symName: '__ZN5alloc7raw_vec19RawVec$LT$T$C$A$GT$8grow_one17h540cb0e7c94f7593E', symObjAddr: 0x220, symBinAddr: 0x23D48, symSize: 0x88 }
  - { offset: 0x66267, size: 0x8, addend: 0x0, symName: '__ZN5alloc7raw_vec19RawVec$LT$T$C$A$GT$8grow_one17h62a875c80d158c2dE', symObjAddr: 0x2A8, symBinAddr: 0x23DD0, symSize: 0x84 }
  - { offset: 0x66324, size: 0x8, addend: 0x0, symName: '__ZN5alloc7raw_vec19RawVec$LT$T$C$A$GT$8grow_one17hac41017b1f60888cE', symObjAddr: 0x32C, symBinAddr: 0x23E54, symSize: 0x84 }
  - { offset: 0x663DB, size: 0x8, addend: 0x0, symName: '__ZN5alloc7raw_vec19RawVec$LT$T$C$A$GT$8grow_one17hbfb38f6cf0bf5c7dE', symObjAddr: 0x3B0, symBinAddr: 0x23ED8, symSize: 0x84 }
  - { offset: 0x66464, size: 0x8, addend: 0x0, symName: __ZN9hashbrown7control5group4neon5Group10match_full17hc03b4b503f638255E, symObjAddr: 0x0, symBinAddr: 0x23F5C, symSize: 0x68 }
  - { offset: 0x6668D, size: 0x8, addend: 0x0, symName: __ZN9hashbrown7control5group4neon5Group10match_full17hc03b4b503f638255E, symObjAddr: 0x0, symBinAddr: 0x23F5C, symSize: 0x68 }
  - { offset: 0x666C5, size: 0x8, addend: 0x0, symName: __ZN9hashbrown7control5group4neon5Group10match_full17he9866fcf994ed527E, symObjAddr: 0x68, symBinAddr: 0x23FC4, symSize: 0x68 }
  - { offset: 0x666FD, size: 0x8, addend: 0x0, symName: __ZN9hashbrown7control5group4neon5Group11match_empty17he9ecac9ce99134c2E, symObjAddr: 0xD0, symBinAddr: 0x2402C, symSize: 0x2C }
  - { offset: 0x6672D, size: 0x8, addend: 0x0, symName: __ZN9hashbrown7control5group4neon5Group12load_aligned17had31d080fe1ef753E, symObjAddr: 0xFC, symBinAddr: 0x24058, symSize: 0xAC }
  - { offset: 0x667A5, size: 0x8, addend: 0x0, symName: __ZN9hashbrown7control5group4neon5Group13store_aligned17h226f870cb4796524E, symObjAddr: 0x1A8, symBinAddr: 0x24104, symSize: 0xB0 }
  - { offset: 0x6681F, size: 0x8, addend: 0x0, symName: __ZN9hashbrown7control5group4neon5Group22match_empty_or_deleted17h0850c9c80de0d319E, symObjAddr: 0x258, symBinAddr: 0x241B4, symSize: 0x68 }
  - { offset: 0x66857, size: 0x8, addend: 0x0, symName: __ZN9hashbrown7control5group4neon5Group22match_empty_or_deleted17h9d2067b656f57815E, symObjAddr: 0x2C0, symBinAddr: 0x2421C, symSize: 0x68 }
  - { offset: 0x6688F, size: 0x8, addend: 0x0, symName: __ZN9hashbrown7control5group4neon5Group44convert_special_to_empty_and_full_to_deleted17h203df42584584698E, symObjAddr: 0x328, symBinAddr: 0x24284, symSize: 0x88 }
  - { offset: 0x668C7, size: 0x8, addend: 0x0, symName: __ZN9hashbrown7control5group4neon5Group44convert_special_to_empty_and_full_to_deleted17hee4993a4966a86dbE, symObjAddr: 0x3B0, symBinAddr: 0x2430C, symSize: 0x88 }
  - { offset: 0x668FF, size: 0x8, addend: 0x0, symName: __ZN9hashbrown7control5group4neon5Group4load17hafb24ebf8d7a1b8bE, symObjAddr: 0x438, symBinAddr: 0x24394, symSize: 0x40 }
  - { offset: 0x66921, size: 0x8, addend: 0x0, symName: __ZN9hashbrown7control5group4neon5Group9match_tag17h8fb5cd4149056169E, symObjAddr: 0x478, symBinAddr: 0x243D4, symSize: 0x7C }
  - { offset: 0x6696F, size: 0x8, addend: 0x0, symName: __ZN9hashbrown7control5group4neon5Group9match_tag17head5a1afa15a470fE, symObjAddr: 0x4F4, symBinAddr: 0x24450, symSize: 0x7C }
  - { offset: 0x669EF, size: 0x8, addend: 0x0, symName: '__ZN105_$LT$core..iter..adapters..step_by..StepBy$LT$I$GT$$u20$as$u20$core..iter..traits..iterator..Iterator$GT$4next17h03fe2243b8fc7d1eE', symObjAddr: 0x0, symBinAddr: 0x244CC, symSize: 0x24 }
  - { offset: 0x66A15, size: 0x8, addend: 0x0, symName: '__ZN105_$LT$core..iter..adapters..step_by..StepBy$LT$I$GT$$u20$as$u20$core..iter..traits..iterator..Iterator$GT$4next17h03fe2243b8fc7d1eE', symObjAddr: 0x0, symBinAddr: 0x244CC, symSize: 0x24 }
  - { offset: 0x66A92, size: 0x8, addend: 0x0, symName: '__ZN63_$LT$I$u20$as$u20$core..iter..traits..collect..IntoIterator$GT$9into_iter17he78bc34f6a3d7157E', symObjAddr: 0x24, symBinAddr: 0x244F0, symSize: 0x14 }
  - { offset: 0x66BAC, size: 0x8, addend: 0x0, symName: '__ZN4core3str6traits66_$LT$impl$u20$core..ops..index..Index$LT$I$GT$$u20$for$u20$str$GT$5index17hde4e8c9706ddc9f4E', symObjAddr: 0x0, symBinAddr: 0x24504, symSize: 0x44 }
  - { offset: 0x66BCD, size: 0x8, addend: 0x0, symName: '__ZN4core3str6traits66_$LT$impl$u20$core..ops..index..Index$LT$I$GT$$u20$for$u20$str$GT$5index17hde4e8c9706ddc9f4E', symObjAddr: 0x0, symBinAddr: 0x24504, symSize: 0x44 }
  - { offset: 0x66C91, size: 0x8, addend: 0x0, symName: __ZN4core4sync6atomic11atomic_load17h1a97f0bdb6778c47E, symObjAddr: 0x0, symBinAddr: 0x24548, symSize: 0xF8 }
  - { offset: 0x66CD7, size: 0x8, addend: 0x0, symName: __ZN4core4sync6atomic11atomic_load17h1a97f0bdb6778c47E, symObjAddr: 0x0, symBinAddr: 0x24548, symSize: 0xF8 }
  - { offset: 0x66D59, size: 0x8, addend: 0x0, symName: __ZN4pyo311type_object10PyTypeInfo11type_object17h2497fbea5d3f095aE, symObjAddr: 0x0, symBinAddr: 0x24640, symSize: 0x30 }
  - { offset: 0x66DFA, size: 0x8, addend: 0x0, symName: __ZN4pyo311type_object10PyTypeInfo11type_object17h2497fbea5d3f095aE, symObjAddr: 0x0, symBinAddr: 0x24640, symSize: 0x30 }
  - { offset: 0x66E50, size: 0x8, addend: 0x0, symName: '__ZN73_$LT$pyo3..types..any..PyAny$u20$as$u20$pyo3..type_object..PyTypeInfo$GT$15type_object_raw28_$u7b$$u7b$closure$u7d$$u7d$17hb0912cd068fa13b2E', symObjAddr: 0x30, symBinAddr: 0x24670, symSize: 0x18 }
  - { offset: 0x67141, size: 0x8, addend: 0x0, symName: '__ZN10rayon_core5latch17LatchRef$LT$L$GT$3new17h37aceb93fb939245E', symObjAddr: 0x0, symBinAddr: 0x24688, symSize: 0x14 }
  - { offset: 0x671C7, size: 0x8, addend: 0x0, symName: '__ZN80_$LT$rayon_core..latch..LatchRef$LT$L$GT$$u20$as$u20$core..ops..deref..Deref$GT$5deref17hf5114d615bda20dcE', symObjAddr: 0x14, symBinAddr: 0x2469C, symSize: 0x70 }
  - { offset: 0x67204, size: 0x8, addend: 0x0, symName: '__ZN81_$LT$rayon_core..latch..LatchRef$LT$L$GT$$u20$as$u20$rayon_core..latch..Latch$GT$3set17hc657c2abd1f9f632E', symObjAddr: 0x84, symBinAddr: 0x2470C, symSize: 0x78 }
  - { offset: 0x675E1, size: 0x8, addend: 0x0, symName: '__ZN10rayon_core5latch17LatchRef$LT$L$GT$3new17h37aceb93fb939245E', symObjAddr: 0x0, symBinAddr: 0x24688, symSize: 0x14 }
  - { offset: 0x67645, size: 0x8, addend: 0x0, symName: '__ZN4pyo35impl_7pyclass16lazy_type_object23LazyTypeObject$LT$T$GT$11get_or_init17hcc034c9a09029328E', symObjAddr: 0x0, symBinAddr: 0x24784, symSize: 0x40 }
  - { offset: 0x67792, size: 0x8, addend: 0x0, symName: '__ZN4pyo35impl_7pyclass16lazy_type_object23LazyTypeObject$LT$T$GT$11get_or_init28_$u7b$$u7b$closure$u7d$$u7d$17hbc3c6af3eab39941E', symObjAddr: 0x40, symBinAddr: 0x247C4, symSize: 0xA8 }
  - { offset: 0x690ED, size: 0x8, addend: 0x0, symName: '__ZN4pyo35impl_7pyclass16lazy_type_object23LazyTypeObject$LT$T$GT$11get_or_init17hcc034c9a09029328E', symObjAddr: 0x0, symBinAddr: 0x24784, symSize: 0x40 }
  - { offset: 0x69131, size: 0x8, addend: 0x0, symName: '__ZN4pyo35impl_7pyclass16lazy_type_object23LazyTypeObject$LT$T$GT$15get_or_try_init17h6081df32fca36524E', symObjAddr: 0xE8, symBinAddr: 0x2486C, symSize: 0x58 }
  - { offset: 0x69287, size: 0x8, addend: 0x0, symName: __ZN3std4sync6poison10map_result17h33b565d2f481c77cE, symObjAddr: 0x0, symBinAddr: 0x248C4, symSize: 0xC4 }
  - { offset: 0x694FB, size: 0x8, addend: 0x0, symName: __ZN3std4sync6poison10map_result17h33b565d2f481c77cE, symObjAddr: 0x0, symBinAddr: 0x248C4, symSize: 0xC4 }
  - { offset: 0x6958F, size: 0x8, addend: 0x0, symName: __ZN3std4sync6poison10map_result17hbf143985903905fdE, symObjAddr: 0xC4, symBinAddr: 0x24988, symSize: 0xC4 }
  - { offset: 0x69623, size: 0x8, addend: 0x0, symName: __ZN3std4sync6poison10map_result17hf84d29dd269e4dc2E, symObjAddr: 0x188, symBinAddr: 0x24A4C, symSize: 0x6C }
  - { offset: 0x696BC, size: 0x8, addend: 0x0, symName: '__ZN76_$LT$std..sync..poison..PoisonError$LT$T$GT$$u20$as$u20$core..fmt..Debug$GT$3fmt17h7febe7993117c79dE', symObjAddr: 0x1F4, symBinAddr: 0x24AB8, symSize: 0x50 }
  - { offset: 0x696FF, size: 0x8, addend: 0x0, symName: '__ZN76_$LT$std..sync..poison..PoisonError$LT$T$GT$$u20$as$u20$core..fmt..Debug$GT$3fmt17hff6b76d9cc2cb347E', symObjAddr: 0x244, symBinAddr: 0x24B08, symSize: 0x50 }
  - { offset: 0x6A705, size: 0x8, addend: 0x0, symName: '__ZN119_$LT$pyo3..instance..Bound$LT$pyo3..types..typeobject..PyType$GT$$u20$as$u20$pyo3..types..typeobject..PyTypeMethods$GT$11as_type_ptr17h76ca2690ff06f23cE', symObjAddr: 0x0, symBinAddr: 0x24B58, symSize: 0x24 }
  - { offset: 0x6A7AB, size: 0x8, addend: 0x0, symName: '__ZN119_$LT$pyo3..instance..Bound$LT$pyo3..types..typeobject..PyType$GT$$u20$as$u20$pyo3..types..typeobject..PyTypeMethods$GT$11as_type_ptr17h76ca2690ff06f23cE', symObjAddr: 0x0, symBinAddr: 0x24B58, symSize: 0x24 }
  - { offset: 0x6A7F8, size: 0x8, addend: 0x0, symName: '__ZN123_$LT$pyo3..instance..Bound$LT$pyo3..types..sequence..PySequence$GT$$u20$as$u20$pyo3..types..sequence..PySequenceMethods$GT$3len17h9d8db7ad6de97c16E', symObjAddr: 0x24, symBinAddr: 0x24B7C, symSize: 0xD4 }
  - { offset: 0x6A882, size: 0x8, addend: 0x0, symName: '__ZN4pyo35types8iterator131_$LT$impl$u20$core..iter..traits..iterator..Iterator$u20$for$u20$pyo3..instance..Bound$LT$pyo3..types..iterator..PyIterator$GT$$GT$4next17hf5a7d6842a72cc31E', symObjAddr: 0xF8, symBinAddr: 0x24C50, symSize: 0x30 }
  - { offset: 0x6B428, size: 0x8, addend: 0x0, symName: '__ZN4pyo38instance36Bound$LT$pyo3..types..any..PyAny$GT$14from_owned_ptr17hf9f2da0fc43d844cE', symObjAddr: 0x128, symBinAddr: 0x24C80, symSize: 0x2C }
  - { offset: 0x6B477, size: 0x8, addend: 0x0, symName: '__ZN4pyo38instance39Borrowed$LT$pyo3..types..any..PyAny$GT$15from_ptr_or_opt17hab6e6b08b920aa9eE', symObjAddr: 0x154, symBinAddr: 0x24CAC, symSize: 0x2C }
  - { offset: 0x6B4B5, size: 0x8, addend: 0x0, symName: '__ZN4pyo38instance39Borrowed$LT$pyo3..types..any..PyAny$GT$18from_ptr_unchecked17h6af20f9677ba5958E', symObjAddr: 0x180, symBinAddr: 0x24CD8, symSize: 0x2C }
  - { offset: 0x6B4F3, size: 0x8, addend: 0x0, symName: '__ZN4pyo38instance39Borrowed$LT$pyo3..types..any..PyAny$GT$8from_ptr17hf940dde78a71cffdE', symObjAddr: 0x1AC, symBinAddr: 0x24D04, symSize: 0x34 }
  - { offset: 0x6B77C, size: 0x8, addend: 0x0, symName: '__ZN115_$LT$core..panic..unwind_safe..AssertUnwindSafe$LT$F$GT$$u20$as$u20$core..ops..function..FnOnce$LT$$LP$$RP$$GT$$GT$9call_once17h225adc45d8e1cbb3E', symObjAddr: 0x0, symBinAddr: 0x24D38, symSize: 0x40 }
  - { offset: 0x6BB3A, size: 0x8, addend: 0x0, symName: '__ZN115_$LT$core..panic..unwind_safe..AssertUnwindSafe$LT$F$GT$$u20$as$u20$core..ops..function..FnOnce$LT$$LP$$RP$$GT$$GT$9call_once17h225adc45d8e1cbb3E', symObjAddr: 0x0, symBinAddr: 0x24D38, symSize: 0x40 }
  - { offset: 0x6BB96, size: 0x8, addend: 0x0, symName: '__ZN115_$LT$core..panic..unwind_safe..AssertUnwindSafe$LT$F$GT$$u20$as$u20$core..ops..function..FnOnce$LT$$LP$$RP$$GT$$GT$9call_once17h4d06634c7b5ee82bE', symObjAddr: 0x40, symBinAddr: 0x24D78, symSize: 0x40 }
  - { offset: 0x6BBF2, size: 0x8, addend: 0x0, symName: '__ZN115_$LT$core..panic..unwind_safe..AssertUnwindSafe$LT$F$GT$$u20$as$u20$core..ops..function..FnOnce$LT$$LP$$RP$$GT$$GT$9call_once17h618a841836f7c0b9E', symObjAddr: 0x80, symBinAddr: 0x24DB8, symSize: 0x40 }
  - { offset: 0x6BC4E, size: 0x8, addend: 0x0, symName: '__ZN115_$LT$core..panic..unwind_safe..AssertUnwindSafe$LT$F$GT$$u20$as$u20$core..ops..function..FnOnce$LT$$LP$$RP$$GT$$GT$9call_once17h66c92e02867200f4E', symObjAddr: 0xC0, symBinAddr: 0x24DF8, symSize: 0x40 }
  - { offset: 0x6BCAA, size: 0x8, addend: 0x0, symName: '__ZN115_$LT$core..panic..unwind_safe..AssertUnwindSafe$LT$F$GT$$u20$as$u20$core..ops..function..FnOnce$LT$$LP$$RP$$GT$$GT$9call_once17h80f34099ae0fd7b8E', symObjAddr: 0x100, symBinAddr: 0x24E38, symSize: 0x40 }
  - { offset: 0x6BD06, size: 0x8, addend: 0x0, symName: '__ZN115_$LT$core..panic..unwind_safe..AssertUnwindSafe$LT$F$GT$$u20$as$u20$core..ops..function..FnOnce$LT$$LP$$RP$$GT$$GT$9call_once17h861ad631af1422daE', symObjAddr: 0x140, symBinAddr: 0x24E78, symSize: 0x40 }
  - { offset: 0x6BD62, size: 0x8, addend: 0x0, symName: '__ZN115_$LT$core..panic..unwind_safe..AssertUnwindSafe$LT$F$GT$$u20$as$u20$core..ops..function..FnOnce$LT$$LP$$RP$$GT$$GT$9call_once17hd45ee735aa2cbe09E', symObjAddr: 0x180, symBinAddr: 0x24EB8, symSize: 0x40 }
  - { offset: 0x6BDBE, size: 0x8, addend: 0x0, symName: '__ZN115_$LT$core..panic..unwind_safe..AssertUnwindSafe$LT$F$GT$$u20$as$u20$core..ops..function..FnOnce$LT$$LP$$RP$$GT$$GT$9call_once17hd4d74ef3fb2ed589E', symObjAddr: 0x1C0, symBinAddr: 0x24EF8, symSize: 0x40 }
  - { offset: 0x6CDCB, size: 0x8, addend: 0x0, symName: '__ZN102_$LT$pyo3..internal..get_slot..Slot$LT$74_i32$GT$$u20$as$u20$pyo3..internal..get_slot..GetSlotImpl$GT$8get_slot17h281308a49cf02d7bE', symObjAddr: 0x0, symBinAddr: 0x24F38, symSize: 0x7C }
  - { offset: 0x6CE7E, size: 0x8, addend: 0x0, symName: '__ZN102_$LT$pyo3..internal..get_slot..Slot$LT$74_i32$GT$$u20$as$u20$pyo3..internal..get_slot..GetSlotImpl$GT$8get_slot17h281308a49cf02d7bE', symObjAddr: 0x0, symBinAddr: 0x24F38, symSize: 0x7C }
  - { offset: 0x6CF57, size: 0x8, addend: 0x0, symName: __ZN10serde_core2de9MapAccess10next_entry17h7889cbeb1b0fd94dE, symObjAddr: 0x0, symBinAddr: 0x24FB4, symSize: 0x24 }
  - { offset: 0x6D1D8, size: 0x8, addend: 0x0, symName: __ZN10serde_core2de9MapAccess10next_entry17h7889cbeb1b0fd94dE, symObjAddr: 0x0, symBinAddr: 0x24FB4, symSize: 0x24 }
  - { offset: 0x6D221, size: 0x8, addend: 0x0, symName: __ZN10serde_core2de9MapAccess10next_value17h3e247c965e398483E, symObjAddr: 0x24, symBinAddr: 0x24FD8, symSize: 0x24 }
  - { offset: 0x6D261, size: 0x8, addend: 0x0, symName: __ZN10serde_core2de9MapAccess15next_entry_seed17hd5e6c89300dde8b5E, symObjAddr: 0x48, symBinAddr: 0x24FFC, symSize: 0x20C }
  - { offset: 0x6D33E, size: 0x8, addend: 0x0, symName: __ZN10serde_core2de9SeqAccess12next_element17h15efc5c1d813f15fE, symObjAddr: 0x254, symBinAddr: 0x25208, symSize: 0x24 }
  - { offset: 0x6D399, size: 0x8, addend: 0x0, symName: __ZN10serde_json2de10from_slice17hf5917092a63d8bcaE, symObjAddr: 0x278, symBinAddr: 0x2522C, symSize: 0x40 }
  - { offset: 0x6D3D0, size: 0x8, addend: 0x0, symName: __ZN10serde_json2de10from_trait17h723db116c45820b2E, symObjAddr: 0x2B8, symBinAddr: 0x2526C, symSize: 0x18C }
  - { offset: 0x6D886, size: 0x8, addend: 0x0, symName: '__ZN10serde_json2de21Deserializer$LT$R$GT$12fix_position28_$u7b$$u7b$closure$u7d$$u7d$17hc7d7a6151561081fE', symObjAddr: 0x684, symBinAddr: 0x25550, symSize: 0x3C }
  - { offset: 0x6D959, size: 0x8, addend: 0x0, symName: '__ZN80_$LT$serde_json..de..MapAccess$LT$R$GT$$u20$as$u20$serde_core..de..MapAccess$GT$13next_key_seed12has_next_key17h5c3b9e4d4edc9a71E', symObjAddr: 0x209C, symBinAddr: 0x26AE0, symSize: 0x2A4 }
  - { offset: 0x6D9E3, size: 0x8, addend: 0x0, symName: '__ZN80_$LT$serde_json..de..MapAccess$LT$R$GT$$u20$as$u20$serde_core..de..MapAccess$GT$13next_key_seed17h0c38f2aee21d1f16E', symObjAddr: 0x2340, symBinAddr: 0x26D84, symSize: 0x170 }
  - { offset: 0x6DA6E, size: 0x8, addend: 0x0, symName: '__ZN80_$LT$serde_json..de..MapAccess$LT$R$GT$$u20$as$u20$serde_core..de..MapAccess$GT$13next_key_seed17haf9a3067948c8106E', symObjAddr: 0x24B0, symBinAddr: 0x26EF4, symSize: 0x170 }
  - { offset: 0x6DAF9, size: 0x8, addend: 0x0, symName: '__ZN80_$LT$serde_json..de..MapAccess$LT$R$GT$$u20$as$u20$serde_core..de..MapAccess$GT$15next_value_seed17h39b548c3be113758E', symObjAddr: 0x2620, symBinAddr: 0x27064, symSize: 0xC0 }
  - { offset: 0x6DB6C, size: 0x8, addend: 0x0, symName: '__ZN80_$LT$serde_json..de..MapKey$LT$R$GT$$u20$as$u20$serde_core..de..Deserializer$GT$15deserialize_any17h103b840bd4c04f9dE', symObjAddr: 0x26E0, symBinAddr: 0x27124, symSize: 0x11C }
  - { offset: 0x6DC0E, size: 0x8, addend: 0x0, symName: '__ZN80_$LT$serde_json..de..MapKey$LT$R$GT$$u20$as$u20$serde_core..de..Deserializer$GT$15deserialize_any17hf569a6fdf9046178E', symObjAddr: 0x27FC, symBinAddr: 0x27240, symSize: 0x11C }
  - { offset: 0x6DCB0, size: 0x8, addend: 0x0, symName: '__ZN80_$LT$serde_json..de..MapKey$LT$R$GT$$u20$as$u20$serde_core..de..Deserializer$GT$15deserialize_str17ha8789ef392a7aeb1E', symObjAddr: 0x2918, symBinAddr: 0x2735C, symSize: 0x24 }
  - { offset: 0x6DCFC, size: 0x8, addend: 0x0, symName: '__ZN80_$LT$serde_json..de..MapKey$LT$R$GT$$u20$as$u20$serde_core..de..Deserializer$GT$18deserialize_string17h47857827c5fb57c7E', symObjAddr: 0x293C, symBinAddr: 0x27380, symSize: 0x24 }
  - { offset: 0x6DD53, size: 0x8, addend: 0x0, symName: '__ZN80_$LT$serde_json..de..SeqAccess$LT$R$GT$$u20$as$u20$serde_core..de..SeqAccess$GT$17next_element_seed16has_next_element17haf06d72d51930308E', symObjAddr: 0x2960, symBinAddr: 0x273A4, symSize: 0x220 }
  - { offset: 0x6DDDD, size: 0x8, addend: 0x0, symName: '__ZN80_$LT$serde_json..de..SeqAccess$LT$R$GT$$u20$as$u20$serde_core..de..SeqAccess$GT$17next_element_seed17h34ac9566d2ae8c6fE', symObjAddr: 0x2B80, symBinAddr: 0x275C4, symSize: 0x16C }
  - { offset: 0x6DE6E, size: 0x8, addend: 0x0, symName: '__ZN98_$LT$$RF$mut$u20$serde_json..de..Deserializer$LT$R$GT$$u20$as$u20$serde_core..de..Deserializer$GT$15deserialize_any17hc3b4b74182c385e5E', symObjAddr: 0x2CEC, symBinAddr: 0x27730, symSize: 0xBA8 }
  - { offset: 0x6F63E, size: 0x8, addend: 0x0, symName: '__ZN10serde_json2de18MapAccess$LT$R$GT$3new17h7cd0281442b4c1acE', symObjAddr: 0x444, symBinAddr: 0x253F8, symSize: 0x1C }
  - { offset: 0x6F66A, size: 0x8, addend: 0x0, symName: '__ZN10serde_json2de18SeqAccess$LT$R$GT$3new17h43db458654d33024E', symObjAddr: 0x460, symBinAddr: 0x25414, symSize: 0x1C }
  - { offset: 0x6F777, size: 0x8, addend: 0x0, symName: '__ZN10serde_json2de21Deserializer$LT$R$GT$10peek_error17hc1e005edfbaa1e70E', symObjAddr: 0x47C, symBinAddr: 0xFE5A4, symSize: 0xB0 }
  - { offset: 0x6F7CE, size: 0x8, addend: 0x0, symName: '__ZN10serde_json2de21Deserializer$LT$R$GT$11parse_ident17h3a8cbd4b6887f85aE', symObjAddr: 0x52C, symBinAddr: 0x25430, symSize: 0x120 }
  - { offset: 0x6F869, size: 0x8, addend: 0x0, symName: '__ZN10serde_json2de21Deserializer$LT$R$GT$12fix_position17hfff72e820f8f896aE', symObjAddr: 0x64C, symBinAddr: 0xFE654, symSize: 0x38 }
  - { offset: 0x6F8B2, size: 0x8, addend: 0x0, symName: '__ZN10serde_json2de21Deserializer$LT$R$GT$12parse_number17hdaaf9fd0237a07b4E', symObjAddr: 0x6C0, symBinAddr: 0x2558C, symSize: 0x1C4 }
  - { offset: 0x6F9A2, size: 0x8, addend: 0x0, symName: '__ZN10serde_json2de21Deserializer$LT$R$GT$12peek_or_null17had0062dca4cb137bE', symObjAddr: 0x884, symBinAddr: 0x25750, symSize: 0x88 }
  - { offset: 0x6F9EB, size: 0x8, addend: 0x0, symName: '__ZN10serde_json2de21Deserializer$LT$R$GT$13parse_decimal17hb41fb57c89e50b16E', symObjAddr: 0x90C, symBinAddr: 0x257D8, symSize: 0x3B0 }
  - { offset: 0x6FB31, size: 0x8, addend: 0x0, symName: '__ZN10serde_json2de21Deserializer$LT$R$GT$13parse_integer17hb57dfc5fffb3f413E', symObjAddr: 0xCBC, symBinAddr: 0x25B88, symSize: 0x3D8 }
  - { offset: 0x6FC76, size: 0x8, addend: 0x0, symName: '__ZN10serde_json2de21Deserializer$LT$R$GT$14f64_from_parts17h7c637ac002dd89f3E', symObjAddr: 0x1094, symBinAddr: 0x25F60, symSize: 0x1C8 }
  - { offset: 0x6FCFB, size: 0x8, addend: 0x0, symName: '__ZN10serde_json2de21Deserializer$LT$R$GT$14parse_exponent17h5e761c890106742dE', symObjAddr: 0x125C, symBinAddr: 0x26128, symSize: 0x444 }
  - { offset: 0x6FEDC, size: 0x8, addend: 0x0, symName: '__ZN10serde_json2de21Deserializer$LT$R$GT$16parse_any_number17h4db79c258d5a7fffE', symObjAddr: 0x16A0, symBinAddr: 0x2656C, symSize: 0x28 }
  - { offset: 0x6FF17, size: 0x8, addend: 0x0, symName: '__ZN10serde_json2de21Deserializer$LT$R$GT$16parse_whitespace17h30d0d04645f138c8E', symObjAddr: 0x16C8, symBinAddr: 0x26594, symSize: 0xEC }
  - { offset: 0x6FF7E, size: 0x8, addend: 0x0, symName: '__ZN10serde_json2de21Deserializer$LT$R$GT$18parse_long_integer17he8d83e642af83871E', symObjAddr: 0x17B4, symBinAddr: 0xFE68C, symSize: 0x178 }
  - { offset: 0x6FFFC, size: 0x8, addend: 0x0, symName: '__ZN10serde_json2de21Deserializer$LT$R$GT$18parse_object_colon17hc82a857113865832E', symObjAddr: 0x192C, symBinAddr: 0x26680, symSize: 0xC8 }
  - { offset: 0x70046, size: 0x8, addend: 0x0, symName: '__ZN10serde_json2de21Deserializer$LT$R$GT$22parse_decimal_overflow17h429b35b575007f04E', symObjAddr: 0x19F4, symBinAddr: 0xFE804, symSize: 0x140 }
  - { offset: 0x700DB, size: 0x8, addend: 0x0, symName: '__ZN10serde_json2de21Deserializer$LT$R$GT$23parse_exponent_overflow17h9659dbdc830c9623E', symObjAddr: 0x1B34, symBinAddr: 0xFE944, symSize: 0x120 }
  - { offset: 0x70152, size: 0x8, addend: 0x0, symName: '__ZN10serde_json2de21Deserializer$LT$R$GT$3end17he7a5c2199c947d79E', symObjAddr: 0x1C54, symBinAddr: 0x26748, symSize: 0x98 }
  - { offset: 0x7019B, size: 0x8, addend: 0x0, symName: '__ZN10serde_json2de21Deserializer$LT$R$GT$4peek17h37f63dbd2cbb7256E', symObjAddr: 0x1CEC, symBinAddr: 0x267E0, symSize: 0x24 }
  - { offset: 0x701C6, size: 0x8, addend: 0x0, symName: '__ZN10serde_json2de21Deserializer$LT$R$GT$5error17h62470522d190b680E', symObjAddr: 0x1D10, symBinAddr: 0xFEA64, symSize: 0xB0 }
  - { offset: 0x7021D, size: 0x8, addend: 0x0, symName: '__ZN10serde_json2de21Deserializer$LT$R$GT$7end_map17hf418cc575c3677b5E', symObjAddr: 0x1DC0, symBinAddr: 0x26804, symSize: 0xF8 }
  - { offset: 0x70267, size: 0x8, addend: 0x0, symName: '__ZN10serde_json2de21Deserializer$LT$R$GT$7end_seq17h6c0dcd1acbc5cb8dE', symObjAddr: 0x1EB8, symBinAddr: 0x268FC, symSize: 0x19C }
  - { offset: 0x702B1, size: 0x8, addend: 0x0, symName: '__ZN10serde_json2de21Deserializer$LT$R$GT$8eat_char17h378483b97cb29940E', symObjAddr: 0x2054, symBinAddr: 0x26A98, symSize: 0x24 }
  - { offset: 0x702DC, size: 0x8, addend: 0x0, symName: '__ZN10serde_json2de21Deserializer$LT$R$GT$9next_char17hbebd8bec415f4d50E', symObjAddr: 0x2078, symBinAddr: 0x26ABC, symSize: 0x24 }
  - { offset: 0x703DD, size: 0x8, addend: 0x0, symName: '__ZN12flash_expert5cache11ExpertCache11get_or_load28_$u7b$$u7b$closure$u7d$$u7d$17hc24ea211a084e0b9E', symObjAddr: 0x0, symBinAddr: 0x282D8, symSize: 0x50 }
  - { offset: 0x7077D, size: 0x8, addend: 0x0, symName: '__ZN12flash_expert5cache11ExpertCache11get_or_load28_$u7b$$u7b$closure$u7d$$u7d$17hc24ea211a084e0b9E', symObjAddr: 0x0, symBinAddr: 0x282D8, symSize: 0x50 }
  - { offset: 0x708B2, size: 0x8, addend: 0x0, symName: __ZN4core5slice6memchr6memchr17hdf9647a66149d752E, symObjAddr: 0x0, symBinAddr: 0x28328, symSize: 0x114 }
  - { offset: 0x70903, size: 0x8, addend: 0x0, symName: __ZN4core5slice6memchr6memchr17hdf9647a66149d752E, symObjAddr: 0x0, symBinAddr: 0x28328, symSize: 0x114 }
  - { offset: 0x70A31, size: 0x8, addend: 0x0, symName: __ZN3std5panic12catch_unwind17h00303e0f48c883d2E, symObjAddr: 0x0, symBinAddr: 0x2843C, symSize: 0x118 }
  - { offset: 0x7154B, size: 0x8, addend: 0x0, symName: __ZN3std5panic12catch_unwind17h00303e0f48c883d2E, symObjAddr: 0x0, symBinAddr: 0x2843C, symSize: 0x118 }
  - { offset: 0x716A7, size: 0x8, addend: 0x0, symName: __ZN3std5panic12catch_unwind17h0036aae61b1b23d7E, symObjAddr: 0x118, symBinAddr: 0x28554, symSize: 0xF8 }
  - { offset: 0x71801, size: 0x8, addend: 0x0, symName: __ZN3std5panic12catch_unwind17h0c1d1f1978c5428eE, symObjAddr: 0x210, symBinAddr: 0x2864C, symSize: 0x104 }
  - { offset: 0x7195C, size: 0x8, addend: 0x0, symName: __ZN3std5panic12catch_unwind17h11718fe355c4f678E, symObjAddr: 0x314, symBinAddr: 0x28750, symSize: 0x104 }
  - { offset: 0x71AB7, size: 0x8, addend: 0x0, symName: __ZN3std5panic12catch_unwind17h18584ac40919c32cE, symObjAddr: 0x418, symBinAddr: 0x28854, symSize: 0x118 }
  - { offset: 0x71C13, size: 0x8, addend: 0x0, symName: __ZN3std5panic12catch_unwind17h1a61f929fe103a2eE, symObjAddr: 0x530, symBinAddr: 0x2896C, symSize: 0x118 }
  - { offset: 0x71D6F, size: 0x8, addend: 0x0, symName: __ZN3std5panic12catch_unwind17h3fadbcb966556e9cE, symObjAddr: 0x648, symBinAddr: 0x28A84, symSize: 0x10C }
  - { offset: 0x71ECB, size: 0x8, addend: 0x0, symName: __ZN3std5panic12catch_unwind17h4449a7d4cea61c83E, symObjAddr: 0x754, symBinAddr: 0x28B90, symSize: 0x104 }
  - { offset: 0x72026, size: 0x8, addend: 0x0, symName: __ZN3std5panic12catch_unwind17h4b351490fa34c363E, symObjAddr: 0x858, symBinAddr: 0x28C94, symSize: 0xD4 }
  - { offset: 0x7214B, size: 0x8, addend: 0x0, symName: __ZN3std5panic12catch_unwind17ha3c38fbe7a4696e7E, symObjAddr: 0x92C, symBinAddr: 0x28D68, symSize: 0xE4 }
  - { offset: 0x72270, size: 0x8, addend: 0x0, symName: __ZN3std5panic12catch_unwind17hb6b8d22d8a09b0feE, symObjAddr: 0xA10, symBinAddr: 0x28E4C, symSize: 0x118 }
  - { offset: 0x723CC, size: 0x8, addend: 0x0, symName: __ZN3std5panic12catch_unwind17hbd5ebe3490893941E, symObjAddr: 0xB28, symBinAddr: 0x28F64, symSize: 0x104 }
  - { offset: 0x72527, size: 0x8, addend: 0x0, symName: __ZN3std5panic12catch_unwind17hfa9c2d8db9a26f7fE, symObjAddr: 0xC2C, symBinAddr: 0x29068, symSize: 0xE4 }
  - { offset: 0x754C2, size: 0x8, addend: 0x0, symName: '__ZN86_$LT$core..marker..PhantomData$LT$T$GT$$u20$as$u20$serde_core..de..DeserializeSeed$GT$11deserialize17h63efdac6c1549682E', symObjAddr: 0x0, symBinAddr: 0x291A0, symSize: 0x24 }
  - { offset: 0x75743, size: 0x8, addend: 0x0, symName: '__ZN86_$LT$core..marker..PhantomData$LT$T$GT$$u20$as$u20$serde_core..de..DeserializeSeed$GT$11deserialize17h63efdac6c1549682E', symObjAddr: 0x0, symBinAddr: 0x291A0, symSize: 0x24 }
  - { offset: 0x7579E, size: 0x8, addend: 0x0, symName: '__ZN86_$LT$core..marker..PhantomData$LT$T$GT$$u20$as$u20$serde_core..de..DeserializeSeed$GT$11deserialize17hde40dd55e007ea64E', symObjAddr: 0x24, symBinAddr: 0x291C4, symSize: 0x24 }
  - { offset: 0x7664E, size: 0x8, addend: 0x0, symName: '__ZN10serde_core3ser10Serializer11collect_seq28_$u7b$$u7b$closure$u7d$$u7d$17h35c8fd2a7fd67494E', symObjAddr: 0x0, symBinAddr: 0x291E8, symSize: 0x58 }
  - { offset: 0x76E98, size: 0x8, addend: 0x0, symName: '__ZN10serde_core3ser10Serializer11collect_seq28_$u7b$$u7b$closure$u7d$$u7d$17h35c8fd2a7fd67494E', symObjAddr: 0x0, symBinAddr: 0x291E8, symSize: 0x58 }
  - { offset: 0x76EEA, size: 0x8, addend: 0x0, symName: '__ZN10serde_core3ser10Serializer11collect_seq28_$u7b$$u7b$closure$u7d$$u7d$17ha4f8c386530329bcE', symObjAddr: 0x58, symBinAddr: 0x29240, symSize: 0x58 }
  - { offset: 0x76F3C, size: 0x8, addend: 0x0, symName: '__ZN10serde_core3ser10Serializer11collect_seq28_$u7b$$u7b$closure$u7d$$u7d$17hb6b130e953c10e4aE', symObjAddr: 0xB0, symBinAddr: 0x29298, symSize: 0x58 }
  - { offset: 0x76F8E, size: 0x8, addend: 0x0, symName: '__ZN10serde_core3ser10Serializer11collect_seq28_$u7b$$u7b$closure$u7d$$u7d$17hcb25b1d9da02e6d1E', symObjAddr: 0x108, symBinAddr: 0x292F0, symSize: 0x58 }
  - { offset: 0x76FE2, size: 0x8, addend: 0x0, symName: __ZN10serde_core3ser17iterator_len_hint17hc0eb05484402c535E, symObjAddr: 0x160, symBinAddr: 0x29348, symSize: 0x8C }
  - { offset: 0x77B0A, size: 0x8, addend: 0x0, symName: __ZN4core4sync6atomic10AtomicBool3new17haccc65c4bd9d5288E, symObjAddr: 0x0, symBinAddr: 0x293D4, symSize: 0x18 }
  - { offset: 0x77C57, size: 0x8, addend: 0x0, symName: __ZN4core4sync6atomic5fence17hecc9539d2b300fb0E, symObjAddr: 0x180, symBinAddr: 0x29554, symSize: 0xB0 }
  - { offset: 0x77E0E, size: 0x8, addend: 0x0, symName: __ZN4core4sync6atomic10AtomicBool3new17haccc65c4bd9d5288E, symObjAddr: 0x0, symBinAddr: 0x293D4, symSize: 0x18 }
  - { offset: 0x77E3E, size: 0x8, addend: 0x0, symName: __ZN4core4sync6atomic10AtomicBool4load17hb1204f127ed0c5f4E, symObjAddr: 0x18, symBinAddr: 0x293EC, symSize: 0x2C }
  - { offset: 0x77E70, size: 0x8, addend: 0x0, symName: __ZN4core4sync6atomic10AtomicBool5store17h1254a88b4a3c0565E, symObjAddr: 0x44, symBinAddr: 0x29418, symSize: 0x28 }
  - { offset: 0x77EB8, size: 0x8, addend: 0x0, symName: __ZN4core4sync6atomic11AtomicUsize3new17hbeda38cf0d380850E, symObjAddr: 0x6C, symBinAddr: 0x29440, symSize: 0x18 }
  - { offset: 0x77EE8, size: 0x8, addend: 0x0, symName: __ZN4core4sync6atomic11AtomicUsize4load17h122ea99c8553c5fcE, symObjAddr: 0x84, symBinAddr: 0x29458, symSize: 0x24 }
  - { offset: 0x77F50, size: 0x8, addend: 0x0, symName: __ZN4core4sync6atomic11AtomicUsize4swap17h075982ec9c5c9d70E, symObjAddr: 0xA8, symBinAddr: 0x2947C, symSize: 0xD8 }
  - { offset: 0x77FEB, size: 0x8, addend: 0x0, symName: __ZN4core4sync6atomic8AtomicU84load17h09638e98cb6328e0E, symObjAddr: 0x230, symBinAddr: 0x29604, symSize: 0x24 }
  - { offset: 0x78024, size: 0x8, addend: 0x0, symName: __ZN4core4sync6atomic9AtomicU643new17hecb29042c1222bf0E, symObjAddr: 0x254, symBinAddr: 0x29628, symSize: 0x18 }
  - { offset: 0x78054, size: 0x8, addend: 0x0, symName: __ZN4core4sync6atomic9AtomicU644load17h61923f2de407b10aE, symObjAddr: 0x26C, symBinAddr: 0x29640, symSize: 0x24 }
  - { offset: 0x780BC, size: 0x8, addend: 0x0, symName: __ZN4core4sync6atomic9AtomicU649fetch_add17h3fc72285b5069efcE, symObjAddr: 0x290, symBinAddr: 0x29664, symSize: 0xD8 }
  - { offset: 0x78168, size: 0x8, addend: 0x0, symName: __ZN4core3cmp3Ord3max17h34da83581da3de72E, symObjAddr: 0x0, symBinAddr: 0x2973C, symSize: 0x74 }
  - { offset: 0x781BA, size: 0x8, addend: 0x0, symName: __ZN4core3cmp3Ord3max17h34da83581da3de72E, symObjAddr: 0x0, symBinAddr: 0x2973C, symSize: 0x74 }
  - { offset: 0x78262, size: 0x8, addend: 0x0, symName: __ZN4zmij6Buffer3new17h6669781c05303293E, symObjAddr: 0x0, symBinAddr: 0x297B0, symSize: 0x20 }
  - { offset: 0x7833D, size: 0x8, addend: 0x0, symName: __ZN4zmij6Buffer3new17h6669781c05303293E, symObjAddr: 0x0, symBinAddr: 0x297B0, symSize: 0x20 }
  - { offset: 0x7838D, size: 0x8, addend: 0x0, symName: '__ZN4core5array4iter10iter_inner78PolymorphicIter$LT$$u5b$core..mem..maybe_uninit..MaybeUninit$LT$T$GT$$u5d$$GT$4next17h278622254048b01fE', symObjAddr: 0x0, symBinAddr: 0x297D0, symSize: 0x170 }
  - { offset: 0x7914F, size: 0x8, addend: 0x0, symName: '__ZN4core5array4iter10iter_inner78PolymorphicIter$LT$$u5b$core..mem..maybe_uninit..MaybeUninit$LT$T$GT$$u5d$$GT$4next17h278622254048b01fE', symObjAddr: 0x0, symBinAddr: 0x297D0, symSize: 0x170 }
  - { offset: 0x794CE, size: 0x8, addend: 0x0, symName: '__ZN4core5array4iter10iter_inner78PolymorphicIter$LT$$u5b$core..mem..maybe_uninit..MaybeUninit$LT$T$GT$$u5d$$GT$4next17ha63edb022df90f52E', symObjAddr: 0x170, symBinAddr: 0x29940, symSize: 0x170 }
  - { offset: 0x7982C, size: 0x8, addend: 0x0, symName: '__ZN4core5array4iter10iter_inner78PolymorphicIter$LT$$u5b$core..mem..maybe_uninit..MaybeUninit$LT$T$GT$$u5d$$GT$4next17hcb3a30d55a1f6041E', symObjAddr: 0x2E0, symBinAddr: 0x29AB0, symSize: 0x17C }
  - { offset: 0x79A7F, size: 0x8, addend: 0x0, symName: __ZN4core5slice4sort6shared9smallsort11insert_tail17h01a70a035c990f16E, symObjAddr: 0x0, symBinAddr: 0x29C2C, symSize: 0x1C4 }
  - { offset: 0x7B1FD, size: 0x8, addend: 0x0, symName: __ZN4core5slice4sort6shared9smallsort11insert_tail17h01a70a035c990f16E, symObjAddr: 0x0, symBinAddr: 0x29C2C, symSize: 0x1C4 }
  - { offset: 0x7B369, size: 0x8, addend: 0x0, symName: __ZN4core5slice4sort6shared9smallsort11insert_tail17h7d8d68a8d903ae39E, symObjAddr: 0x1C4, symBinAddr: 0x29DF0, symSize: 0x1D4 }
  - { offset: 0x7B4D7, size: 0x8, addend: 0x0, symName: __ZN4core5slice4sort6shared9smallsort11insert_tail17hef478212636e362aE, symObjAddr: 0x398, symBinAddr: 0x29FC4, symSize: 0x1C4 }
  - { offset: 0x7B643, size: 0x8, addend: 0x0, symName: __ZN4core5slice4sort6shared9smallsort12sort4_stable17h287460e07bae1856E, symObjAddr: 0x55C, symBinAddr: 0x2A188, symSize: 0x76C }
  - { offset: 0x7C908, size: 0x8, addend: 0x0, symName: __ZN4core5slice4sort6shared9smallsort12sort4_stable17ha78493bc40390307E, symObjAddr: 0xCC8, symBinAddr: 0x2A8F4, symSize: 0x750 }
  - { offset: 0x7DBCD, size: 0x8, addend: 0x0, symName: __ZN4core5slice4sort6shared9smallsort12sort4_stable17hffb3272fba178007E, symObjAddr: 0x1418, symBinAddr: 0x2B044, symSize: 0x768 }
  - { offset: 0x7EF76, size: 0x8, addend: 0x0, symName: __ZN4core5slice4sort6shared9smallsort19bidirectional_merge17h56ac5e9b046137d8E, symObjAddr: 0x1B80, symBinAddr: 0x2B7AC, symSize: 0x534 }
  - { offset: 0x7F6FD, size: 0x8, addend: 0x0, symName: __ZN4core5slice4sort6shared9smallsort19bidirectional_merge17h8385aa4832f3d7f8E, symObjAddr: 0x20B4, symBinAddr: 0x2BCE0, symSize: 0x500 }
  - { offset: 0x7FE84, size: 0x8, addend: 0x0, symName: __ZN4core5slice4sort6shared9smallsort19bidirectional_merge17hb420b3ca5450b00aE, symObjAddr: 0x25B4, symBinAddr: 0x2C1E0, symSize: 0x520 }
  - { offset: 0x80527, size: 0x8, addend: 0x0, symName: __ZN4core5slice4sort6shared9smallsort25insertion_sort_shift_left17h21404aef901a61aaE, symObjAddr: 0x2AD4, symBinAddr: 0x2C700, symSize: 0xCC }
  - { offset: 0x80661, size: 0x8, addend: 0x0, symName: __ZN4core5slice4sort6shared9smallsort25insertion_sort_shift_left17h5aa2f9687f3c7d49E, symObjAddr: 0x2BA0, symBinAddr: 0x2C7CC, symSize: 0xC0 }
  - { offset: 0x8079B, size: 0x8, addend: 0x0, symName: __ZN4core5slice4sort6shared9smallsort25insertion_sort_shift_left17ha066c531bc7e7832E, symObjAddr: 0x2C60, symBinAddr: 0x2C88C, symSize: 0xCC }
  - { offset: 0x808D5, size: 0x8, addend: 0x0, symName: __ZN4core5slice4sort6shared9smallsort31small_sort_general_with_scratch17h1697b5eeaf4e8e73E, symObjAddr: 0x2D2C, symBinAddr: 0x2C958, symSize: 0x488 }
  - { offset: 0x80D0D, size: 0x8, addend: 0x0, symName: __ZN4core5slice4sort6shared9smallsort31small_sort_general_with_scratch17he25510307c1b8a2eE, symObjAddr: 0x31B4, symBinAddr: 0x2CDE0, symSize: 0x4B8 }
  - { offset: 0x81145, size: 0x8, addend: 0x0, symName: __ZN4core5slice4sort6shared9smallsort31small_sort_general_with_scratch17hef8555894dc16458E, symObjAddr: 0x366C, symBinAddr: 0x2D298, symSize: 0x4B8 }
  - { offset: 0x82921, size: 0x8, addend: 0x0, symName: '__ZN10serde_core2de5impls79_$LT$impl$u20$serde_core..de..Deserialize$u20$for$u20$alloc..string..String$GT$11deserialize17hd1ddcd47cf111d9dE', symObjAddr: 0x0, symBinAddr: 0x2D750, symSize: 0x24 }
  - { offset: 0x82D8C, size: 0x8, addend: 0x0, symName: __ZN4core3cmp10PartialOrd2lt17h0f9e7e94cf7983b0E, symObjAddr: 0x2C4, symBinAddr: 0x2DA14, symSize: 0x70 }
  - { offset: 0x83272, size: 0x8, addend: 0x0, symName: '__ZN4core4hash5impls52_$LT$impl$u20$core..hash..Hash$u20$for$u20$$RF$T$GT$4hash17h5d52aa6145af3639E', symObjAddr: 0x334, symBinAddr: 0x2DA84, symSize: 0x30 }
  - { offset: 0x833F4, size: 0x8, addend: 0x0, symName: '__ZN4core5slice29_$LT$impl$u20$$u5b$T$u5d$$GT$12split_at_mut17h4f311f8bfb8f9495E', symObjAddr: 0x364, symBinAddr: 0x2DAB4, symSize: 0xAC }
  - { offset: 0x8348B, size: 0x8, addend: 0x0, symName: '__ZN4core5slice29_$LT$impl$u20$$u5b$T$u5d$$GT$12split_at_mut17hb725e91cf656f8c9E', symObjAddr: 0x410, symBinAddr: 0x2DB60, symSize: 0xAC }
  - { offset: 0x83516, size: 0x8, addend: 0x0, symName: '__ZN4core5slice29_$LT$impl$u20$$u5b$T$u5d$$GT$22split_at_mut_unchecked17h2a78c665123e3f7aE', symObjAddr: 0x4BC, symBinAddr: 0x2DC0C, symSize: 0xF8 }
  - { offset: 0x8364F, size: 0x8, addend: 0x0, symName: '__ZN4core5slice29_$LT$impl$u20$$u5b$T$u5d$$GT$22split_at_mut_unchecked17h9e3e22e9e4eaf199E', symObjAddr: 0x5B4, symBinAddr: 0x2DD04, symSize: 0xF8 }
  - { offset: 0x83761, size: 0x8, addend: 0x0, symName: '__ZN4core5slice29_$LT$impl$u20$$u5b$T$u5d$$GT$4iter17ha04a412377fd579aE', symObjAddr: 0x6AC, symBinAddr: 0x2DDFC, symSize: 0x28 }
  - { offset: 0x837E6, size: 0x8, addend: 0x0, symName: '__ZN4core5slice29_$LT$impl$u20$$u5b$T$u5d$$GT$7reverse17h5ef5a8172113c7ccE', symObjAddr: 0x6D4, symBinAddr: 0x2DE24, symSize: 0xFC }
  - { offset: 0x839C0, size: 0x8, addend: 0x0, symName: '__ZN4core5slice29_$LT$impl$u20$$u5b$T$u5d$$GT$7reverse17hc2c61999c58efb53E', symObjAddr: 0x7D0, symBinAddr: 0x2DF20, symSize: 0xFC }
  - { offset: 0x83CBF, size: 0x8, addend: 0x0, symName: '__ZN4core5slice4iter87_$LT$impl$u20$core..iter..traits..collect..IntoIterator$u20$for$u20$$RF$$u5b$T$u5d$$GT$9into_iter17h2ae064768e20f375E', symObjAddr: 0x8CC, symBinAddr: 0x2E01C, symSize: 0x58 }
  - { offset: 0x83DFC, size: 0x8, addend: 0x0, symName: '__ZN4core5slice4iter87_$LT$impl$u20$core..iter..traits..collect..IntoIterator$u20$for$u20$$RF$$u5b$T$u5d$$GT$9into_iter17h7f7229f28f253019E', symObjAddr: 0x924, symBinAddr: 0x2E074, symSize: 0x58 }
  - { offset: 0x83FA3, size: 0x8, addend: 0x0, symName: '__ZN68_$LT$T$u20$as$u20$core..slice..sort..stable..quicksort..IsFreeze$GT$9is_freeze17hb89007b61ef75113E', symObjAddr: 0xB34, symBinAddr: 0x2E284, symSize: 0xC }
  - { offset: 0x83FCA, size: 0x8, addend: 0x0, symName: '__ZN68_$LT$T$u20$as$u20$core..slice..sort..stable..quicksort..IsFreeze$GT$9is_freeze17hcf5089780847d4ccE', symObjAddr: 0xB40, symBinAddr: 0x2E290, symSize: 0xC }
  - { offset: 0x84586, size: 0x8, addend: 0x0, symName: '__ZN50_$LT$T$u20$as$u20$core..convert..Into$LT$U$GT$$GT$4into17h6ce74838b33fa631E', symObjAddr: 0x9D4, symBinAddr: 0x2E124, symSize: 0x14 }
  - { offset: 0x845CD, size: 0x8, addend: 0x0, symName: '__ZN55_$LT$$RF$T$u20$as$u20$core..convert..AsRef$LT$U$GT$$GT$6as_ref17h26edb7b9e3040defE', symObjAddr: 0xA28, symBinAddr: 0x2E178, symSize: 0x28 }
  - { offset: 0x84C27, size: 0x8, addend: 0x0, symName: '__ZN10serde_core2de5impls79_$LT$impl$u20$serde_core..de..Deserialize$u20$for$u20$alloc..string..String$GT$11deserialize17hd1ddcd47cf111d9dE', symObjAddr: 0x0, symBinAddr: 0x2D750, symSize: 0x24 }
  - { offset: 0x84C70, size: 0x8, addend: 0x0, symName: '__ZN10serde_core3ser5impls62_$LT$impl$u20$serde_core..ser..Serialize$u20$for$u20$$RF$T$GT$9serialize17h0b4e440e77480681E', symObjAddr: 0x24, symBinAddr: 0x2D774, symSize: 0x28 }
  - { offset: 0x84CBF, size: 0x8, addend: 0x0, symName: '__ZN10serde_core3ser5impls62_$LT$impl$u20$serde_core..ser..Serialize$u20$for$u20$$RF$T$GT$9serialize17h62d24e232beb2cb7E', symObjAddr: 0x4C, symBinAddr: 0x2D79C, symSize: 0x28 }
  - { offset: 0x84D14, size: 0x8, addend: 0x0, symName: '__ZN10serde_core3ser5impls78_$LT$impl$u20$serde_core..ser..Serialize$u20$for$u20$alloc..string..String$GT$9serialize17h207b57cc1e5b852fE', symObjAddr: 0x74, symBinAddr: 0x2D7C4, symSize: 0x90 }
  - { offset: 0x84D57, size: 0x8, addend: 0x0, symName: '__ZN10serde_core3ser5impls78_$LT$impl$u20$serde_core..ser..Serialize$u20$for$u20$alloc..string..String$GT$9serialize17h2b5d91f8901573f2E', symObjAddr: 0x104, symBinAddr: 0x2D854, symSize: 0x90 }
  - { offset: 0x84D9A, size: 0x8, addend: 0x0, symName: '__ZN10serde_core3ser5impls78_$LT$impl$u20$serde_core..ser..Serialize$u20$for$u20$alloc..string..String$GT$9serialize17h7d672805ed15fdc8E', symObjAddr: 0x194, symBinAddr: 0x2D8E4, symSize: 0x84 }
  - { offset: 0x84DDD, size: 0x8, addend: 0x0, symName: '__ZN10serde_core3ser5impls78_$LT$impl$u20$serde_core..ser..Serialize$u20$for$u20$alloc..string..String$GT$9serialize17hf51721b6e80d71daE', symObjAddr: 0x218, symBinAddr: 0x2D968, symSize: 0x84 }
  - { offset: 0x84E33, size: 0x8, addend: 0x0, symName: '__ZN45_$LT$T$u20$as$u20$alloc..string..ToString$GT$9to_string17ha046e2f64d843702E', symObjAddr: 0x29C, symBinAddr: 0x2D9EC, symSize: 0x28 }
  - { offset: 0x84EBF, size: 0x8, addend: 0x0, symName: '__ZN58_$LT$alloc..string..String$u20$as$u20$core..hash..Hash$GT$4hash17h318226007821a1b4E', symObjAddr: 0xA80, symBinAddr: 0x2E1D0, symSize: 0x44 }
  - { offset: 0x8523B, size: 0x8, addend: 0x0, symName: '__ZN5alloc5slice29_$LT$impl$u20$$u5b$T$u5d$$GT$4sort17h6b2c23187876acadE', symObjAddr: 0xAC4, symBinAddr: 0x2E214, symSize: 0x28 }
  - { offset: 0x8526C, size: 0x8, addend: 0x0, symName: '__ZN5alloc5slice29_$LT$impl$u20$$u5b$T$u5d$$GT$7sort_by17h08ad3db676bb1babE', symObjAddr: 0xAEC, symBinAddr: 0x2E23C, symSize: 0x48 }
  - { offset: 0x857D5, size: 0x8, addend: 0x0, symName: __ZN4pyo310conversion15IntoPyObjectExt22into_pyobject_or_pyerr17hdd46783d7ff057f9E, symObjAddr: 0x97C, symBinAddr: 0x2E0CC, symSize: 0x58 }
  - { offset: 0x85A89, size: 0x8, addend: 0x0, symName: '__ZN52_$LT$Q$u20$as$u20$hashbrown..Equivalent$LT$K$GT$$GT$10equivalent17h89d12e2d9584b99cE', symObjAddr: 0x9E8, symBinAddr: 0x2E138, symSize: 0x40 }
  - { offset: 0x85AFF, size: 0x8, addend: 0x0, symName: '__ZN57_$LT$$RF$T$u20$as$u20$serde_json..value..index..Index$GT$10index_into17hc14cadca408c971fE', symObjAddr: 0xA50, symBinAddr: 0x2E1A0, symSize: 0x30 }
  - { offset: 0x86549, size: 0x8, addend: 0x0, symName: '__ZN90_$LT$hashbrown..scopeguard..ScopeGuard$LT$T$C$F$GT$$u20$as$u20$core..ops..deref..Deref$GT$5deref17h9193fc7317416ab5E', symObjAddr: 0x0, symBinAddr: 0x2E29C, symSize: 0x14 }
  - { offset: 0x86565, size: 0x8, addend: 0x0, symName: '__ZN90_$LT$hashbrown..scopeguard..ScopeGuard$LT$T$C$F$GT$$u20$as$u20$core..ops..deref..Deref$GT$5deref17h9193fc7317416ab5E', symObjAddr: 0x0, symBinAddr: 0x2E29C, symSize: 0x14 }
  - { offset: 0x865A3, size: 0x8, addend: 0x0, symName: '__ZN90_$LT$hashbrown..scopeguard..ScopeGuard$LT$T$C$F$GT$$u20$as$u20$core..ops..deref..Deref$GT$5deref17hda1b701ef5e083deE', symObjAddr: 0x14, symBinAddr: 0x2E2B0, symSize: 0x14 }
  - { offset: 0x865E7, size: 0x8, addend: 0x0, symName: '__ZN93_$LT$hashbrown..scopeguard..ScopeGuard$LT$T$C$F$GT$$u20$as$u20$core..ops..deref..DerefMut$GT$9deref_mut17h761a144afdf92973E', symObjAddr: 0x28, symBinAddr: 0x2E2C4, symSize: 0x14 }
  - { offset: 0x86625, size: 0x8, addend: 0x0, symName: '__ZN93_$LT$hashbrown..scopeguard..ScopeGuard$LT$T$C$F$GT$$u20$as$u20$core..ops..deref..DerefMut$GT$9deref_mut17hf8678053b4be8216E', symObjAddr: 0x3C, symBinAddr: 0x2E2D8, symSize: 0x14 }
  - { offset: 0x86664, size: 0x8, addend: 0x0, symName: __ZN9hashbrown10scopeguard5guard17h51f497e7f686a4ebE, symObjAddr: 0x50, symBinAddr: 0x2E2EC, symSize: 0x24 }
  - { offset: 0x866B0, size: 0x8, addend: 0x0, symName: __ZN9hashbrown10scopeguard5guard17h5d7be9a5c959cfa9E, symObjAddr: 0x74, symBinAddr: 0x2E310, symSize: 0x2C }
  - { offset: 0x8699F, size: 0x8, addend: 0x0, symName: '__ZN10serde_core3ser5impls60_$LT$impl$u20$serde_core..ser..Serialize$u20$for$u20$str$GT$9serialize17hf2e85b08c9bb017fE', symObjAddr: 0x0, symBinAddr: 0x2E33C, symSize: 0x28 }
  - { offset: 0x86C25, size: 0x8, addend: 0x0, symName: '__ZN10serde_core3ser5impls60_$LT$impl$u20$serde_core..ser..Serialize$u20$for$u20$str$GT$9serialize17hf2e85b08c9bb017fE', symObjAddr: 0x0, symBinAddr: 0x2E33C, symSize: 0x28 }
  - { offset: 0x86C6E, size: 0x8, addend: 0x0, symName: '__ZN10serde_core3ser5impls60_$LT$impl$u20$serde_core..ser..Serialize$u20$for$u20$u64$GT$9serialize17h8852657ab24872c2E', symObjAddr: 0x28, symBinAddr: 0x2E364, symSize: 0x28 }
  - { offset: 0x86CB7, size: 0x8, addend: 0x0, symName: '__ZN10serde_core3ser5impls62_$LT$impl$u20$serde_core..ser..Serialize$u20$for$u20$$RF$T$GT$9serialize17h0b6333a2f7972b5eE', symObjAddr: 0x50, symBinAddr: 0x2E38C, symSize: 0x28 }
  - { offset: 0x86D06, size: 0x8, addend: 0x0, symName: '__ZN10serde_core3ser5impls62_$LT$impl$u20$serde_core..ser..Serialize$u20$for$u20$$RF$T$GT$9serialize17h29952b7c8a97997dE', symObjAddr: 0x78, symBinAddr: 0x2E3B4, symSize: 0x28 }
  - { offset: 0x86D55, size: 0x8, addend: 0x0, symName: '__ZN10serde_core3ser5impls62_$LT$impl$u20$serde_core..ser..Serialize$u20$for$u20$$RF$T$GT$9serialize17h5b85cd827926ec49E', symObjAddr: 0xA0, symBinAddr: 0x2E3DC, symSize: 0x28 }
  - { offset: 0x86DA4, size: 0x8, addend: 0x0, symName: '__ZN10serde_core3ser5impls62_$LT$impl$u20$serde_core..ser..Serialize$u20$for$u20$$RF$T$GT$9serialize17h76078d775bfaa19fE', symObjAddr: 0xC8, symBinAddr: 0x2E404, symSize: 0x28 }
  - { offset: 0x86DF3, size: 0x8, addend: 0x0, symName: '__ZN10serde_core3ser5impls62_$LT$impl$u20$serde_core..ser..Serialize$u20$for$u20$$RF$T$GT$9serialize17h93cf892b68d3c5b0E', symObjAddr: 0xF0, symBinAddr: 0x2E42C, symSize: 0x30 }
  - { offset: 0x86E48, size: 0x8, addend: 0x0, symName: '__ZN10serde_core3ser5impls62_$LT$impl$u20$serde_core..ser..Serialize$u20$for$u20$usize$GT$9serialize17h055314483f19d97cE', symObjAddr: 0x120, symBinAddr: 0x2E45C, symSize: 0x28 }
  - { offset: 0x87C06, size: 0x8, addend: 0x0, symName: '__ZN3std4sync6poison5mutex14Mutex$LT$T$GT$10into_inner17h8e25ce272a2744abE', symObjAddr: 0x0, symBinAddr: 0x2E484, symSize: 0xDC }
  - { offset: 0x87F88, size: 0x8, addend: 0x0, symName: '__ZN3std4sync6poison5mutex14Mutex$LT$T$GT$10into_inner28_$u7b$$u7b$closure$u7d$$u7d$17hdfe4b9d1002eb87fE', symObjAddr: 0xDC, symBinAddr: 0x2E560, symSize: 0x14 }
  - { offset: 0x880DD, size: 0x8, addend: 0x0, symName: '__ZN3std4sync6poison5mutex19MutexGuard$LT$T$GT$3new28_$u7b$$u7b$closure$u7d$$u7d$17h72884b07418fb814E', symObjAddr: 0x334, symBinAddr: 0x2E7B8, symSize: 0x18 }
  - { offset: 0x88125, size: 0x8, addend: 0x0, symName: '__ZN3std4sync6poison5mutex19MutexGuard$LT$T$GT$3new28_$u7b$$u7b$closure$u7d$$u7d$17hb40152734ff94598E', symObjAddr: 0x34C, symBinAddr: 0x2E7D0, symSize: 0x18 }
  - { offset: 0x88174, size: 0x8, addend: 0x0, symName: '__ZN89_$LT$std..sync..poison..mutex..MutexGuard$LT$T$GT$$u20$as$u20$core..ops..deref..Deref$GT$5deref17h1f70efb93630c8c4E', symObjAddr: 0x364, symBinAddr: 0x2E7E8, symSize: 0x1C }
  - { offset: 0x881C0, size: 0x8, addend: 0x0, symName: '__ZN89_$LT$std..sync..poison..mutex..MutexGuard$LT$T$GT$$u20$as$u20$core..ops..deref..Deref$GT$5deref17h3b13591fa976a2aeE', symObjAddr: 0x380, symBinAddr: 0x2E804, symSize: 0x1C }
  - { offset: 0x88212, size: 0x8, addend: 0x0, symName: '__ZN92_$LT$std..sync..poison..mutex..MutexGuard$LT$T$GT$$u20$as$u20$core..ops..deref..DerefMut$GT$9deref_mut17h5534b9cb8b203a7dE', symObjAddr: 0x39C, symBinAddr: 0x2E820, symSize: 0x1C }
  - { offset: 0x8825E, size: 0x8, addend: 0x0, symName: '__ZN92_$LT$std..sync..poison..mutex..MutexGuard$LT$T$GT$$u20$as$u20$core..ops..deref..DerefMut$GT$9deref_mut17hf6fd4a1dba0ca690E', symObjAddr: 0x3B8, symBinAddr: 0x2E83C, symSize: 0x1C }
  - { offset: 0x88FC9, size: 0x8, addend: 0x0, symName: '__ZN3std4sync6poison5mutex14Mutex$LT$T$GT$10into_inner17h8e25ce272a2744abE', symObjAddr: 0x0, symBinAddr: 0x2E484, symSize: 0xDC }
  - { offset: 0x890C6, size: 0x8, addend: 0x0, symName: '__ZN3std4sync6poison5mutex14Mutex$LT$T$GT$3new17h74db1556d126ed09E', symObjAddr: 0xF0, symBinAddr: 0x2E574, symSize: 0x48 }
  - { offset: 0x895DC, size: 0x8, addend: 0x0, symName: '__ZN3std4sync6poison5mutex14Mutex$LT$T$GT$3new17hb9d241f17b0729eaE', symObjAddr: 0x138, symBinAddr: 0x2E5BC, symSize: 0x7C }
  - { offset: 0x896EE, size: 0x8, addend: 0x0, symName: '__ZN3std4sync6poison5mutex14Mutex$LT$T$GT$4lock17he3ec49a0e85f4777E', symObjAddr: 0x1B4, symBinAddr: 0x2E638, symSize: 0x48 }
  - { offset: 0x897C0, size: 0x8, addend: 0x0, symName: '__ZN3std4sync6poison5mutex14Mutex$LT$T$GT$8try_lock17h844113b172abf7edE', symObjAddr: 0x1FC, symBinAddr: 0x2E680, symSize: 0x138 }
  - { offset: 0x89A02, size: 0x8, addend: 0x0, symName: __ZN5rayon4iter8plumbing14LengthSplitter3new17h97df34c8ea78d91bE, symObjAddr: 0x0, symBinAddr: 0x2E858, symSize: 0xBC }
  - { offset: 0x89AC9, size: 0x8, addend: 0x0, symName: __ZN5rayon4iter8plumbing14LengthSplitter3new17h97df34c8ea78d91bE, symObjAddr: 0x0, symBinAddr: 0x2E858, symSize: 0xBC }
  - { offset: 0x89B4A, size: 0x8, addend: 0x0, symName: __ZN5rayon4iter8plumbing14LengthSplitter9try_split17hf11808e090cff72cE, symObjAddr: 0xBC, symBinAddr: 0x2E914, symSize: 0x6C }
  - { offset: 0x89B8B, size: 0x8, addend: 0x0, symName: __ZN5rayon4iter8plumbing8Splitter3new17ha38a9a10cea20451E, symObjAddr: 0x128, symBinAddr: 0x2E980, symSize: 0x14 }
  - { offset: 0x89BAB, size: 0x8, addend: 0x0, symName: __ZN5rayon4iter8plumbing8Splitter9try_split17hdad5e945866c3d31E, symObjAddr: 0x13C, symBinAddr: 0x2E994, symSize: 0xA8 }
  - { offset: 0x89C19, size: 0x8, addend: 0x0, symName: '__ZN87_$LT$$BP$mut$u20$pyo3_ffi..object..PyObject$u20$as$u20$pyo3..ffi_ptr_ext..FfiPtrExt$GT$12assume_owned17h25ed451f54d9dd4eE', symObjAddr: 0x0, symBinAddr: 0x2EA3C, symSize: 0x24 }
  - { offset: 0x89C4E, size: 0x8, addend: 0x0, symName: __ZN8pyo3_ffi6object10Py_IS_TYPE17h54928ad4b8843939E, symObjAddr: 0x90, symBinAddr: 0x2EACC, symSize: 0x38 }
  - { offset: 0x89C88, size: 0x8, addend: 0x0, symName: __ZN8pyo3_ffi6object18PyObject_TypeCheck17h0b74d0a732819d63E, symObjAddr: 0xC8, symBinAddr: 0x2EB04, symSize: 0x70 }
  - { offset: 0x89CC5, size: 0x8, addend: 0x0, symName: __ZN8pyo3_ffi6object7Py_None17h6d8e1158c89a60b9E, symObjAddr: 0x138, symBinAddr: 0x2EB74, symSize: 0x18 }
  - { offset: 0x89CE3, size: 0x8, addend: 0x0, symName: __ZN8pyo3_ffi6object7Py_TYPE17h7a04949397a8e642E, symObjAddr: 0x150, symBinAddr: 0x2EB8C, symSize: 0x74 }
  - { offset: 0x89D7B, size: 0x8, addend: 0x0, symName: '__ZN87_$LT$$BP$mut$u20$pyo3_ffi..object..PyObject$u20$as$u20$pyo3..ffi_ptr_ext..FfiPtrExt$GT$12assume_owned17h25ed451f54d9dd4eE', symObjAddr: 0x0, symBinAddr: 0x2EA3C, symSize: 0x24 }
  - { offset: 0x89DC0, size: 0x8, addend: 0x0, symName: '__ZN87_$LT$$BP$mut$u20$pyo3_ffi..object..PyObject$u20$as$u20$pyo3..ffi_ptr_ext..FfiPtrExt$GT$15assume_borrowed17ha95a6c2bf61ceb11E', symObjAddr: 0x24, symBinAddr: 0x2EA60, symSize: 0x24 }
  - { offset: 0x89E05, size: 0x8, addend: 0x0, symName: '__ZN87_$LT$$BP$mut$u20$pyo3_ffi..object..PyObject$u20$as$u20$pyo3..ffi_ptr_ext..FfiPtrExt$GT$22assume_borrowed_or_opt17h80286928446c8ba2E', symObjAddr: 0x48, symBinAddr: 0x2EA84, symSize: 0x24 }
  - { offset: 0x89E4A, size: 0x8, addend: 0x0, symName: '__ZN87_$LT$$BP$mut$u20$pyo3_ffi..object..PyObject$u20$as$u20$pyo3..ffi_ptr_ext..FfiPtrExt$GT$25assume_borrowed_unchecked17h76a565759f92e15cE', symObjAddr: 0x6C, symBinAddr: 0x2EAA8, symSize: 0x24 }
  - { offset: 0x8A1F1, size: 0x8, addend: 0x0, symName: __ZN3std4sync4once4Once12is_completed17h0efbafa903e93a42E, symObjAddr: 0x0, symBinAddr: 0x2EC00, symSize: 0x38 }
  - { offset: 0x8A3A3, size: 0x8, addend: 0x0, symName: __ZN3std4sync4once4Once12is_completed17h0efbafa903e93a42E, symObjAddr: 0x0, symBinAddr: 0x2EC00, symSize: 0x38 }
  - { offset: 0x8A429, size: 0x8, addend: 0x0, symName: '__ZN4core3ptr9const_ptr66_$LT$impl$u20$core..cmp..PartialEq$u20$for$u20$$BP$const$u20$T$GT$2eq17hcbc4e2504d74b27cE', symObjAddr: 0x0, symBinAddr: 0x2EC38, symSize: 0x2C }
  - { offset: 0x8A44A, size: 0x8, addend: 0x0, symName: '__ZN4core3ptr9const_ptr66_$LT$impl$u20$core..cmp..PartialEq$u20$for$u20$$BP$const$u20$T$GT$2eq17hcbc4e2504d74b27cE', symObjAddr: 0x0, symBinAddr: 0x2EC38, symSize: 0x2C }
  - { offset: 0x8A4DA, size: 0x8, addend: 0x0, symName: __ZN4core3fmt2rt8Argument11new_display17h49ff4c08e498f92fE, symObjAddr: 0x0, symBinAddr: 0x2EC64, symSize: 0x2C }
  - { offset: 0x8A844, size: 0x8, addend: 0x0, symName: __ZN4core3fmt2rt8Argument11new_display17h49ff4c08e498f92fE, symObjAddr: 0x0, symBinAddr: 0x2EC64, symSize: 0x2C }
  - { offset: 0x8A960, size: 0x8, addend: 0x0, symName: __ZN4core3fmt2rt8Argument11new_display17ha4144967db5e87b6E, symObjAddr: 0x2C, symBinAddr: 0x2EC90, symSize: 0x2C }
  - { offset: 0x8AA6E, size: 0x8, addend: 0x0, symName: __ZN4core3fmt2rt8Argument9new_debug17hfb6de88350149641E, symObjAddr: 0x58, symBinAddr: 0x2ECBC, symSize: 0x2C }
  - { offset: 0x8AAB7, size: 0x8, addend: 0x0, symName: __ZN4core3fmt9Arguments17from_str_nonconst17h2e49f877dc9d78aeE, symObjAddr: 0x0, symBinAddr: 0x2ECE8, symSize: 0x28 }
  - { offset: 0x8AE03, size: 0x8, addend: 0x0, symName: __ZN4core3fmt9Arguments17from_str_nonconst17h2e49f877dc9d78aeE, symObjAddr: 0x0, symBinAddr: 0x2ECE8, symSize: 0x28 }
  - { offset: 0x8AE26, size: 0x8, addend: 0x0, symName: __ZN4core3fmt9Arguments8from_str17h598c2b00074d8847E, symObjAddr: 0x28, symBinAddr: 0x2ED10, symSize: 0x20 }
  - { offset: 0x8AE67, size: 0x8, addend: 0x0, symName: '__ZN12flash_expert8splitter11parse_shard28_$u7b$$u7b$closure$u7d$$u7d$17heda2282d526d5fdaE', symObjAddr: 0x0, symBinAddr: 0x2ED30, symSize: 0x78 }
  - { offset: 0x8B6F5, size: 0x8, addend: 0x0, symName: '__ZN4core3ops8function5impls79_$LT$impl$u20$core..ops..function..FnMut$LT$A$GT$$u20$for$u20$$RF$mut$u20$F$GT$8call_mut17h456de67155f9f515E', symObjAddr: 0x850, symBinAddr: 0x2F580, symSize: 0x30 }
  - { offset: 0x8BAAF, size: 0x8, addend: 0x0, symName: '__ZN12flash_expert8splitter11parse_shard28_$u7b$$u7b$closure$u7d$$u7d$17heda2282d526d5fdaE', symObjAddr: 0x0, symBinAddr: 0x2ED30, symSize: 0x78 }
  - { offset: 0x8BAF2, size: 0x8, addend: 0x0, symName: '__ZN12flash_expert8splitter11split_model28_$u7b$$u7b$closure$u7d$$u7d$17ha67f62858a7e375aE', symObjAddr: 0x78, symBinAddr: 0x2EDA8, symSize: 0x3C }
  - { offset: 0x8BB28, size: 0x8, addend: 0x0, symName: '__ZN12flash_expert8splitter11split_model28_$u7b$$u7b$closure$u7d$$u7d$17hd59221ce213cf53bE', symObjAddr: 0xB4, symBinAddr: 0x2EDE4, symSize: 0x30 }
  - { offset: 0x8BB64, size: 0x8, addend: 0x0, symName: '__ZN12flash_expert8splitter12tensor_shape28_$u7b$$u7b$closure$u7d$$u7d$17h2b2d8208b526bb88E', symObjAddr: 0xE4, symBinAddr: 0x2EE14, symSize: 0x58 }
  - { offset: 0x8BBB7, size: 0x8, addend: 0x0, symName: '__ZN12flash_expert8splitter12tensor_shape28_$u7b$$u7b$closure$u7d$$u7d$17h4a0f4c9db9e87dacE', symObjAddr: 0x13C, symBinAddr: 0x2EE6C, symSize: 0x3C }
  - { offset: 0x8BBF2, size: 0x8, addend: 0x0, symName: '__ZN12flash_expert8splitter14extract_tensor28_$u7b$$u7b$closure$u7d$$u7d$17h72021a23cd55bffcE', symObjAddr: 0x178, symBinAddr: 0x2EEA8, symSize: 0x6C }
  - { offset: 0x8BC77, size: 0x8, addend: 0x0, symName: '__ZN12flash_expert8splitter14extract_tensor28_$u7b$$u7b$closure$u7d$$u7d$17ha760de5659dd18e8E', symObjAddr: 0x1E4, symBinAddr: 0x2EF14, symSize: 0x30 }
  - { offset: 0x8BCAC, size: 0x8, addend: 0x0, symName: '__ZN12flash_expert8splitter19write_layer_experts28_$u7b$$u7b$closure$u7d$$u7d$17h23f1a994628acc60E', symObjAddr: 0x214, symBinAddr: 0x2EF44, symSize: 0x204 }
  - { offset: 0x8BE0D, size: 0x8, addend: 0x0, symName: '__ZN12flash_expert8splitter19write_layer_experts28_$u7b$$u7b$closure$u7d$$u7d$17h286192a572393692E', symObjAddr: 0x418, symBinAddr: 0x2F148, symSize: 0x6C }
  - { offset: 0x8BE97, size: 0x8, addend: 0x0, symName: '__ZN12flash_expert8splitter19write_layer_experts28_$u7b$$u7b$closure$u7d$$u7d$17h7854cf9bff9655fbE', symObjAddr: 0x484, symBinAddr: 0x2F1B4, symSize: 0x188 }
  - { offset: 0x8BF08, size: 0x8, addend: 0x0, symName: '__ZN12flash_expert8splitter19write_layer_experts28_$u7b$$u7b$closure$u7d$$u7d$17h7f3c6d79f372476bE', symObjAddr: 0x60C, symBinAddr: 0x2F33C, symSize: 0x24 }
  - { offset: 0x8BF41, size: 0x8, addend: 0x0, symName: '__ZN12flash_expert8splitter19write_layer_experts28_$u7b$$u7b$closure$u7d$$u7d$17h9cb3c8cf0e7bf724E', symObjAddr: 0x630, symBinAddr: 0x2F360, symSize: 0x110 }
  - { offset: 0x8BFDA, size: 0x8, addend: 0x0, symName: '__ZN12flash_expert8splitter19write_layer_experts28_$u7b$$u7b$closure$u7d$$u7d$17ha8b439765cdfeedfE', symObjAddr: 0x740, symBinAddr: 0x2F470, symSize: 0xA4 }
  - { offset: 0x8C086, size: 0x8, addend: 0x0, symName: '__ZN12flash_expert8splitter22write_resident_weights28_$u7b$$u7b$closure$u7d$$u7d$17hac0f386bd49fb5c2E', symObjAddr: 0x7E4, symBinAddr: 0x2F514, symSize: 0x3C }
  - { offset: 0x8C0CA, size: 0x8, addend: 0x0, symName: '__ZN12flash_expert8splitter22write_resident_weights28_$u7b$$u7b$closure$u7d$$u7d$17hce2a6c876201e01aE', symObjAddr: 0x820, symBinAddr: 0x2F550, symSize: 0x30 }
  - { offset: 0x8CD5D, size: 0x8, addend: 0x0, symName: '__ZN4core3str6traits108_$LT$impl$u20$core..slice..index..SliceIndex$LT$str$GT$$u20$for$u20$core..ops..range..Range$LT$usize$GT$$GT$13get_unchecked18precondition_check17had67331abece7825E', symObjAddr: 0x0, symBinAddr: 0x2F5B0, symSize: 0x80 }
  - { offset: 0x8CD83, size: 0x8, addend: 0x0, symName: '__ZN4core3str6traits108_$LT$impl$u20$core..slice..index..SliceIndex$LT$str$GT$$u20$for$u20$core..ops..range..Range$LT$usize$GT$$GT$13get_unchecked18precondition_check17had67331abece7825E', symObjAddr: 0x0, symBinAddr: 0x2F5B0, symSize: 0x80 }
  - { offset: 0x8CDEB, size: 0x8, addend: 0x0, symName: '__ZN4core3str6traits54_$LT$impl$u20$core..cmp..PartialEq$u20$for$u20$str$GT$2eq17h1f8f34cd4549fe00E', symObjAddr: 0x80, symBinAddr: 0x2F630, symSize: 0x4C }
  - { offset: 0x8CFE0, size: 0x8, addend: 0x0, symName: '__ZN3lru19KeyWrapper$LT$K$GT$8from_ref17hdcc2a5aee08cf703E', symObjAddr: 0x0, symBinAddr: 0x2F67C, symSize: 0x14 }
  - { offset: 0x8D3BD, size: 0x8, addend: 0x0, symName: '__ZN3lru25LruCache$LT$K$C$V$C$S$GT$13capturing_put28_$u7b$$u7b$closure$u7d$$u7d$17he93f6dbc04d85f95E', symObjAddr: 0x3EC, symBinAddr: 0x2FA68, symSize: 0x20 }
  - { offset: 0x8D419, size: 0x8, addend: 0x0, symName: '__ZN3lru25LruCache$LT$K$C$V$C$S$GT$3put28_$u7b$$u7b$closure$u7d$$u7d$17h4826ba668f5e3891E', symObjAddr: 0x8D0, symBinAddr: 0x2FF4C, symSize: 0x14 }
  - { offset: 0x8D478, size: 0x8, addend: 0x0, symName: '__ZN57_$LT$lru..KeyRef$LT$K$GT$$u20$as$u20$core..hash..Hash$GT$4hash17h33636e848cf9a4a6E', symObjAddr: 0xCF8, symBinAddr: 0x30374, symSize: 0x30 }
  - { offset: 0x8D4C6, size: 0x8, addend: 0x0, symName: '__ZN61_$LT$lru..KeyRef$LT$K$GT$$u20$as$u20$core..cmp..PartialEq$GT$2eq17h37d8256373da849cE', symObjAddr: 0xD28, symBinAddr: 0x303A4, symSize: 0x34 }
  - { offset: 0x8D50F, size: 0x8, addend: 0x0, symName: '__ZN61_$LT$lru..KeyWrapper$LT$K$GT$$u20$as$u20$core..hash..Hash$GT$4hash17h902d1326b0189394E', symObjAddr: 0xD5C, symBinAddr: 0x303D8, symSize: 0x2C }
  - { offset: 0x8D55D, size: 0x8, addend: 0x0, symName: '__ZN65_$LT$lru..KeyWrapper$LT$K$GT$$u20$as$u20$core..cmp..PartialEq$GT$2eq17ha42175da5627047dE', symObjAddr: 0xD88, symBinAddr: 0x30404, symSize: 0x2C }
  - { offset: 0x8D5AB, size: 0x8, addend: 0x0, symName: '__ZN72_$LT$lru..LruCache$LT$K$C$V$C$S$GT$$u20$as$u20$core..ops..drop..Drop$GT$4drop28_$u7b$$u7b$closure$u7d$$u7d$17h2259a52d33fd17e9E', symObjAddr: 0xDB4, symBinAddr: 0x30430, symSize: 0x8C }
  - { offset: 0x8D641, size: 0x8, addend: 0x0, symName: '__ZN93_$LT$lru..KeyRef$LT$K$GT$$u20$as$u20$core..borrow..Borrow$LT$lru..KeyWrapper$LT$Q$GT$$GT$$GT$6borrow17hbff0d6a699adc1e5E', symObjAddr: 0xE40, symBinAddr: 0x304BC, symSize: 0x34 }
  - { offset: 0x8D6DD, size: 0x8, addend: 0x0, symName: '__ZN3lru19KeyWrapper$LT$K$GT$8from_ref17hdcc2a5aee08cf703E', symObjAddr: 0x0, symBinAddr: 0x2F67C, symSize: 0x14 }
  - { offset: 0x8DA58, size: 0x8, addend: 0x0, symName: '__ZN4core3ptr9const_ptr33_$LT$impl$u20$$BP$const$u20$T$GT$11offset_from17h5e8d40c282fb3d9bE', symObjAddr: 0xC1C, symBinAddr: 0x30298, symSize: 0x48 }
  - { offset: 0x8E0E0, size: 0x8, addend: 0x0, symName: '__ZN51_$LT$T$u20$as$u20$core..borrow..Borrow$LT$T$GT$$GT$6borrow17hd4fcfcca0147ca77E', symObjAddr: 0xC64, symBinAddr: 0x302E0, symSize: 0x14 }
  - { offset: 0x8E336, size: 0x8, addend: 0x0, symName: '__ZN3lru21LruCache$LT$K$C$V$GT$3new17ha972231095979b50E', symObjAddr: 0x14, symBinAddr: 0x2F690, symSize: 0x44 }
  - { offset: 0x8E3A2, size: 0x8, addend: 0x0, symName: '__ZN3lru21LruEntry$LT$K$C$V$GT$3new17h61ba9d76796d95d9E', symObjAddr: 0x58, symBinAddr: 0x2F6D4, symSize: 0x7C }
  - { offset: 0x8E448, size: 0x8, addend: 0x0, symName: '__ZN3lru21LruEntry$LT$K$C$V$GT$9new_sigil17hf1397fd9b1010525E', symObjAddr: 0xD4, symBinAddr: 0x2F750, symSize: 0x18 }
  - { offset: 0x8E505, size: 0x8, addend: 0x0, symName: '__ZN3lru25LruCache$LT$K$C$V$C$S$GT$11remove_last17ha89f45555ebabeb5E', symObjAddr: 0xEC, symBinAddr: 0x2F768, symSize: 0xC4 }
  - { offset: 0x8E679, size: 0x8, addend: 0x0, symName: '__ZN3lru25LruCache$LT$K$C$V$C$S$GT$13capturing_put17hedbeea08728c181dE', symObjAddr: 0x1B0, symBinAddr: 0x2F82C, symSize: 0x23C }
  - { offset: 0x8E8AC, size: 0x8, addend: 0x0, symName: '__ZN3lru25LruCache$LT$K$C$V$C$S$GT$22replace_or_create_node17he3a898deb16c8754E', symObjAddr: 0x40C, symBinAddr: 0x2FA88, symSize: 0x390 }
  - { offset: 0x8EB3B, size: 0x8, addend: 0x0, symName: '__ZN3lru25LruCache$LT$K$C$V$C$S$GT$3cap17heee3c099769a94c6E', symObjAddr: 0x79C, symBinAddr: 0x2FE18, symSize: 0x18 }
  - { offset: 0x8EB86, size: 0x8, addend: 0x0, symName: '__ZN3lru25LruCache$LT$K$C$V$C$S$GT$3get17h283cccd88668a416E', symObjAddr: 0x7B4, symBinAddr: 0x2FE30, symSize: 0xAC }
  - { offset: 0x8EC18, size: 0x8, addend: 0x0, symName: '__ZN3lru25LruCache$LT$K$C$V$C$S$GT$3len17h9f7ffb13bb126fdaE', symObjAddr: 0x860, symBinAddr: 0x2FEDC, symSize: 0x24 }
  - { offset: 0x8EC56, size: 0x8, addend: 0x0, symName: '__ZN3lru25LruCache$LT$K$C$V$C$S$GT$3put17hf7e76331bed2be5aE', symObjAddr: 0x884, symBinAddr: 0x2FF00, symSize: 0x4C }
  - { offset: 0x8ECB2, size: 0x8, addend: 0x0, symName: '__ZN3lru25LruCache$LT$K$C$V$C$S$GT$6attach17h02079888f9d85eb5E', symObjAddr: 0x8E4, symBinAddr: 0x2FF60, symSize: 0x44 }
  - { offset: 0x8ECFF, size: 0x8, addend: 0x0, symName: '__ZN3lru25LruCache$LT$K$C$V$C$S$GT$6detach17h9f4cdd893b6bde7eE', symObjAddr: 0x928, symBinAddr: 0x2FFA4, symSize: 0x30 }
  - { offset: 0x8ED4C, size: 0x8, addend: 0x0, symName: '__ZN3lru25LruCache$LT$K$C$V$C$S$GT$7pop_lru17h17ac47805c2ce81aE', symObjAddr: 0x958, symBinAddr: 0x2FFD4, symSize: 0x110 }
  - { offset: 0x8EF25, size: 0x8, addend: 0x0, symName: '__ZN3lru25LruCache$LT$K$C$V$C$S$GT$9construct17h729691ecbd5b5848E', symObjAddr: 0xA68, symBinAddr: 0x300E4, symSize: 0x1B4 }
  - { offset: 0x8EFD7, size: 0x8, addend: 0x0, symName: '__ZN53_$LT$Q$u20$as$u20$equivalent..Equivalent$LT$K$GT$$GT$10equivalent17hbf356a19207e3076E', symObjAddr: 0xC78, symBinAddr: 0x302F4, symSize: 0x40 }
  - { offset: 0x8F023, size: 0x8, addend: 0x0, symName: '__ZN53_$LT$Q$u20$as$u20$equivalent..Equivalent$LT$K$GT$$GT$10equivalent17hc2038b331f215521E', symObjAddr: 0xCB8, symBinAddr: 0x30334, symSize: 0x40 }
  - { offset: 0x8F0F8, size: 0x8, addend: 0x0, symName: __ZN4pyo35types10typeobject6PyType22from_borrowed_type_ptr17hed45ef9e24f44869E, symObjAddr: 0x0, symBinAddr: 0x304F0, symSize: 0x34 }
  - { offset: 0x8F42F, size: 0x8, addend: 0x0, symName: __ZN4pyo35types10typeobject6PyType22from_borrowed_type_ptr17hed45ef9e24f44869E, symObjAddr: 0x0, symBinAddr: 0x304F0, symSize: 0x34 }
  - { offset: 0x8F488, size: 0x8, addend: 0x0, symName: '__ZN136_$LT$rayon..iter..while_some..WhileSomeFolder$LT$C$GT$$u20$as$u20$rayon..iter..plumbing..Folder$LT$core..option..Option$LT$T$GT$$GT$$GT$12consume_iter17h7e3a05e81156d10dE', symObjAddr: 0x0, symBinAddr: 0x30524, symSize: 0x158 }
  - { offset: 0x8F846, size: 0x8, addend: 0x0, symName: '__ZN136_$LT$rayon..iter..while_some..WhileSomeFolder$LT$C$GT$$u20$as$u20$rayon..iter..plumbing..Folder$LT$core..option..Option$LT$T$GT$$GT$$GT$12consume_iter17h7e3a05e81156d10dE', symObjAddr: 0x0, symBinAddr: 0x30524, symSize: 0x158 }
  - { offset: 0x8F89D, size: 0x8, addend: 0x0, symName: '__ZN136_$LT$rayon..iter..while_some..WhileSomeFolder$LT$C$GT$$u20$as$u20$rayon..iter..plumbing..Folder$LT$core..option..Option$LT$T$GT$$GT$$GT$12consume_iter17h86275aa25a64942aE', symObjAddr: 0x158, symBinAddr: 0x3067C, symSize: 0x158 }
  - { offset: 0x8F8F9, size: 0x8, addend: 0x0, symName: '__ZN136_$LT$rayon..iter..while_some..WhileSomeFolder$LT$C$GT$$u20$as$u20$rayon..iter..plumbing..Folder$LT$core..option..Option$LT$T$GT$$GT$$GT$12consume_iter4some17hc84d5d56e68e5e46E', symObjAddr: 0x2B0, symBinAddr: 0x307D4, symSize: 0x14 }
  - { offset: 0x8F933, size: 0x8, addend: 0x0, symName: '__ZN136_$LT$rayon..iter..while_some..WhileSomeFolder$LT$C$GT$$u20$as$u20$rayon..iter..plumbing..Folder$LT$core..option..Option$LT$T$GT$$GT$$GT$12consume_iter4some28_$u7b$$u7b$closure$u7d$$u7d$17hf57c9fcb372fd920E', symObjAddr: 0x2C4, symBinAddr: 0x307E8, symSize: 0x8C }
  - { offset: 0x8F98D, size: 0x8, addend: 0x0, symName: '__ZN136_$LT$rayon..iter..while_some..WhileSomeFolder$LT$C$GT$$u20$as$u20$rayon..iter..plumbing..Folder$LT$core..option..Option$LT$T$GT$$GT$$GT$8complete17h7e567653502b4580E', symObjAddr: 0x350, symBinAddr: 0x30874, symSize: 0x34 }
  - { offset: 0x8F9CC, size: 0x8, addend: 0x0, symName: '__ZN136_$LT$rayon..iter..while_some..WhileSomeFolder$LT$C$GT$$u20$as$u20$rayon..iter..plumbing..Folder$LT$core..option..Option$LT$T$GT$$GT$$GT$8complete17h86689746afbb287eE', symObjAddr: 0x384, symBinAddr: 0x308A8, symSize: 0x34 }
  - { offset: 0x8FA11, size: 0x8, addend: 0x0, symName: '__ZN140_$LT$rayon..iter..while_some..WhileSomeConsumer$LT$C$GT$$u20$as$u20$rayon..iter..plumbing..Consumer$LT$core..option..Option$LT$T$GT$$GT$$GT$11into_folder17h12cd1eb2388ed5d2E', symObjAddr: 0x3B8, symBinAddr: 0x308DC, symSize: 0x54 }
  - { offset: 0x8FA50, size: 0x8, addend: 0x0, symName: '__ZN140_$LT$rayon..iter..while_some..WhileSomeConsumer$LT$C$GT$$u20$as$u20$rayon..iter..plumbing..Consumer$LT$core..option..Option$LT$T$GT$$GT$$GT$11into_folder17h335cebd87329ad66E', symObjAddr: 0x40C, symBinAddr: 0x30930, symSize: 0x48 }
  - { offset: 0x8FA8E, size: 0x8, addend: 0x0, symName: '__ZN140_$LT$rayon..iter..while_some..WhileSomeConsumer$LT$C$GT$$u20$as$u20$rayon..iter..plumbing..Consumer$LT$core..option..Option$LT$T$GT$$GT$$GT$4full17h493e8c83b1f68b95E', symObjAddr: 0x454, symBinAddr: 0x30978, symSize: 0x60 }
  - { offset: 0x8FACC, size: 0x8, addend: 0x0, symName: '__ZN140_$LT$rayon..iter..while_some..WhileSomeConsumer$LT$C$GT$$u20$as$u20$rayon..iter..plumbing..Consumer$LT$core..option..Option$LT$T$GT$$GT$$GT$4full17hf1b04654d3ba0079E', symObjAddr: 0x4B4, symBinAddr: 0x309D8, symSize: 0x60 }
  - { offset: 0x8FB0A, size: 0x8, addend: 0x0, symName: '__ZN140_$LT$rayon..iter..while_some..WhileSomeConsumer$LT$C$GT$$u20$as$u20$rayon..iter..plumbing..Consumer$LT$core..option..Option$LT$T$GT$$GT$$GT$8split_at17h410cb84aaa976fe6E', symObjAddr: 0x514, symBinAddr: 0x30A38, symSize: 0x38 }
  - { offset: 0x8FB56, size: 0x8, addend: 0x0, symName: '__ZN140_$LT$rayon..iter..while_some..WhileSomeConsumer$LT$C$GT$$u20$as$u20$rayon..iter..plumbing..Consumer$LT$core..option..Option$LT$T$GT$$GT$$GT$8split_at17h4555e20ccba4d7e7E', symObjAddr: 0x54C, symBinAddr: 0x30A70, symSize: 0xA4 }
  - { offset: 0x8FC20, size: 0x8, addend: 0x0, symName: '__ZN93_$LT$rayon..iter..while_some..WhileSome$LT$I$GT$$u20$as$u20$rayon..iter..ParallelIterator$GT$15drive_unindexed17h62d8ac3496431bdbE', symObjAddr: 0x6A4, symBinAddr: 0x30BC8, symSize: 0xD0 }
  - { offset: 0x8FCB0, size: 0x8, addend: 0x0, symName: '__ZN93_$LT$rayon..iter..while_some..WhileSome$LT$I$GT$$u20$as$u20$rayon..iter..ParallelIterator$GT$15drive_unindexed17h8557b6c6e77776a4E', symObjAddr: 0x774, symBinAddr: 0x30C98, symSize: 0xFC }
  - { offset: 0x8FDF0, size: 0x8, addend: 0x0, symName: '__ZN55_$LT$T$u20$as$u20$rayon..iter..IntoParallelIterator$GT$13into_par_iter17h35bb1b11dceab65dE', symObjAddr: 0x5F0, symBinAddr: 0x30B14, symSize: 0x30 }
  - { offset: 0x8FE9A, size: 0x8, addend: 0x0, symName: __ZN5rayon4iter16ParallelIterator7collect17h5f73d31419e8a0cfE, symObjAddr: 0x650, symBinAddr: 0x30B74, symSize: 0x40 }
  - { offset: 0x8FEDB, size: 0x8, addend: 0x0, symName: __ZN5rayon4iter16ParallelIterator7opt_len17h4c9166d0c30d249bE, symObjAddr: 0x690, symBinAddr: 0x30BB4, symSize: 0x14 }
  - { offset: 0x90AA0, size: 0x8, addend: 0x0, symName: '__ZN5rayon4iter10while_some18WhileSome$LT$I$GT$3new17hf40a09d9107d7769E', symObjAddr: 0x620, symBinAddr: 0x30B44, symSize: 0x30 }
  - { offset: 0x90C13, size: 0x8, addend: 0x0, symName: '__ZN4pyo35impl_4wrap30IntoPyObjectConverter$LT$T$GT$4wrap17h18c80a554394eaeaE', symObjAddr: 0x0, symBinAddr: 0x30D94, symSize: 0x1C }
  - { offset: 0x9115F, size: 0x8, addend: 0x0, symName: '__ZN4pyo35impl_4wrap62IntoPyObjectConverter$LT$core..result..Result$LT$T$C$E$GT$$GT$12map_into_ptr28_$u7b$$u7b$closure$u7d$$u7d$17h0ab07f16c106f6f1E', symObjAddr: 0x1AC, symBinAddr: 0x30F40, symSize: 0x2C }
  - { offset: 0x911B6, size: 0x8, addend: 0x0, symName: '__ZN4pyo35impl_4wrap62IntoPyObjectConverter$LT$core..result..Result$LT$T$C$E$GT$$GT$12map_into_ptr28_$u7b$$u7b$closure$u7d$$u7d$17h3886590d21eb3980E', symObjAddr: 0x1D8, symBinAddr: 0x30F6C, symSize: 0x2C }
  - { offset: 0x9120D, size: 0x8, addend: 0x0, symName: '__ZN4pyo35impl_4wrap62IntoPyObjectConverter$LT$core..result..Result$LT$T$C$E$GT$$GT$12map_into_ptr28_$u7b$$u7b$closure$u7d$$u7d$17h913bf30199e2e805E', symObjAddr: 0x204, symBinAddr: 0x30F98, symSize: 0x40 }
  - { offset: 0x91265, size: 0x8, addend: 0x0, symName: '__ZN4pyo35impl_4wrap62IntoPyObjectConverter$LT$core..result..Result$LT$T$C$E$GT$$GT$12map_into_ptr28_$u7b$$u7b$closure$u7d$$u7d$17hc8209c596f9f0f40E', symObjAddr: 0x244, symBinAddr: 0x30FD8, symSize: 0x34 }
  - { offset: 0x913B9, size: 0x8, addend: 0x0, symName: '__ZN4pyo35impl_4wrap82EmptyTupleConverter$LT$core..result..Result$LT$$LP$$RP$$C$pyo3..err..PyErr$GT$$GT$12map_into_ptr28_$u7b$$u7b$closure$u7d$$u7d$17he6aca59f1f9e9dfdE', symObjAddr: 0x2E0, symBinAddr: 0x31074, symSize: 0x28 }
  - { offset: 0x9140F, size: 0x8, addend: 0x0, symName: __ZN4pyo35impl_4wrap9converter17h244acdc1ccfeffb9E, symObjAddr: 0x308, symBinAddr: 0x3109C, symSize: 0x10 }
  - { offset: 0x9143C, size: 0x8, addend: 0x0, symName: __ZN4pyo35impl_4wrap9converter17h2af06e6964caefcbE, symObjAddr: 0x318, symBinAddr: 0x310AC, symSize: 0x10 }
  - { offset: 0x91469, size: 0x8, addend: 0x0, symName: __ZN4pyo35impl_4wrap9converter17h4c223238e97e8947E, symObjAddr: 0x328, symBinAddr: 0x310BC, symSize: 0x10 }
  - { offset: 0x91496, size: 0x8, addend: 0x0, symName: __ZN4pyo35impl_4wrap9converter17h6c98d02395e09447E, symObjAddr: 0x338, symBinAddr: 0x310CC, symSize: 0x10 }
  - { offset: 0x914C3, size: 0x8, addend: 0x0, symName: __ZN4pyo35impl_4wrap9converter17h7ac61507bf516ccfE, symObjAddr: 0x348, symBinAddr: 0x310DC, symSize: 0x10 }
  - { offset: 0x914F0, size: 0x8, addend: 0x0, symName: __ZN4pyo35impl_4wrap9converter17h8bceb568535a80ebE, symObjAddr: 0x358, symBinAddr: 0x310EC, symSize: 0x10 }
  - { offset: 0x9151D, size: 0x8, addend: 0x0, symName: __ZN4pyo35impl_4wrap9converter17h9abbeff9d4a7d2e8E, symObjAddr: 0x368, symBinAddr: 0x310FC, symSize: 0x10 }
  - { offset: 0x9154A, size: 0x8, addend: 0x0, symName: __ZN4pyo35impl_4wrap9converter17hb2c91f034f85261eE, symObjAddr: 0x378, symBinAddr: 0x3110C, symSize: 0x10 }
  - { offset: 0x9157C, size: 0x8, addend: 0x0, symName: '__ZN81_$LT$pyo3..impl_..wrap..Converter$LT$T$GT$$u20$as$u20$core..ops..deref..Deref$GT$5deref17h01d1122633596164E', symObjAddr: 0x388, symBinAddr: 0x3111C, symSize: 0x14 }
  - { offset: 0x915B1, size: 0x8, addend: 0x0, symName: '__ZN81_$LT$pyo3..impl_..wrap..Converter$LT$T$GT$$u20$as$u20$core..ops..deref..Deref$GT$5deref17h49c8bb8c950bd777E', symObjAddr: 0x39C, symBinAddr: 0x31130, symSize: 0x14 }
  - { offset: 0x915E6, size: 0x8, addend: 0x0, symName: '__ZN81_$LT$pyo3..impl_..wrap..Converter$LT$T$GT$$u20$as$u20$core..ops..deref..Deref$GT$5deref17h77d16238bfe75ad9E', symObjAddr: 0x3B0, symBinAddr: 0x31144, symSize: 0x14 }
  - { offset: 0x9161B, size: 0x8, addend: 0x0, symName: '__ZN81_$LT$pyo3..impl_..wrap..Converter$LT$T$GT$$u20$as$u20$core..ops..deref..Deref$GT$5deref17h7c38040a9fce366dE', symObjAddr: 0x3C4, symBinAddr: 0x31158, symSize: 0x14 }
  - { offset: 0x91650, size: 0x8, addend: 0x0, symName: '__ZN81_$LT$pyo3..impl_..wrap..Converter$LT$T$GT$$u20$as$u20$core..ops..deref..Deref$GT$5deref17h835be740617392ffE', symObjAddr: 0x3D8, symBinAddr: 0x3116C, symSize: 0x14 }
  - { offset: 0x91685, size: 0x8, addend: 0x0, symName: '__ZN81_$LT$pyo3..impl_..wrap..Converter$LT$T$GT$$u20$as$u20$core..ops..deref..Deref$GT$5deref17hae8740e03051fdfeE', symObjAddr: 0x3EC, symBinAddr: 0x31180, symSize: 0x14 }
  - { offset: 0x916BA, size: 0x8, addend: 0x0, symName: '__ZN81_$LT$pyo3..impl_..wrap..Converter$LT$T$GT$$u20$as$u20$core..ops..deref..Deref$GT$5deref17hbbd98e9d14aa7a0bE', symObjAddr: 0x400, symBinAddr: 0x31194, symSize: 0x14 }
  - { offset: 0x916EF, size: 0x8, addend: 0x0, symName: '__ZN81_$LT$pyo3..impl_..wrap..Converter$LT$T$GT$$u20$as$u20$core..ops..deref..Deref$GT$5deref17hbea5e2525c50a0e3E', symObjAddr: 0x414, symBinAddr: 0x311A8, symSize: 0x14 }
  - { offset: 0x9172A, size: 0x8, addend: 0x0, symName: '__ZN91_$LT$pyo3..impl_..wrap..EmptyTupleConverter$LT$T$GT$$u20$as$u20$core..ops..deref..Deref$GT$5deref17h0f4f612045acccb0E', symObjAddr: 0x428, symBinAddr: 0x311BC, symSize: 0x14 }
  - { offset: 0x9175F, size: 0x8, addend: 0x0, symName: '__ZN91_$LT$pyo3..impl_..wrap..EmptyTupleConverter$LT$T$GT$$u20$as$u20$core..ops..deref..Deref$GT$5deref17h61f4bb08637c5027E', symObjAddr: 0x43C, symBinAddr: 0x311D0, symSize: 0x14 }
  - { offset: 0x91794, size: 0x8, addend: 0x0, symName: '__ZN91_$LT$pyo3..impl_..wrap..EmptyTupleConverter$LT$T$GT$$u20$as$u20$core..ops..deref..Deref$GT$5deref17h7004b81e31d78747E', symObjAddr: 0x450, symBinAddr: 0x311E4, symSize: 0x14 }
  - { offset: 0x917C9, size: 0x8, addend: 0x0, symName: '__ZN91_$LT$pyo3..impl_..wrap..EmptyTupleConverter$LT$T$GT$$u20$as$u20$core..ops..deref..Deref$GT$5deref17h988943fe2710fd1dE', symObjAddr: 0x464, symBinAddr: 0x311F8, symSize: 0x14 }
  - { offset: 0x917FE, size: 0x8, addend: 0x0, symName: '__ZN91_$LT$pyo3..impl_..wrap..EmptyTupleConverter$LT$T$GT$$u20$as$u20$core..ops..deref..Deref$GT$5deref17ha23835406ed4bdc0E', symObjAddr: 0x478, symBinAddr: 0x3120C, symSize: 0x14 }
  - { offset: 0x91833, size: 0x8, addend: 0x0, symName: '__ZN91_$LT$pyo3..impl_..wrap..EmptyTupleConverter$LT$T$GT$$u20$as$u20$core..ops..deref..Deref$GT$5deref17hc4bbfc5043cb0633E', symObjAddr: 0x48C, symBinAddr: 0x31220, symSize: 0x14 }
  - { offset: 0x91868, size: 0x8, addend: 0x0, symName: '__ZN91_$LT$pyo3..impl_..wrap..EmptyTupleConverter$LT$T$GT$$u20$as$u20$core..ops..deref..Deref$GT$5deref17hedc67daeec78d7aeE', symObjAddr: 0x4A0, symBinAddr: 0x31234, symSize: 0x14 }
  - { offset: 0x9189D, size: 0x8, addend: 0x0, symName: '__ZN91_$LT$pyo3..impl_..wrap..EmptyTupleConverter$LT$T$GT$$u20$as$u20$core..ops..deref..Deref$GT$5deref17hf9f7aca91bd0ea56E', symObjAddr: 0x4B4, symBinAddr: 0x31248, symSize: 0x14 }
  - { offset: 0x925E7, size: 0x8, addend: 0x0, symName: '__ZN4pyo35impl_4wrap30IntoPyObjectConverter$LT$T$GT$4wrap17h18c80a554394eaeaE', symObjAddr: 0x0, symBinAddr: 0x30D94, symSize: 0x1C }
  - { offset: 0x9262D, size: 0x8, addend: 0x0, symName: '__ZN4pyo35impl_4wrap30IntoPyObjectConverter$LT$T$GT$4wrap17h1e91f548f7d984aeE', symObjAddr: 0x1C, symBinAddr: 0x30DB0, symSize: 0x1C }
  - { offset: 0x926AA, size: 0x8, addend: 0x0, symName: '__ZN4pyo35impl_4wrap30IntoPyObjectConverter$LT$T$GT$4wrap17h7acd48912bcb2e72E', symObjAddr: 0x38, symBinAddr: 0x30DCC, symSize: 0x24 }
  - { offset: 0x929FC, size: 0x8, addend: 0x0, symName: '__ZN4pyo35impl_4wrap62IntoPyObjectConverter$LT$core..result..Result$LT$T$C$E$GT$$GT$12map_into_ptr17h251be9385e54354eE', symObjAddr: 0x5C, symBinAddr: 0x30DF0, symSize: 0x54 }
  - { offset: 0x92A67, size: 0x8, addend: 0x0, symName: '__ZN4pyo35impl_4wrap62IntoPyObjectConverter$LT$core..result..Result$LT$T$C$E$GT$$GT$12map_into_ptr17h5447b636dac6a28fE', symObjAddr: 0xB0, symBinAddr: 0x30E44, symSize: 0x54 }
  - { offset: 0x92AD2, size: 0x8, addend: 0x0, symName: '__ZN4pyo35impl_4wrap62IntoPyObjectConverter$LT$core..result..Result$LT$T$C$E$GT$$GT$12map_into_ptr17h88446de4b607748dE', symObjAddr: 0x104, symBinAddr: 0x30E98, symSize: 0x54 }
  - { offset: 0x92D0E, size: 0x8, addend: 0x0, symName: '__ZN4pyo35impl_4wrap62IntoPyObjectConverter$LT$core..result..Result$LT$T$C$E$GT$$GT$12map_into_ptr17hd89e3d4b0d18a766E', symObjAddr: 0x158, symBinAddr: 0x30EEC, symSize: 0x54 }
  - { offset: 0x92D79, size: 0x8, addend: 0x0, symName: '__ZN4pyo35impl_4wrap62IntoPyObjectConverter$LT$core..result..Result$LT$T$C$E$GT$$GT$4wrap17h35da8443ffc4e682E', symObjAddr: 0x278, symBinAddr: 0x3100C, symSize: 0x34 }
  - { offset: 0x92DBC, size: 0x8, addend: 0x0, symName: '__ZN4pyo35impl_4wrap62IntoPyObjectConverter$LT$core..result..Result$LT$T$C$E$GT$$GT$4wrap17ha4a42273d99e8828E', symObjAddr: 0x2AC, symBinAddr: 0x31040, symSize: 0x34 }
  - { offset: 0x92F62, size: 0x8, addend: 0x0, symName: __ZN4pyo35types8sequence16extract_sequence17h5244380eda8ffa02E, symObjAddr: 0x0, symBinAddr: 0x3125C, symSize: 0x400 }
  - { offset: 0x93003, size: 0x8, addend: 0x0, symName: __ZN4pyo35types8sequence16extract_sequence17h5244380eda8ffa02E, symObjAddr: 0x0, symBinAddr: 0x3125C, symSize: 0x400 }
  - { offset: 0x93D37, size: 0x8, addend: 0x0, symName: '__ZN185_$LT$core..ops..control_flow..ControlFlow$LT$B$C$C$GT$$u20$as$u20$core..ops..try_trait..FromResidual$LT$core..ops..control_flow..ControlFlow$LT$B$C$core..convert..Infallible$GT$$GT$$GT$13from_residual17h2202cacf0e109af6E', symObjAddr: 0x0, symBinAddr: 0x3165C, symSize: 0x30 }
  - { offset: 0x93D58, size: 0x8, addend: 0x0, symName: '__ZN185_$LT$core..ops..control_flow..ControlFlow$LT$B$C$C$GT$$u20$as$u20$core..ops..try_trait..FromResidual$LT$core..ops..control_flow..ControlFlow$LT$B$C$core..convert..Infallible$GT$$GT$$GT$13from_residual17h2202cacf0e109af6E', symObjAddr: 0x0, symBinAddr: 0x3165C, symSize: 0x30 }
  - { offset: 0x93D9C, size: 0x8, addend: 0x0, symName: '__ZN95_$LT$core..ops..control_flow..ControlFlow$LT$B$C$C$GT$$u20$as$u20$core..ops..try_trait..Try$GT$11from_output17h1d0edfc8ce8422cfE', symObjAddr: 0x30, symBinAddr: 0x3168C, symSize: 0x18 }
  - { offset: 0x93DDA, size: 0x8, addend: 0x0, symName: '__ZN95_$LT$core..ops..control_flow..ControlFlow$LT$B$C$C$GT$$u20$as$u20$core..ops..try_trait..Try$GT$6branch17h2b9418b4f4fccf69E', symObjAddr: 0x48, symBinAddr: 0x316A4, symSize: 0x78 }
  - { offset: 0x94198, size: 0x8, addend: 0x0, symName: '__ZN4pyo36pycell14PyRef$LT$T$GT$10try_borrow17ha2c4a5d8583d00f9E', symObjAddr: 0x0, symBinAddr: 0x3171C, symSize: 0x4C }
  - { offset: 0x94290, size: 0x8, addend: 0x0, symName: '__ZN4pyo36pycell14PyRef$LT$T$GT$10try_borrow28_$u7b$$u7b$closure$u7d$$u7d$17h2b28cf3535670885E', symObjAddr: 0x4C, symBinAddr: 0x31768, symSize: 0x24 }
  - { offset: 0x942DB, size: 0x8, addend: 0x0, symName: '__ZN72_$LT$pyo3..pycell..PyRef$LT$T$GT$$u20$as$u20$core..ops..deref..Deref$GT$5deref17h590881904f33b763E', symObjAddr: 0xC0, symBinAddr: 0x317DC, symSize: 0x74 }
  - { offset: 0x945AE, size: 0x8, addend: 0x0, symName: '__ZN57_$LT$T$u20$as$u20$pyo3..conversion..FromPyObjectBound$GT$20from_py_object_bound17ha74a6988db1ec284E', symObjAddr: 0x8C, symBinAddr: 0x317A8, symSize: 0x34 }
  - { offset: 0x945EB, size: 0x8, addend: 0x0, symName: '__ZN79_$LT$pyo3..pycell..PyRef$LT$T$GT$$u20$as$u20$pyo3..conversion..FromPyObject$GT$13extract_bound17h3dbf43d71dba8cadE', symObjAddr: 0x134, symBinAddr: 0x31850, symSize: 0xA4 }
  - { offset: 0x954B8, size: 0x8, addend: 0x0, symName: '__ZN50_$LT$T$u20$as$u20$core..convert..Into$LT$U$GT$$GT$4into17h92c1f091a6aac516E', symObjAddr: 0x70, symBinAddr: 0x3178C, symSize: 0x1C }
  - { offset: 0x95967, size: 0x8, addend: 0x0, symName: '__ZN4pyo36pycell14PyRef$LT$T$GT$10try_borrow17ha2c4a5d8583d00f9E', symObjAddr: 0x0, symBinAddr: 0x3171C, symSize: 0x4C }
  - { offset: 0x95A8C, size: 0x8, addend: 0x0, symName: '__ZN5alloc5boxed7convert176_$LT$impl$u20$core..convert..From$LT$alloc..string..String$GT$$u20$for$u20$alloc..boxed..Box$LT$dyn$u20$core..error..Error$u2b$core..marker..Sync$u2b$core..marker..Send$GT$$GT$4from17h256ed4b8faf059e3E', symObjAddr: 0x0, symBinAddr: 0x318F4, symSize: 0x84 }
  - { offset: 0x95AD6, size: 0x8, addend: 0x0, symName: '__ZN5alloc5boxed7convert176_$LT$impl$u20$core..convert..From$LT$alloc..string..String$GT$$u20$for$u20$alloc..boxed..Box$LT$dyn$u20$core..error..Error$u2b$core..marker..Sync$u2b$core..marker..Send$GT$$GT$4from17h256ed4b8faf059e3E', symObjAddr: 0x0, symBinAddr: 0x318F4, symSize: 0x84 }
  - { offset: 0x95D4C, size: 0x8, addend: 0x0, symName: __ZN3std3sys2fs4unix23debug_assert_fd_is_open17ha95871512ca5b4dcE, symObjAddr: 0x0, symBinAddr: 0x31978, symSize: 0x98 }
  - { offset: 0x95D8F, size: 0x8, addend: 0x0, symName: __ZN3std3sys2fs4unix23debug_assert_fd_is_open17ha95871512ca5b4dcE, symObjAddr: 0x0, symBinAddr: 0x31978, symSize: 0x98 }
  - { offset: 0x95E28, size: 0x8, addend: 0x0, symName: '__ZN67_$LT$core..array..TryFromSliceError$u20$as$u20$core..fmt..Debug$GT$3fmt17h4f7213cfda6d21a8E', symObjAddr: 0x0, symBinAddr: 0x31A10, symSize: 0x54 }
  - { offset: 0x95E52, size: 0x8, addend: 0x0, symName: '__ZN67_$LT$core..array..TryFromSliceError$u20$as$u20$core..fmt..Debug$GT$3fmt17h4f7213cfda6d21a8E', symObjAddr: 0x0, symBinAddr: 0x31A10, symSize: 0x54 }
  - { offset: 0x96022, size: 0x8, addend: 0x0, symName: __ZN4core4iter6traits8iterator8Iterator3zip17hfd471d8d7edce14eE, symObjAddr: 0x0, symBinAddr: 0x31A64, symSize: 0xB4 }
  - { offset: 0x961C7, size: 0x8, addend: 0x0, symName: __ZN4core4iter6traits8iterator8Iterator3zip17hfd471d8d7edce14eE, symObjAddr: 0x0, symBinAddr: 0x31A64, symSize: 0xB4 }
  - { offset: 0x9623D, size: 0x8, addend: 0x0, symName: __ZN4core4iter6traits8iterator8Iterator4take17h5d471386673a6280E, symObjAddr: 0xB4, symBinAddr: 0x31B18, symSize: 0x24 }
  - { offset: 0x967E9, size: 0x8, addend: 0x0, symName: '__ZN4pyo35types5tuple81_$LT$impl$u20$pyo3..conversion..IntoPyObject$u20$for$u20$$LP$T0$C$T1$C$T2$RP$$GT$13into_pyobject17h152a2025b02a491eE', symObjAddr: 0xD8, symBinAddr: 0x31B3C, symSize: 0x31C }
  - { offset: 0x968E3, size: 0x8, addend: 0x0, symName: '__ZN4pyo35types5tuple81_$LT$impl$u20$pyo3..conversion..IntoPyObject$u20$for$u20$$LP$T0$C$T1$C$T2$RP$$GT$13into_pyobject17hba4588a0e2238941E', symObjAddr: 0x3F4, symBinAddr: 0x31E58, symSize: 0x31C }
  - { offset: 0x97028, size: 0x8, addend: 0x0, symName: __ZN10serde_json5error5Error12fix_position17h25079d745a70ca41E, symObjAddr: 0x0, symBinAddr: 0xFEB14, symSize: 0x1A8 }
  - { offset: 0x97084, size: 0x8, addend: 0x0, symName: '__ZN45_$LT$T$u20$as$u20$alloc..string..ToString$GT$9to_string17h6272703bb636d196E', symObjAddr: 0x1A8, symBinAddr: 0x32174, symSize: 0x24 }
  - { offset: 0x970C1, size: 0x8, addend: 0x0, symName: '__ZN49_$LT$T$u20$as$u20$alloc..string..SpecToString$GT$14spec_to_string17hd2465cc1aabf6d23E', symObjAddr: 0x1CC, symBinAddr: 0x32198, symSize: 0xF4 }
  - { offset: 0x97A56, size: 0x8, addend: 0x0, symName: __ZN10serde_json5error5Error12fix_position17h25079d745a70ca41E, symObjAddr: 0x0, symBinAddr: 0xFEB14, symSize: 0x1A8 }
  - { offset: 0x97B4D, size: 0x8, addend: 0x0, symName: '__ZN106_$LT$core..ops..range..Range$LT$usize$GT$$u20$as$u20$core..slice..index..SliceIndex$LT$$u5b$T$u5d$$GT$$GT$9index_mut17h70f1123723d4f58eE', symObjAddr: 0x0, symBinAddr: 0x3228C, symSize: 0xBC }
  - { offset: 0x97D8F, size: 0x8, addend: 0x0, symName: '__ZN106_$LT$core..ops..range..Range$LT$usize$GT$$u20$as$u20$core..slice..index..SliceIndex$LT$$u5b$T$u5d$$GT$$GT$9index_mut17h70f1123723d4f58eE', symObjAddr: 0x0, symBinAddr: 0x3228C, symSize: 0xBC }
  - { offset: 0x97E40, size: 0x8, addend: 0x0, symName: '__ZN108_$LT$core..ops..range..RangeTo$LT$usize$GT$$u20$as$u20$core..slice..index..SliceIndex$LT$$u5b$T$u5d$$GT$$GT$9index_mut17hca7ffa0330a9be37E', symObjAddr: 0xBC, symBinAddr: 0x32348, symSize: 0x54 }
  - { offset: 0x97EC7, size: 0x8, addend: 0x0, symName: '__ZN110_$LT$core..ops..range..RangeFrom$LT$usize$GT$$u20$as$u20$core..slice..index..SliceIndex$LT$$u5b$T$u5d$$GT$$GT$5index17h03b3e951cbeffa39E', symObjAddr: 0x110, symBinAddr: 0x3239C, symSize: 0x70 }
  - { offset: 0x98007, size: 0x8, addend: 0x0, symName: '__ZN4core4iter5range101_$LT$impl$u20$core..iter..traits..iterator..Iterator$u20$for$u20$core..ops..range..Range$LT$A$GT$$GT$4next17hf1dbf7ecd2868ce8E', symObjAddr: 0x180, symBinAddr: 0x3240C, symSize: 0x24 }
  - { offset: 0x98044, size: 0x8, addend: 0x0, symName: '__ZN89_$LT$core..ops..range..Range$LT$T$GT$$u20$as$u20$core..iter..range..RangeIteratorImpl$GT$9spec_next17hde036bff3508fd16E', symObjAddr: 0x1E0, symBinAddr: 0x3246C, symSize: 0x90 }
  - { offset: 0x980D0, size: 0x8, addend: 0x0, symName: __ZN4core4iter6traits8iterator8Iterator7step_by17heac417e836861c55E, symObjAddr: 0x1A4, symBinAddr: 0x32430, symSize: 0x28 }
  - { offset: 0x98122, size: 0x8, addend: 0x0, symName: '__ZN63_$LT$I$u20$as$u20$core..iter..traits..collect..IntoIterator$GT$9into_iter17hae0b0cf73dd57f83E', symObjAddr: 0x1CC, symBinAddr: 0x32458, symSize: 0x14 }
  - { offset: 0x984F1, size: 0x8, addend: 0x0, symName: '__ZN4core3cmp5impls54_$LT$impl$u20$core..cmp..PartialEq$u20$for$u20$u32$GT$2eq17hf3fef423b4376c2bE', symObjAddr: 0x0, symBinAddr: 0x324FC, symSize: 0x2C }
  - { offset: 0x98512, size: 0x8, addend: 0x0, symName: '__ZN4core3cmp5impls54_$LT$impl$u20$core..cmp..PartialEq$u20$for$u20$u32$GT$2eq17hf3fef423b4376c2bE', symObjAddr: 0x0, symBinAddr: 0x324FC, symSize: 0x2C }
  - { offset: 0x9858C, size: 0x8, addend: 0x0, symName: '__ZN117_$LT$rayon..iter..plumbing..bridge..Callback$LT$C$GT$$u20$as$u20$rayon..iter..plumbing..ProducerCallback$LT$I$GT$$GT$8callback17h3f8a153a13ffc1bfE', symObjAddr: 0x0, symBinAddr: 0x32528, symSize: 0x6C }
  - { offset: 0x9894F, size: 0x8, addend: 0x0, symName: '__ZN117_$LT$rayon..iter..plumbing..bridge..Callback$LT$C$GT$$u20$as$u20$rayon..iter..plumbing..ProducerCallback$LT$I$GT$$GT$8callback17h3f8a153a13ffc1bfE', symObjAddr: 0x0, symBinAddr: 0x32528, symSize: 0x6C }
  - { offset: 0x989A8, size: 0x8, addend: 0x0, symName: '__ZN117_$LT$rayon..iter..plumbing..bridge..Callback$LT$C$GT$$u20$as$u20$rayon..iter..plumbing..ProducerCallback$LT$I$GT$$GT$8callback17hde07c29dd5055a9eE', symObjAddr: 0x6C, symBinAddr: 0x32594, symSize: 0x44 }
  - { offset: 0x98A57, size: 0x8, addend: 0x0, symName: __ZN5rayon4iter8plumbing24bridge_producer_consumer17h2f4243811ae465caE, symObjAddr: 0xB0, symBinAddr: 0x325D8, symSize: 0x128 }
  - { offset: 0x98AD5, size: 0x8, addend: 0x0, symName: __ZN5rayon4iter8plumbing24bridge_producer_consumer17h7fe692ffe3cd3a97E, symObjAddr: 0x1D8, symBinAddr: 0x32700, symSize: 0x10C }
  - { offset: 0x98B58, size: 0x8, addend: 0x0, symName: __ZN5rayon4iter8plumbing24bridge_producer_consumer6helper17h1203dab516657cabE, symObjAddr: 0x2E4, symBinAddr: 0x3280C, symSize: 0x4B8 }
  - { offset: 0x98C7F, size: 0x8, addend: 0x0, symName: __ZN5rayon4iter8plumbing24bridge_producer_consumer6helper17h314ea6b6b51144c0E, symObjAddr: 0x79C, symBinAddr: 0x32CC4, symSize: 0x48C }
  - { offset: 0x98DAB, size: 0x8, addend: 0x0, symName: '__ZN5rayon4iter8plumbing24bridge_producer_consumer6helper28_$u7b$$u7b$closure$u7d$$u7d$17h1a45ba25160b29c2E', symObjAddr: 0xC28, symBinAddr: 0x33150, symSize: 0x100 }
  - { offset: 0x98E30, size: 0x8, addend: 0x0, symName: '__ZN5rayon4iter8plumbing24bridge_producer_consumer6helper28_$u7b$$u7b$closure$u7d$$u7d$17h342f1554988d665aE', symObjAddr: 0xD28, symBinAddr: 0x33250, symSize: 0xD8 }
  - { offset: 0x98EB4, size: 0x8, addend: 0x0, symName: '__ZN5rayon4iter8plumbing24bridge_producer_consumer6helper28_$u7b$$u7b$closure$u7d$$u7d$17h8b1cc83d624cda47E', symObjAddr: 0xE00, symBinAddr: 0x33328, symSize: 0x128 }
  - { offset: 0x98F4A, size: 0x8, addend: 0x0, symName: '__ZN5rayon4iter8plumbing24bridge_producer_consumer6helper28_$u7b$$u7b$closure$u7d$$u7d$17hb901fc2047427f00E', symObjAddr: 0xF28, symBinAddr: 0x33450, symSize: 0x100 }
  - { offset: 0x98FE1, size: 0x8, addend: 0x0, symName: __ZN5rayon4iter8plumbing6bridge17h2c2241f4a6fb0911E, symObjAddr: 0x1028, symBinAddr: 0x33550, symSize: 0xF8 }
  - { offset: 0x99050, size: 0x8, addend: 0x0, symName: __ZN5rayon4iter8plumbing6bridge17h6047c66b5c36cb36E, symObjAddr: 0x1120, symBinAddr: 0x33648, symSize: 0xD8 }
  - { offset: 0x99CF4, size: 0x8, addend: 0x0, symName: __ZN4pyo35impl_16extract_argument16extract_argument17h1d4859f13bb0900bE, symObjAddr: 0x0, symBinAddr: 0x33720, symSize: 0x144 }
  - { offset: 0x9AC4C, size: 0x8, addend: 0x0, symName: __ZN4pyo35impl_16extract_argument16extract_argument17h1d4859f13bb0900bE, symObjAddr: 0x0, symBinAddr: 0x33720, symSize: 0x144 }
  - { offset: 0x9ACD2, size: 0x8, addend: 0x0, symName: __ZN4pyo35impl_16extract_argument16extract_argument17h38fb61502d4548e2E, symObjAddr: 0x144, symBinAddr: 0x33864, symSize: 0x140 }
  - { offset: 0x9AD57, size: 0x8, addend: 0x0, symName: __ZN4pyo35impl_16extract_argument16extract_argument17h4c38a9bcd7845503E, symObjAddr: 0x284, symBinAddr: 0x339A4, symSize: 0x150 }
  - { offset: 0x9ADDC, size: 0x8, addend: 0x0, symName: __ZN4pyo35impl_16extract_argument16extract_argument17hbb28d970999e7a44E, symObjAddr: 0x3D4, symBinAddr: 0x33AF4, symSize: 0x138 }
  - { offset: 0x9AFE2, size: 0x8, addend: 0x0, symName: '__ZN4pyo35impl_16extract_argument19FunctionDescription26extract_arguments_fastcall28_$u7b$$u7b$closure$u7d$$u7d$17h1fe5054486fcccbdE', symObjAddr: 0x1958, symBinAddr: 0x35078, symSize: 0x24 }
  - { offset: 0x9B03A, size: 0x8, addend: 0x0, symName: '__ZN4pyo35impl_16extract_argument19FunctionDescription28extract_arguments_tuple_dict28_$u7b$$u7b$closure$u7d$$u7d$17h2fb78b58fa230240E', symObjAddr: 0x1E5C, symBinAddr: 0x3557C, symSize: 0x24 }
  - { offset: 0x9B092, size: 0x8, addend: 0x0, symName: '__ZN4pyo35impl_16extract_argument19FunctionDescription36find_keyword_parameter_in_positional28_$u7b$$u7b$closure$u7d$$u7d$17ha9ae54b3267e4bd4E', symObjAddr: 0x1E80, symBinAddr: 0x355A0, symSize: 0x48 }
  - { offset: 0x9B0F2, size: 0x8, addend: 0x0, symName: '__ZN4pyo35impl_16extract_argument19FunctionDescription38find_keyword_parameter_in_keyword_only28_$u7b$$u7b$closure$u7d$$u7d$17h0b0e35057a4f9e18E', symObjAddr: 0x1EC8, symBinAddr: 0x355E8, symSize: 0x38 }
  - { offset: 0x9B134, size: 0x8, addend: 0x0, symName: __ZN4pyo35impl_16extract_argument19extract_pyclass_ref17h9c0831fe6fae6f5fE, symObjAddr: 0x1F00, symBinAddr: 0x35620, symSize: 0xC8 }
  - { offset: 0x9B19C, size: 0x8, addend: 0x0, symName: '__ZN71_$LT$T$u20$as$u20$pyo3..impl_..extract_argument..PyFunctionArgument$GT$7extract17h4175745f27bbeecdE', symObjAddr: 0x1FC8, symBinAddr: 0x356E8, symSize: 0x28 }
  - { offset: 0x9B1DB, size: 0x8, addend: 0x0, symName: '__ZN71_$LT$T$u20$as$u20$pyo3..impl_..extract_argument..PyFunctionArgument$GT$7extract17h51d5115086a8b69bE', symObjAddr: 0x1FF0, symBinAddr: 0x35710, symSize: 0x28 }
  - { offset: 0x9B21A, size: 0x8, addend: 0x0, symName: '__ZN71_$LT$T$u20$as$u20$pyo3..impl_..extract_argument..PyFunctionArgument$GT$7extract17hdc3eefa57460df99E', symObjAddr: 0x2018, symBinAddr: 0x35738, symSize: 0x28 }
  - { offset: 0x9BA61, size: 0x8, addend: 0x0, symName: __ZN4pyo35impl_16extract_argument19FunctionDescription13handle_kwargs17h3d07de3860587376E, symObjAddr: 0x50C, symBinAddr: 0x33C2C, symSize: 0x708 }
  - { offset: 0x9BC7C, size: 0x8, addend: 0x0, symName: __ZN4pyo35impl_16extract_argument19FunctionDescription13handle_kwargs17h4205729eae177041E, symObjAddr: 0xC14, symBinAddr: 0x34334, symSize: 0x70C }
  - { offset: 0x9BEB5, size: 0x8, addend: 0x0, symName: __ZN4pyo35impl_16extract_argument19FunctionDescription26extract_arguments_fastcall17h4bb39cf0e6df49d3E, symObjAddr: 0x1320, symBinAddr: 0x34A40, symSize: 0x638 }
  - { offset: 0x9C1E7, size: 0x8, addend: 0x0, symName: __ZN4pyo35impl_16extract_argument19FunctionDescription28extract_arguments_tuple_dict17ha985e9f471dff6faE, symObjAddr: 0x197C, symBinAddr: 0x3509C, symSize: 0x4E0 }
  - { offset: 0x9CBF6, size: 0x8, addend: 0x0, symName: __ZN4pyo35impl_5panic9PanicTrap3new17hfdbd3830429f857bE, symObjAddr: 0x0, symBinAddr: 0x35760, symSize: 0x18 }
  - { offset: 0x9CC85, size: 0x8, addend: 0x0, symName: __ZN4pyo35impl_5panic9PanicTrap3new17hfdbd3830429f857bE, symObjAddr: 0x0, symBinAddr: 0x35760, symSize: 0x18 }
  - { offset: 0x9CCA7, size: 0x8, addend: 0x0, symName: __ZN4pyo35impl_5panic9PanicTrap6disarm17h5a7301ab16591717E, symObjAddr: 0x18, symBinAddr: 0x35778, symSize: 0x28 }
  - { offset: 0x9CCE7, size: 0x8, addend: 0x0, symName: '__ZN105_$LT$std..collections..hash..map..Iter$LT$K$C$V$GT$$u20$as$u20$core..iter..traits..iterator..Iterator$GT$4next17heef5f90edc73e5dfE', symObjAddr: 0x0, symBinAddr: 0x357A0, symSize: 0x24 }
  - { offset: 0x9DD4F, size: 0x8, addend: 0x0, symName: '__ZN105_$LT$std..collections..hash..map..Iter$LT$K$C$V$GT$$u20$as$u20$core..iter..traits..iterator..Iterator$GT$4next17heef5f90edc73e5dfE', symObjAddr: 0x0, symBinAddr: 0x357A0, symSize: 0x24 }
  - { offset: 0x9DD95, size: 0x8, addend: 0x0, symName: '__ZN113_$LT$std..collections..hash..map..IntoIter$LT$K$C$V$C$A$GT$$u20$as$u20$core..iter..traits..iterator..Iterator$GT$4next17h85c8fcea17767063E', symObjAddr: 0x24, symBinAddr: 0x357C4, symSize: 0x20 }
  - { offset: 0x9DF54, size: 0x8, addend: 0x0, symName: '__ZN114_$LT$std..collections..hash..map..HashMap$LT$K$C$V$C$S$C$A$GT$$u20$as$u20$core..ops..index..Index$LT$$RF$Q$GT$$GT$5index17h849dc6ef52cc2ce7E', symObjAddr: 0x44, symBinAddr: 0x357E4, symSize: 0x80 }
  - { offset: 0x9E002, size: 0x8, addend: 0x0, symName: '__ZN114_$LT$std..collections..hash..map..HashMap$LT$K$C$V$C$S$C$A$GT$$u20$as$u20$core..ops..index..Index$LT$$RF$Q$GT$$GT$5index17h84c30e17a3e7e636E', symObjAddr: 0xC4, symBinAddr: 0x35864, symSize: 0x80 }
  - { offset: 0x9E1CF, size: 0x8, addend: 0x0, symName: '__ZN119_$LT$std..collections..hash..map..HashMap$LT$K$C$V$C$S$C$A$GT$$u20$as$u20$core..iter..traits..collect..IntoIterator$GT$9into_iter17h4ee05d5ba0f5a89fE', symObjAddr: 0x144, symBinAddr: 0x358E4, symSize: 0x58 }
  - { offset: 0x9E24F, size: 0x8, addend: 0x0, symName: '__ZN123_$LT$$RF$std..collections..hash..map..HashMap$LT$K$C$V$C$S$C$A$GT$$u20$as$u20$core..iter..traits..collect..IntoIterator$GT$9into_iter17hbe21e0292a6b24adE', symObjAddr: 0x19C, symBinAddr: 0x3593C, symSize: 0x44 }
  - { offset: 0x9EEBB, size: 0x8, addend: 0x0, symName: __ZN4pyo310conversion15IntoPyObjectExt17into_bound_py_any17hfc28ec1b1574e860E, symObjAddr: 0x3D4, symBinAddr: 0x35B74, symSize: 0xE4 }
  - { offset: 0x9EF64, size: 0x8, addend: 0x0, symName: '__ZN4pyo311conversions3std3map114_$LT$impl$u20$pyo3..conversion..IntoPyObject$u20$for$u20$std..collections..hash..map..HashMap$LT$K$C$V$C$H$GT$$GT$13into_pyobject17hb7f9f0fd90d7a633E', symObjAddr: 0x4B8, symBinAddr: 0x35C58, symSize: 0x22C }
  - { offset: 0x9F773, size: 0x8, addend: 0x0, symName: '__ZN3std11collections4hash3map20HashMap$LT$K$C$V$GT$3new17ha7a2517e2efb1780E', symObjAddr: 0x1E0, symBinAddr: 0x35980, symSize: 0x7C }
  - { offset: 0x9F888, size: 0x8, addend: 0x0, symName: '__ZN3std11collections4hash3map20HashMap$LT$K$C$V$GT$3new17hfad0624941390e72E', symObjAddr: 0x25C, symBinAddr: 0x359FC, symSize: 0x7C }
  - { offset: 0x9F99D, size: 0x8, addend: 0x0, symName: '__ZN3std11collections4hash3map20HashMap$LT$K$C$V$GT$3new17hfcf68967a1190747E', symObjAddr: 0x2D8, symBinAddr: 0x35A78, symSize: 0x7C }
  - { offset: 0x9FA59, size: 0x8, addend: 0x0, symName: '__ZN3std11collections4hash3map28HashMap$LT$K$C$V$C$S$C$A$GT$6insert17h18cdf457c17149aeE', symObjAddr: 0x354, symBinAddr: 0x35AF4, symSize: 0x24 }
  - { offset: 0x9FACD, size: 0x8, addend: 0x0, symName: '__ZN3std11collections4hash3map28HashMap$LT$K$C$V$C$S$C$A$GT$6insert17h1f036f1919f77e8eE', symObjAddr: 0x378, symBinAddr: 0x35B18, symSize: 0x2C }
  - { offset: 0x9FB40, size: 0x8, addend: 0x0, symName: '__ZN3std11collections4hash3map28HashMap$LT$K$C$V$C$S$C$A$GT$6insert17hf9de3f81b2ea4e53E', symObjAddr: 0x3A4, symBinAddr: 0x35B44, symSize: 0x30 }
  - { offset: 0x9FCD0, size: 0x8, addend: 0x0, symName: __ZN4pyo33gil8GILGuard6python17h7c13283d06478ce7E, symObjAddr: 0x0, symBinAddr: 0x35E84, symSize: 0x20 }
  - { offset: 0x9FD80, size: 0x8, addend: 0x0, symName: __ZN4pyo33gil8GILGuard6python17h7c13283d06478ce7E, symObjAddr: 0x0, symBinAddr: 0x35E84, symSize: 0x20 }
  - { offset: 0x9FDC0, size: 0x8, addend: 0x0, symName: '__ZN100_$LT$pyo3..pycell..impl_..MutableClass$u20$as$u20$pyo3..pycell..impl_..GetBorrowChecker$LT$T$GT$$GT$14borrow_checker17hf952b83d16999c79E', symObjAddr: 0x0, symBinAddr: 0x35EA4, symSize: 0x14 }
  - { offset: 0xA0336, size: 0x8, addend: 0x0, symName: '__ZN100_$LT$pyo3..pycell..impl_..MutableClass$u20$as$u20$pyo3..pycell..impl_..GetBorrowChecker$LT$T$GT$$GT$14borrow_checker17hf952b83d16999c79E', symObjAddr: 0x0, symBinAddr: 0x35EA4, symSize: 0x14 }
  - { offset: 0xA0371, size: 0x8, addend: 0x0, symName: '__ZN113_$LT$pyo3..pycell..impl_..PyClassObject$LT$T$GT$$u20$as$u20$pyo3..pycell..impl_..PyClassObjectLayout$LT$T$GT$$GT$10tp_dealloc17hcfd34fa9b59cbc6bE', symObjAddr: 0x14, symBinAddr: 0x35EB8, symSize: 0xB4 }
  - { offset: 0xA03D5, size: 0x8, addend: 0x0, symName: '__ZN113_$LT$pyo3..pycell..impl_..PyClassObject$LT$T$GT$$u20$as$u20$pyo3..pycell..impl_..PyClassObjectLayout$LT$T$GT$$GT$17ensure_threadsafe17hdd9aa85e364d4224E', symObjAddr: 0xC8, symBinAddr: 0x35F6C, symSize: 0x30 }
  - { offset: 0xA040E, size: 0x8, addend: 0x0, symName: '__ZN117_$LT$pyo3..pycell..impl_..PyClassObjectBase$LT$U$GT$$u20$as$u20$pyo3..pycell..impl_..PyClassObjectLayout$LT$T$GT$$GT$10tp_dealloc17hdf4880f50affe271E', symObjAddr: 0xF8, symBinAddr: 0x35F9C, symSize: 0x170 }
  - { offset: 0xA04E4, size: 0x8, addend: 0x0, symName: '__ZN117_$LT$pyo3..pycell..impl_..PyClassObjectBase$LT$U$GT$$u20$as$u20$pyo3..pycell..impl_..PyClassObjectLayout$LT$T$GT$$GT$17ensure_threadsafe17hb40b755bf4684988E', symObjAddr: 0x268, symBinAddr: 0x3610C, symSize: 0x10 }
  - { offset: 0xA101A, size: 0x8, addend: 0x0, symName: '__ZN4pyo36pycell5impl_22PyClassObject$LT$T$GT$14borrow_checker17hc559515a0aea126cE', symObjAddr: 0x278, symBinAddr: 0x3611C, symSize: 0x24 }
  - { offset: 0xA1053, size: 0x8, addend: 0x0, symName: '__ZN4pyo36pycell5impl_22PyClassObject$LT$T$GT$7get_ptr17hf19f9feb3ca8f84fE', symObjAddr: 0x29C, symBinAddr: 0x36140, symSize: 0x24 }
  - { offset: 0xA1110, size: 0x8, addend: 0x0, symName: '__ZN59_$LT$alloc..alloc..Global$u20$as$u20$core..clone..Clone$GT$5clone17h57c76ad70bf0fa97E', symObjAddr: 0x0, symBinAddr: 0x36164, symSize: 0x10 }
  - { offset: 0xA1CEF, size: 0x8, addend: 0x0, symName: '__ZN59_$LT$alloc..alloc..Global$u20$as$u20$core..clone..Clone$GT$5clone17h57c76ad70bf0fa97E', symObjAddr: 0x0, symBinAddr: 0x36164, symSize: 0x10 }
  - { offset: 0xA1DA4, size: 0x8, addend: 0x0, symName: '__ZN63_$LT$alloc..alloc..Global$u20$as$u20$core..alloc..Allocator$GT$10deallocate17ha362e1fecb6f2240E', symObjAddr: 0x600, symBinAddr: 0x3672C, symSize: 0x58 }
  - { offset: 0xA1F12, size: 0x8, addend: 0x0, symName: __ZN5alloc5alloc15exchange_malloc17h8b1ea059a682ff55E, symObjAddr: 0x48, symBinAddr: 0x36174, symSize: 0xB0 }
  - { offset: 0xA1FCF, size: 0x8, addend: 0x0, symName: __ZN5alloc5alloc5alloc17hb88f7c0934c67605E, symObjAddr: 0xF8, symBinAddr: 0x36224, symSize: 0x38 }
  - { offset: 0xA2088, size: 0x8, addend: 0x0, symName: __ZN5alloc5alloc7dealloc17h2eacae568f3a1531E, symObjAddr: 0x5C8, symBinAddr: 0x366F4, symSize: 0x38 }
  - { offset: 0xA2323, size: 0x8, addend: 0x0, symName: __ZN5alloc5alloc6Global18alloc_impl_runtime17hed628db7dd492189E, symObjAddr: 0x130, symBinAddr: 0x3625C, symSize: 0x194 }
  - { offset: 0xA285E, size: 0x8, addend: 0x0, symName: __ZN5alloc5alloc6Global19shrink_impl_runtime17h8d2db84701737e59E, symObjAddr: 0x2C4, symBinAddr: 0x363F0, symSize: 0x304 }
  - { offset: 0xA2F71, size: 0x8, addend: 0x0, symName: __ZN4core5alloc6layout6Layout25from_size_align_unchecked17h2b09ccfd715b016dE, symObjAddr: 0x0, symBinAddr: 0x36784, symSize: 0x4C }
  - { offset: 0xA3335, size: 0x8, addend: 0x0, symName: __ZN4core5alloc6layout6Layout25from_size_align_unchecked18precondition_check17h161e608221bf1536E, symObjAddr: 0x4C, symBinAddr: 0x367D0, symSize: 0xBC }
  - { offset: 0xA35BE, size: 0x8, addend: 0x0, symName: __ZN4core5alloc6layout6Layout25from_size_align_unchecked17h2b09ccfd715b016dE, symObjAddr: 0x0, symBinAddr: 0x36784, symSize: 0x4C }
  - { offset: 0xA3664, size: 0x8, addend: 0x0, symName: __ZN4core5alloc6layout6Layout4size17hb40c1bb38736939bE, symObjAddr: 0x108, symBinAddr: 0x3688C, symSize: 0x18 }
  - { offset: 0xA3686, size: 0x8, addend: 0x0, symName: __ZN4core5alloc6layout6Layout5align17hc50a3822d505bc88E, symObjAddr: 0x120, symBinAddr: 0x368A4, symSize: 0x18 }
  - { offset: 0xA36C6, size: 0x8, addend: 0x0, symName: '__ZN100_$LT$pyo3..types..tuple..BorrowedTupleIterator$u20$as$u20$core..iter..traits..iterator..Iterator$GT$4next17hadc701763c1f492fE', symObjAddr: 0x0, symBinAddr: 0x368BC, symSize: 0x9C }
  - { offset: 0xA376C, size: 0x8, addend: 0x0, symName: '__ZN100_$LT$pyo3..types..tuple..BorrowedTupleIterator$u20$as$u20$core..iter..traits..iterator..Iterator$GT$4next17hadc701763c1f492fE', symObjAddr: 0x0, symBinAddr: 0x368BC, symSize: 0x9C }
  - { offset: 0xA3B68, size: 0x8, addend: 0x0, symName: '__ZN57_$LT$$RF$T$u20$as$u20$serde_json..value..index..Index$GT$10index_into17ha3fb3e465e41ca22E', symObjAddr: 0x0, symBinAddr: 0x36958, symSize: 0x3C }
  - { offset: 0xA3B89, size: 0x8, addend: 0x0, symName: '__ZN57_$LT$$RF$T$u20$as$u20$serde_json..value..index..Index$GT$10index_into17ha3fb3e465e41ca22E', symObjAddr: 0x0, symBinAddr: 0x36958, symSize: 0x3C }
  - { offset: 0xA4560, size: 0x8, addend: 0x0, symName: __ZN4core3ptr12align_offset17hd6bfe6bff702501eE, symObjAddr: 0x0, symBinAddr: 0x36994, symSize: 0x1C8 }
  - { offset: 0xA4704, size: 0x8, addend: 0x0, symName: __ZN4core3ptr12align_offset17hd6bfe6bff702501eE, symObjAddr: 0x0, symBinAddr: 0x36994, symSize: 0x1C8 }
  - { offset: 0xA4A4B, size: 0x8, addend: 0x0, symName: __ZN4core3ptr19swap_nonoverlapping17h40f1465f0dd78b81E, symObjAddr: 0x350, symBinAddr: 0x36B5C, symSize: 0xBC }
  - { offset: 0xA4B97, size: 0x8, addend: 0x0, symName: '__ZN4core3ptr52_$LT$impl$u20$core..cmp..PartialEq$u20$for$u20$F$GT$2eq17h7074b7ae48ea4565E', symObjAddr: 0x70C, symBinAddr: 0x36C18, symSize: 0x50 }
  - { offset: 0xA4BDE, size: 0x8, addend: 0x0, symName: __ZN4core3ptr5write17hf94518a066b5b867E, symObjAddr: 0x75C, symBinAddr: 0x36C68, symSize: 0x2C }
  - { offset: 0xA58CF, size: 0x8, addend: 0x0, symName: __ZN5alloc3fmt6format17hacfad5123ef45a0bE, symObjAddr: 0x0, symBinAddr: 0x36C94, symSize: 0xD8 }
  - { offset: 0xA5DE7, size: 0x8, addend: 0x0, symName: __ZN5alloc3fmt6format17hacfad5123ef45a0bE, symObjAddr: 0x0, symBinAddr: 0x36C94, symSize: 0xD8 }
  - { offset: 0xA5F97, size: 0x8, addend: 0x0, symName: '__ZN63_$LT$serde_json..ser..State$u20$as$u20$core..cmp..PartialEq$GT$2eq17h9aa0adb1e4dc14d6E', symObjAddr: 0x0, symBinAddr: 0x36D6C, symSize: 0x34 }
  - { offset: 0xA5FD1, size: 0x8, addend: 0x0, symName: '__ZN63_$LT$serde_json..ser..State$u20$as$u20$core..cmp..PartialEq$GT$2eq17h9aa0adb1e4dc14d6E', symObjAddr: 0x0, symBinAddr: 0x36D6C, symSize: 0x34 }
  - { offset: 0xA608D, size: 0x8, addend: 0x0, symName: __ZN4core4char7methods15encode_utf8_raw17h6821edffc174e78aE, symObjAddr: 0x0, symBinAddr: 0x36DA0, symSize: 0x100 }
  - { offset: 0xA60FF, size: 0x8, addend: 0x0, symName: __ZN4core4char7methods15encode_utf8_raw8do_panic7runtime17h897c0e03323b2257E, symObjAddr: 0x100, symBinAddr: 0x36EA0, symSize: 0xC4 }
  - { offset: 0xA61FC, size: 0x8, addend: 0x0, symName: __ZN4core4char7methods15encode_utf8_raw17h6821edffc174e78aE, symObjAddr: 0x0, symBinAddr: 0x36DA0, symSize: 0x100 }
  - { offset: 0xA631D, size: 0x8, addend: 0x0, symName: '__ZN4core4char7methods22_$LT$impl$u20$char$GT$8to_digit17hde9379501c78f5a4E', symObjAddr: 0x1C4, symBinAddr: 0x36F64, symSize: 0x120 }
  - { offset: 0xA63D3, size: 0x8, addend: 0x0, symName: __ZN4core4char7methods25encode_utf8_raw_unchecked17h4eeb4671b7127909E, symObjAddr: 0x2E4, symBinAddr: 0x37084, symSize: 0x188 }
  - { offset: 0xA6BA5, size: 0x8, addend: 0x0, symName: '__ZN57_$LT$memmap2..Mmap$u20$as$u20$core..ops..deref..Deref$GT$5deref17hb808d8cfa0e24a12E', symObjAddr: 0x0, symBinAddr: 0x3720C, symSize: 0x4C }
  - { offset: 0xA6BE7, size: 0x8, addend: 0x0, symName: '__ZN57_$LT$memmap2..Mmap$u20$as$u20$core..ops..deref..Deref$GT$5deref17hb808d8cfa0e24a12E', symObjAddr: 0x0, symBinAddr: 0x3720C, symSize: 0x4C }
  - { offset: 0xA6CB9, size: 0x8, addend: 0x0, symName: '__ZN5alloc3vec13in_place_drop20InPlaceDrop$LT$T$GT$3len17hffeb68f068039cd2E', symObjAddr: 0x0, symBinAddr: 0x37258, symSize: 0x84 }
  - { offset: 0xA7096, size: 0x8, addend: 0x0, symName: '__ZN5alloc3vec13in_place_drop20InPlaceDrop$LT$T$GT$3len17hffeb68f068039cd2E', symObjAddr: 0x0, symBinAddr: 0x37258, symSize: 0x84 }
  - { offset: 0xA7159, size: 0x8, addend: 0x0, symName: '__ZN4core3str6traits110_$LT$impl$u20$core..slice..index..SliceIndex$LT$str$GT$$u20$for$u20$core..ops..range..RangeTo$LT$usize$GT$$GT$3get17h08040fe925ca2b9cE', symObjAddr: 0x0, symBinAddr: 0x372DC, symSize: 0x140 }
  - { offset: 0xA7233, size: 0x8, addend: 0x0, symName: '__ZN4core3str6traits110_$LT$impl$u20$core..slice..index..SliceIndex$LT$str$GT$$u20$for$u20$core..ops..range..RangeTo$LT$usize$GT$$GT$3get17h08040fe925ca2b9cE', symObjAddr: 0x0, symBinAddr: 0x372DC, symSize: 0x140 }
  - { offset: 0xA7354, size: 0x8, addend: 0x0, symName: '__ZN4core3str6traits110_$LT$impl$u20$core..slice..index..SliceIndex$LT$str$GT$$u20$for$u20$core..ops..range..RangeTo$LT$usize$GT$$GT$5index17hc42d469e5435ae0cE', symObjAddr: 0x140, symBinAddr: 0x3741C, symSize: 0x84 }
  - { offset: 0xA73E7, size: 0x8, addend: 0x0, symName: '__ZN4core3str6traits112_$LT$impl$u20$core..slice..index..SliceIndex$LT$str$GT$$u20$for$u20$core..ops..range..RangeFrom$LT$usize$GT$$GT$3get17hfab9c7d331e06864E', symObjAddr: 0x1C4, symBinAddr: 0x374A0, symSize: 0x150 }
  - { offset: 0xA78AA, size: 0x8, addend: 0x0, symName: '__ZN128_$LT$pyo3..impl_..pyclass_init..PyNativeTypeInitializer$LT$T$GT$$u20$as$u20$pyo3..impl_..pyclass_init..PyObjectInit$LT$T$GT$$GT$15into_new_object17h4f1cad7b791fb20bE', symObjAddr: 0x0, symBinAddr: 0x375F0, symSize: 0x3C }
  - { offset: 0xA7950, size: 0x8, addend: 0x0, symName: '__ZN128_$LT$pyo3..impl_..pyclass_init..PyNativeTypeInitializer$LT$T$GT$$u20$as$u20$pyo3..impl_..pyclass_init..PyObjectInit$LT$T$GT$$GT$15into_new_object17h4f1cad7b791fb20bE', symObjAddr: 0x0, symBinAddr: 0x375F0, symSize: 0x3C }
  - { offset: 0xA79D4, size: 0x8, addend: 0x0, symName: '__ZN128_$LT$pyo3..impl_..pyclass_init..PyNativeTypeInitializer$LT$T$GT$$u20$as$u20$pyo3..impl_..pyclass_init..PyObjectInit$LT$T$GT$$GT$17can_be_subclassed17hcca8e269b8d8886eE', symObjAddr: 0x3C, symBinAddr: 0x3762C, symSize: 0x18 }
  - { offset: 0xA81FA, size: 0x8, addend: 0x0, symName: '__ZN50_$LT$T$u20$as$u20$core..convert..Into$LT$U$GT$$GT$4into17hce843c3d26d924beE', symObjAddr: 0x0, symBinAddr: 0x37644, symSize: 0x20 }
  - { offset: 0xA823E, size: 0x8, addend: 0x0, symName: '__ZN50_$LT$T$u20$as$u20$core..convert..Into$LT$U$GT$$GT$4into17hce843c3d26d924beE', symObjAddr: 0x0, symBinAddr: 0x37644, symSize: 0x20 }
  - { offset: 0xA82A2, size: 0x8, addend: 0x0, symName: '__ZN53_$LT$T$u20$as$u20$core..convert..TryInto$LT$U$GT$$GT$8try_into17h4e2d7568fd139536E', symObjAddr: 0x20, symBinAddr: 0x37664, symSize: 0x58 }
  - { offset: 0xA82E8, size: 0x8, addend: 0x0, symName: '__ZN55_$LT$$RF$T$u20$as$u20$core..convert..AsRef$LT$U$GT$$GT$6as_ref17h49f5d91777c96387E', symObjAddr: 0x78, symBinAddr: 0x376BC, symSize: 0x30 }
  - { offset: 0xA8328, size: 0x8, addend: 0x0, symName: '__ZN55_$LT$$RF$T$u20$as$u20$core..convert..AsRef$LT$U$GT$$GT$6as_ref17hace00f937db4d688E', symObjAddr: 0xA8, symBinAddr: 0x376EC, symSize: 0x28 }
  - { offset: 0xA8550, size: 0x8, addend: 0x0, symName: __ZN10serde_core3ser10Serializer11collect_seq17h2b2f2ec355ac2af3E, symObjAddr: 0x0, symBinAddr: 0x37714, symSize: 0x204 }
  - { offset: 0xA87D1, size: 0x8, addend: 0x0, symName: __ZN10serde_core3ser10Serializer11collect_seq17h2b2f2ec355ac2af3E, symObjAddr: 0x0, symBinAddr: 0x37714, symSize: 0x204 }
  - { offset: 0xA88A5, size: 0x8, addend: 0x0, symName: __ZN10serde_core3ser10Serializer11collect_seq17h9194e40c0a3b6757E, symObjAddr: 0x204, symBinAddr: 0x37918, symSize: 0x204 }
  - { offset: 0xA897F, size: 0x8, addend: 0x0, symName: __ZN10serde_core3ser12SerializeMap15serialize_entry17h800aecff9c15d397E, symObjAddr: 0x408, symBinAddr: 0x37B1C, symSize: 0x78 }
  - { offset: 0xA8A1A, size: 0x8, addend: 0x0, symName: '__ZN82_$LT$serde_json..value..ser..Serializer$u20$as$u20$serde_core..ser..Serializer$GT$14serialize_some17h81be0d4b6841ee46E', symObjAddr: 0x480, symBinAddr: 0x37B94, symSize: 0x24 }
  - { offset: 0xA8A6E, size: 0x8, addend: 0x0, symName: '__ZN86_$LT$serde_json..value..ser..SerializeMap$u20$as$u20$serde_core..ser..SerializeMap$GT$13serialize_key17h0d8763c98b5f45e2E', symObjAddr: 0x4A4, symBinAddr: 0x37BB8, symSize: 0xE4 }
  - { offset: 0xA8AE8, size: 0x8, addend: 0x0, symName: '__ZN86_$LT$serde_json..value..ser..SerializeMap$u20$as$u20$serde_core..ser..SerializeMap$GT$15serialize_value17h7ee72bb30c2bc129E', symObjAddr: 0x588, symBinAddr: 0x37C9C, symSize: 0x154 }
  - { offset: 0xA8BA9, size: 0x8, addend: 0x0, symName: '__ZN86_$LT$serde_json..value..ser..SerializeVec$u20$as$u20$serde_core..ser..SerializeSeq$GT$17serialize_element17h24d0aaefcd8b00bfE', symObjAddr: 0x6DC, symBinAddr: 0x37DF0, symSize: 0x98 }
  - { offset: 0xA8C0D, size: 0x8, addend: 0x0, symName: '__ZN86_$LT$serde_json..value..ser..SerializeVec$u20$as$u20$serde_core..ser..SerializeSeq$GT$17serialize_element17hf45da8f540ee9a71E', symObjAddr: 0x774, symBinAddr: 0x37E88, symSize: 0x98 }
  - { offset: 0xA9CBA, size: 0x8, addend: 0x0, symName: '__ZN106_$LT$core..ops..range..Range$LT$usize$GT$$u20$as$u20$core..slice..index..SliceIndex$LT$$u5b$T$u5d$$GT$$GT$17get_unchecked_mut18precondition_check17haf8633d52d11a8cdE', symObjAddr: 0x0, symBinAddr: 0x37F20, symSize: 0x80 }
  - { offset: 0xA9CE0, size: 0x8, addend: 0x0, symName: '__ZN106_$LT$core..ops..range..Range$LT$usize$GT$$u20$as$u20$core..slice..index..SliceIndex$LT$$u5b$T$u5d$$GT$$GT$17get_unchecked_mut18precondition_check17haf8633d52d11a8cdE', symObjAddr: 0x0, symBinAddr: 0x37F20, symSize: 0x80 }
  - { offset: 0xA9D4D, size: 0x8, addend: 0x0, symName: '__ZN75_$LT$usize$u20$as$u20$core..slice..index..SliceIndex$LT$$u5b$T$u5d$$GT$$GT$13get_unchecked18precondition_check17h383176725f15acf2E', symObjAddr: 0x80, symBinAddr: 0x37FA0, symSize: 0x60 }
  - { offset: 0xA9DF8, size: 0x8, addend: 0x0, symName: __ZN3std4sync4once4Once15call_once_force17hebc7fb6d7e48dce0E, symObjAddr: 0x0, symBinAddr: 0x38000, symSize: 0xEC }
  - { offset: 0xA9E2C, size: 0x8, addend: 0x0, symName: '__ZN3std4sync4once4Once15call_once_force28_$u7b$$u7b$closure$u7d$$u7d$17hfe697e912d4f3394E', symObjAddr: 0xEC, symBinAddr: 0x380EC, symSize: 0x84 }
  - { offset: 0xAA4BB, size: 0x8, addend: 0x0, symName: __ZN3std4sync4once4Once15call_once_force17hebc7fb6d7e48dce0E, symObjAddr: 0x0, symBinAddr: 0x38000, symSize: 0xEC }
  - { offset: 0xAA607, size: 0x8, addend: 0x0, symName: __ZN12flash_expert11split_model17h2b408ea800933cabE, symObjAddr: 0x0, symBinAddr: 0x38170, symSize: 0x74 }
  - { offset: 0xAA630, size: 0x8, addend: 0x0, symName: '__ZN12flash_expert184_$LT$impl$u20$pyo3..impl_..pyclass..PyMethods$LT$flash_expert..FlashExpertManager$GT$$u20$for$u20$pyo3..impl_..pyclass..PyClassImplCollector$LT$flash_expert..FlashExpertManager$GT$$GT$10py_methods5ITEMS17h90632584c88eff75E', symObjAddr: 0x3280, symBinAddr: 0x1873D0, symSize: 0x0 }
  - { offset: 0xAA642, size: 0x8, addend: 0x0, symName: '__ZN12flash_expert184_$LT$impl$u20$pyo3..impl_..pyclass..PyMethods$LT$flash_expert..FlashExpertManager$GT$$u20$for$u20$pyo3..impl_..pyclass..PyClassImplCollector$LT$flash_expert..FlashExpertManager$GT$$GT$10py_methods5ITEMS10trampoline17h096d6d47899dd6ddE', symObjAddr: 0x74, symBinAddr: 0x381E4, symSize: 0x4C }
  - { offset: 0xAA68A, size: 0x8, addend: 0x0, symName: '__ZN12flash_expert184_$LT$impl$u20$pyo3..impl_..pyclass..PyMethods$LT$flash_expert..FlashExpertManager$GT$$u20$for$u20$pyo3..impl_..pyclass..PyClassImplCollector$LT$flash_expert..FlashExpertManager$GT$$GT$10py_methods5ITEMS10trampoline17h13f0390f4e304d72E', symObjAddr: 0xC0, symBinAddr: 0x38230, symSize: 0x44 }
  - { offset: 0xAA6C4, size: 0x8, addend: 0x0, symName: '__ZN12flash_expert184_$LT$impl$u20$pyo3..impl_..pyclass..PyMethods$LT$flash_expert..FlashExpertManager$GT$$u20$for$u20$pyo3..impl_..pyclass..PyClassImplCollector$LT$flash_expert..FlashExpertManager$GT$$GT$10py_methods5ITEMS10trampoline17h1d388be180701466E', symObjAddr: 0x104, symBinAddr: 0x38274, symSize: 0x50 }
  - { offset: 0xAA71A, size: 0x8, addend: 0x0, symName: '__ZN12flash_expert184_$LT$impl$u20$pyo3..impl_..pyclass..PyMethods$LT$flash_expert..FlashExpertManager$GT$$u20$for$u20$pyo3..impl_..pyclass..PyClassImplCollector$LT$flash_expert..FlashExpertManager$GT$$GT$10py_methods5ITEMS10trampoline17ha3a9f8f73f3d05ecE', symObjAddr: 0x154, symBinAddr: 0x382C4, symSize: 0x44 }
  - { offset: 0xAA754, size: 0x8, addend: 0x0, symName: '__ZN12flash_expert184_$LT$impl$u20$pyo3..impl_..pyclass..PyMethods$LT$flash_expert..FlashExpertManager$GT$$u20$for$u20$pyo3..impl_..pyclass..PyClassImplCollector$LT$flash_expert..FlashExpertManager$GT$$GT$10py_methods5ITEMS10trampoline17haa540232c9af0fdaE', symObjAddr: 0x198, symBinAddr: 0x38308, symSize: 0x44 }
  - { offset: 0xAA96D, size: 0x8, addend: 0x0, symName: '__ZN86_$LT$flash_expert..FlashExpertManager$u20$as$u20$pyo3..impl_..pyclass..PyClassImpl$GT$10items_iter15INTRINSIC_ITEMS17h053d195a0c800a0bE', symObjAddr: 0x3760, symBinAddr: 0x10FF28, symSize: 0x0 }
  - { offset: 0xAA98D, size: 0x8, addend: 0x0, symName: '__ZN86_$LT$flash_expert..FlashExpertManager$u20$as$u20$pyo3..impl_..pyclass..PyClassImpl$GT$16lazy_type_object11TYPE_OBJECT17h9ebb5ab30ac95781E', symObjAddr: 0x3790, symBinAddr: 0x190578, symSize: 0x0 }
  - { offset: 0xAA9AD, size: 0x8, addend: 0x0, symName: '__ZN86_$LT$flash_expert..FlashExpertManager$u20$as$u20$pyo3..impl_..pyclass..PyClassImpl$GT$3doc3DOC17h01274dc455d892c8E', symObjAddr: 0x37E8, symBinAddr: 0x1905D0, symSize: 0x0 }
  - { offset: 0xAA9BB, size: 0x8, addend: 0x0, symName: '__ZN86_$LT$flash_expert..FlashExpertManager$u20$as$u20$pyo3..impl_..pyclass..PyClassImpl$GT$10items_iter17h31973c5c04776345E', symObjAddr: 0x29E4, symBinAddr: 0x3AB54, symSize: 0x38 }
  - { offset: 0xAA9F6, size: 0x8, addend: 0x0, symName: '__ZN86_$LT$flash_expert..FlashExpertManager$u20$as$u20$pyo3..impl_..pyclass..PyClassImpl$GT$16lazy_type_object17hc12f787ddd38250eE', symObjAddr: 0x2A1C, symBinAddr: 0x3AB8C, symSize: 0xC }
  - { offset: 0xAAA13, size: 0x8, addend: 0x0, symName: '__ZN86_$LT$flash_expert..FlashExpertManager$u20$as$u20$pyo3..impl_..pyclass..PyClassImpl$GT$3doc17hbbb8fffca60d1431E', symObjAddr: 0x2A28, symBinAddr: 0x3AB98, symSize: 0x3C }
  - { offset: 0xAAB84, size: 0x8, addend: 0x0, symName: __ZN12flash_expert11split_model17h2b408ea800933cabE, symObjAddr: 0x0, symBinAddr: 0x38170, symSize: 0x74 }
  - { offset: 0xAABBE, size: 0x8, addend: 0x0, symName: __ZN12flash_expert24__pyfunction_split_model17h5f98591394ed9c51E, symObjAddr: 0x2390, symBinAddr: 0x3A500, symSize: 0x404 }
  - { offset: 0xAAD75, size: 0x8, addend: 0x0, symName: '__ZN12flash_expert48_$LT$impl$u20$flash_expert.._native..MakeDef$GT$8make_def15__pyo3_pymodule17h4cb0494f76095341E', symObjAddr: 0x2794, symBinAddr: 0x3A904, symSize: 0x38 }
  - { offset: 0xAADAD, size: 0x8, addend: 0x0, symName: '__ZN12flash_expert52_$LT$impl$u20$flash_expert..split_model..MakeDef$GT$9_PYO3_DEF10trampoline17h093ba0cc62ec06c7E', symObjAddr: 0x27CC, symBinAddr: 0x3A93C, symSize: 0x50 }
  - { offset: 0xAAE05, size: 0x8, addend: 0x0, symName: __ZN12flash_expert7_native17h2c3829bd770ea650E, symObjAddr: 0x281C, symBinAddr: 0x3A98C, symSize: 0x1A4 }
  - { offset: 0xAAE91, size: 0x8, addend: 0x0, symName: '__ZN82_$LT$flash_expert..FlashExpertManager$u20$as$u20$pyo3..type_object..PyTypeInfo$GT$15type_object_raw17hd15cc6dc3433e684E', symObjAddr: 0x29C0, symBinAddr: 0x3AB30, symSize: 0x24 }
  - { offset: 0xADA01, size: 0x8, addend: 0x0, symName: __ZN12flash_expert18FlashExpertManager10num_layers17hb3bd3f6540669bd9E, symObjAddr: 0x1DC, symBinAddr: 0x3834C, symSize: 0x24 }
  - { offset: 0xADAAF, size: 0x8, addend: 0x0, symName: __ZN12flash_expert18FlashExpertManager11cache_bytes17h8d8f297ee02cc89bE, symObjAddr: 0x200, symBinAddr: 0x38370, symSize: 0x124 }
  - { offset: 0xADB4E, size: 0x8, addend: 0x0, symName: __ZN12flash_expert18FlashExpertManager11cache_stats17hc0062b104fa19c7cE, symObjAddr: 0x324, symBinAddr: 0x38494, symSize: 0x124 }
  - { offset: 0xADBDB, size: 0x8, addend: 0x0, symName: __ZN12flash_expert18FlashExpertManager12load_experts17h8c756f99686d81e0E, symObjAddr: 0x448, symBinAddr: 0x385B8, symSize: 0xDB8 }
  - { offset: 0xADE91, size: 0x8, addend: 0x0, symName: __ZN12flash_expert18FlashExpertManager20__pymethod___new____17h9c6c89e2d6a20434E, symObjAddr: 0x1200, symBinAddr: 0x39370, symSize: 0x3F0 }
  - { offset: 0xAE035, size: 0x8, addend: 0x0, symName: __ZN12flash_expert18FlashExpertManager23__pymethod_num_layers__17h83f46b14a6818dc6E, symObjAddr: 0x15F0, symBinAddr: 0x39760, symSize: 0x214 }
  - { offset: 0xAE125, size: 0x8, addend: 0x0, symName: __ZN12flash_expert18FlashExpertManager24__pymethod_cache_bytes__17hed43fa66ef731e28E, symObjAddr: 0x1804, symBinAddr: 0x39974, symSize: 0x214 }
  - { offset: 0xAE215, size: 0x8, addend: 0x0, symName: __ZN12flash_expert18FlashExpertManager24__pymethod_cache_stats__17hfaa474fd5407b560E, symObjAddr: 0x1A18, symBinAddr: 0x39B88, symSize: 0x228 }
  - { offset: 0xAE305, size: 0x8, addend: 0x0, symName: __ZN12flash_expert18FlashExpertManager25__pymethod_load_experts__17h0b4407692df446feE, symObjAddr: 0x1C40, symBinAddr: 0x39DB0, symSize: 0x548 }
  - { offset: 0xAE4C4, size: 0x8, addend: 0x0, symName: __ZN12flash_expert18FlashExpertManager3new17hcaa14604c9e29106E, symObjAddr: 0x2188, symBinAddr: 0x3A2F8, symSize: 0x208 }
  - { offset: 0xAE798, size: 0x8, addend: 0x0, symName: __ZN5rayon4iter7collect14special_extend17h847777045130f43cE, symObjAddr: 0x0, symBinAddr: 0x3ABD4, symSize: 0x58 }
  - { offset: 0xAEB51, size: 0x8, addend: 0x0, symName: __ZN5rayon4iter7collect14special_extend17h847777045130f43cE, symObjAddr: 0x0, symBinAddr: 0x3ABD4, symSize: 0x58 }
  - { offset: 0xAEBAD, size: 0x8, addend: 0x0, symName: '__ZN5rayon4iter7collect14special_extend28_$u7b$$u7b$closure$u7d$$u7d$17h5393439adc664068E', symObjAddr: 0x58, symBinAddr: 0x3AC2C, symSize: 0x60 }
  - { offset: 0xAEC0F, size: 0x8, addend: 0x0, symName: __ZN5rayon4iter7collect21collect_with_consumer17h0e9108955532df9bE, symObjAddr: 0xB8, symBinAddr: 0x3AC8C, symSize: 0x240 }
  - { offset: 0xAF8A2, size: 0x8, addend: 0x0, symName: '__ZN4pyo34sync20GILOnceCell$LT$T$GT$15get_or_try_init17h401208c9d027e9dcE', symObjAddr: 0x0, symBinAddr: 0x3AECC, symSize: 0xB4 }
  - { offset: 0xAFA3D, size: 0x8, addend: 0x0, symName: '__ZN4pyo34sync20GILOnceCell$LT$T$GT$3set28_$u7b$$u7b$closure$u7d$$u7d$17h4a4266d48e17667bE', symObjAddr: 0x220, symBinAddr: 0x3B0EC, symSize: 0x110 }
  - { offset: 0xB07E7, size: 0x8, addend: 0x0, symName: '__ZN4pyo34sync20GILOnceCell$LT$T$GT$15get_or_try_init17h401208c9d027e9dcE', symObjAddr: 0x0, symBinAddr: 0x3AECC, symSize: 0xB4 }
  - { offset: 0xB0860, size: 0x8, addend: 0x0, symName: '__ZN4pyo34sync20GILOnceCell$LT$T$GT$3get17h66791697165bb65aE', symObjAddr: 0xB4, symBinAddr: 0x3AF80, symSize: 0xA8 }
  - { offset: 0xB08A4, size: 0x8, addend: 0x0, symName: '__ZN4pyo34sync20GILOnceCell$LT$T$GT$3set17h90126da2840cfcb9E', symObjAddr: 0x15C, symBinAddr: 0x3B028, symSize: 0xC4 }
  - { offset: 0xB0A47, size: 0x8, addend: 0x0, symName: '__ZN4pyo34sync20GILOnceCell$LT$T$GT$4init17h1e97a291466df8efE', symObjAddr: 0x330, symBinAddr: 0xFECBC, symSize: 0x1A0 }
  - { offset: 0xB0B50, size: 0x8, addend: 0x0, symName: __ZN10rayon_core8registry12WorkerThread14take_local_job17h82b87db5c8477307E, symObjAddr: 0x0, symBinAddr: 0x3B1FC, symSize: 0xBC }
  - { offset: 0xB0EBA, size: 0x8, addend: 0x0, symName: '__ZN73_$LT$rayon_core..registry..RegistryId$u20$as$u20$core..cmp..PartialEq$GT$2eq17h5e3b3eaba0ec0670E', symObjAddr: 0x1B4, symBinAddr: 0x3B3B0, symSize: 0x2C }
  - { offset: 0xB1C2B, size: 0x8, addend: 0x0, symName: __ZN10rayon_core8registry12WorkerThread14take_local_job17h82b87db5c8477307E, symObjAddr: 0x0, symBinAddr: 0x3B1FC, symSize: 0xBC }
  - { offset: 0xB1C8A, size: 0x8, addend: 0x0, symName: __ZN10rayon_core8registry12WorkerThread4push17hfb2621a9d7b077bbE, symObjAddr: 0xBC, symBinAddr: 0x3B2B8, symSize: 0x74 }
  - { offset: 0xB1CDA, size: 0x8, addend: 0x0, symName: __ZN10rayon_core8registry12WorkerThread5index17h9a0f70be99cf3879E, symObjAddr: 0x130, symBinAddr: 0x3B32C, symSize: 0x18 }
  - { offset: 0xB1D0A, size: 0x8, addend: 0x0, symName: __ZN10rayon_core8registry12WorkerThread7current17h3f5a0804a55f95bdE, symObjAddr: 0x148, symBinAddr: 0x3B344, symSize: 0x1C }
  - { offset: 0xB1D1D, size: 0x8, addend: 0x0, symName: __ZN10rayon_core8registry12WorkerThread7execute17hbc82879fa95d9a0dE, symObjAddr: 0x164, symBinAddr: 0x3B360, symSize: 0x3C }
  - { offset: 0xB1D5C, size: 0x8, addend: 0x0, symName: __ZN10rayon_core8registry12WorkerThread8registry17h3ed018bbac4834e9E, symObjAddr: 0x1A0, symBinAddr: 0x3B39C, symSize: 0x14 }
  - { offset: 0xB1DAA, size: 0x8, addend: 0x0, symName: '__ZN103_$LT$alloc..vec..into_iter..IntoIter$LT$T$C$A$GT$$u20$as$u20$core..iter..traits..iterator..Iterator$GT$4next17had0cf0edc9aa8fe2E', symObjAddr: 0x0, symBinAddr: 0x3B3DC, symSize: 0xAC }
  - { offset: 0xB27C5, size: 0x8, addend: 0x0, symName: __ZN4core4iter6traits8iterator8Iterator3map17hbb05650af0795d7bE, symObjAddr: 0x3D8, symBinAddr: 0x3B7B4, symSize: 0x1C }
  - { offset: 0xB2832, size: 0x8, addend: 0x0, symName: __ZN4core4iter6traits8iterator8Iterator3zip17h6e5d5cb8b11b58faE, symObjAddr: 0x3F4, symBinAddr: 0x3B7D0, symSize: 0xC0 }
  - { offset: 0xB2B39, size: 0x8, addend: 0x0, symName: '__ZN103_$LT$alloc..vec..into_iter..IntoIter$LT$T$C$A$GT$$u20$as$u20$core..iter..traits..iterator..Iterator$GT$4next17had0cf0edc9aa8fe2E', symObjAddr: 0x0, symBinAddr: 0x3B3DC, symSize: 0xAC }
  - { offset: 0xB2C97, size: 0x8, addend: 0x0, symName: '__ZN103_$LT$alloc..vec..into_iter..IntoIter$LT$T$C$A$GT$$u20$as$u20$core..iter..traits..iterator..Iterator$GT$8try_fold17h9a5f60808f6aa2caE', symObjAddr: 0xAC, symBinAddr: 0x3B488, symSize: 0x1B0 }
  - { offset: 0xB2E5B, size: 0x8, addend: 0x0, symName: '__ZN103_$LT$alloc..vec..into_iter..IntoIter$LT$T$C$A$GT$$u20$as$u20$core..iter..traits..iterator..Iterator$GT$9size_hint17h0936ad050212da82E', symObjAddr: 0x25C, symBinAddr: 0x3B638, symSize: 0xB4 }
  - { offset: 0xB2F74, size: 0x8, addend: 0x0, symName: '__ZN103_$LT$alloc..vec..into_iter..IntoIter$LT$T$C$A$GT$$u20$as$u20$core..iter..traits..iterator..Iterator$GT$9size_hint17h55ff21ac6a1cb118E', symObjAddr: 0x310, symBinAddr: 0x3B6EC, symSize: 0xB4 }
  - { offset: 0xB3093, size: 0x8, addend: 0x0, symName: '__ZN104_$LT$alloc..vec..into_iter..IntoIter$LT$T$GT$$u20$as$u20$alloc..vec..in_place_collect..AsVecIntoIter$GT$12as_into_iter17h4afaa5418bd0e0ecE', symObjAddr: 0x3C4, symBinAddr: 0x3B7A0, symSize: 0x14 }
  - { offset: 0xB3207, size: 0x8, addend: 0x0, symName: '__ZN97_$LT$alloc..vec..into_iter..IntoIter$LT$T$C$A$GT$$u20$as$u20$core..iter..adapters..SourceIter$GT$8as_inner17ha50bc0aaa6ae093dE', symObjAddr: 0x6CC, symBinAddr: 0x3BAA8, symSize: 0x14 }
  - { offset: 0xB36B7, size: 0x8, addend: 0x0, symName: '__ZN5alloc3vec9into_iter21IntoIter$LT$T$C$A$GT$16as_raw_mut_slice17h75e96e1a2a48a95aE', symObjAddr: 0x4B4, symBinAddr: 0x3B890, symSize: 0xCC }
  - { offset: 0xB3807, size: 0x8, addend: 0x0, symName: '__ZN5alloc3vec9into_iter21IntoIter$LT$T$C$A$GT$16as_raw_mut_slice17ha08b29fb7b234ba0E', symObjAddr: 0x580, symBinAddr: 0x3B95C, symSize: 0xCC }
  - { offset: 0xB397B, size: 0x8, addend: 0x0, symName: '__ZN5alloc3vec9into_iter21IntoIter$LT$T$C$A$GT$32forget_allocation_drop_remaining17h3bc8246a30f31e41E', symObjAddr: 0x64C, symBinAddr: 0x3BA28, symSize: 0x80 }
  - { offset: 0xB3AAA, size: 0x8, addend: 0x0, symName: '__ZN12flash_expert7_native11__pyo3_init28_$u7b$$u7b$closure$u7d$$u7d$17h4307840f958efe8fE', symObjAddr: 0x0, symBinAddr: 0x3BABC, symSize: 0x30 }
  - { offset: 0xB3B4B, size: 0x8, addend: 0x0, symName: '__ZN12flash_expert7_native11__pyo3_init28_$u7b$$u7b$closure$u7d$$u7d$17h4307840f958efe8fE', symObjAddr: 0x0, symBinAddr: 0x3BABC, symSize: 0x30 }
  - { offset: 0xB43A2, size: 0x8, addend: 0x0, symName: '__ZN5alloc4sync12Arc$LT$T$GT$3new17h071d105216fbe07dE', symObjAddr: 0x0, symBinAddr: 0x3BAEC, symSize: 0xC0 }
  - { offset: 0xB47CC, size: 0x8, addend: 0x0, symName: '__ZN68_$LT$alloc..sync..Arc$LT$T$C$A$GT$$u20$as$u20$core..clone..Clone$GT$5clone17hc5e793be34d51fe3E', symObjAddr: 0x134, symBinAddr: 0x3BC20, symSize: 0x84 }
  - { offset: 0xB48C5, size: 0x8, addend: 0x0, symName: '__ZN73_$LT$alloc..sync..Arc$LT$T$C$A$GT$$u20$as$u20$core..ops..deref..Deref$GT$5deref17h3185d47ccba1e1cdE', symObjAddr: 0x1B8, symBinAddr: 0x3BCA4, symSize: 0x1C }
  - { offset: 0xB4ADF, size: 0x8, addend: 0x0, symName: '__ZN5alloc4sync12Arc$LT$T$GT$3new17h071d105216fbe07dE', symObjAddr: 0x0, symBinAddr: 0x3BAEC, symSize: 0xC0 }
  - { offset: 0xB4C17, size: 0x8, addend: 0x0, symName: '__ZN5alloc4sync16Arc$LT$T$C$A$GT$9drop_slow17hdf908ac1d4eb7aedE', symObjAddr: 0xC0, symBinAddr: 0x3BBAC, symSize: 0x74 }
  - { offset: 0xB4DA3, size: 0x8, addend: 0x0, symName: __ZN4pyo35impl_10trampoline10trampoline17h2c6138842822268aE, symObjAddr: 0x0, symBinAddr: 0x3BCC0, symSize: 0x14C }
  - { offset: 0xB4E44, size: 0x8, addend: 0x0, symName: __ZN4pyo35impl_10trampoline10trampoline17h2c6138842822268aE, symObjAddr: 0x0, symBinAddr: 0x3BCC0, symSize: 0x14C }
  - { offset: 0xB4EE6, size: 0x8, addend: 0x0, symName: __ZN4pyo35impl_10trampoline10trampoline17h4f11abeaef3c13caE, symObjAddr: 0x14C, symBinAddr: 0x3BE0C, symSize: 0x15C }
  - { offset: 0xB4F89, size: 0x8, addend: 0x0, symName: __ZN4pyo35impl_10trampoline10trampoline17h7fc2774e52b6fd08E, symObjAddr: 0x2A8, symBinAddr: 0x3BF68, symSize: 0x160 }
  - { offset: 0xB502D, size: 0x8, addend: 0x0, symName: __ZN4pyo35impl_10trampoline10trampoline17ha01b98f3c0ae8876E, symObjAddr: 0x408, symBinAddr: 0x3C0C8, symSize: 0x158 }
  - { offset: 0xB50D5, size: 0x8, addend: 0x0, symName: '__ZN4pyo35impl_10trampoline10trampoline28_$u7b$$u7b$closure$u7d$$u7d$17h759c5cdb650743bcE', symObjAddr: 0x560, symBinAddr: 0x3C220, symSize: 0x2C }
  - { offset: 0xB5123, size: 0x8, addend: 0x0, symName: '__ZN4pyo35impl_10trampoline10trampoline28_$u7b$$u7b$closure$u7d$$u7d$17h9afffe0094461722E', symObjAddr: 0x58C, symBinAddr: 0x3C24C, symSize: 0x34 }
  - { offset: 0xB5172, size: 0x8, addend: 0x0, symName: '__ZN4pyo35impl_10trampoline10trampoline28_$u7b$$u7b$closure$u7d$$u7d$17hf38411e9ba9dfb08E', symObjAddr: 0x5C0, symBinAddr: 0x3C280, symSize: 0x40 }
  - { offset: 0xB51C1, size: 0x8, addend: 0x0, symName: '__ZN4pyo35impl_10trampoline10trampoline28_$u7b$$u7b$closure$u7d$$u7d$17hfceca2e392e132cfE', symObjAddr: 0x600, symBinAddr: 0x3C2C0, symSize: 0x24 }
  - { offset: 0xB5215, size: 0x8, addend: 0x0, symName: '__ZN4pyo35impl_10trampoline11module_init28_$u7b$$u7b$closure$u7d$$u7d$17h925e07c4935dca99E', symObjAddr: 0x624, symBinAddr: 0x3C2E4, symSize: 0x40 }
  - { offset: 0xB5261, size: 0x8, addend: 0x0, symName: '__ZN4pyo35impl_10trampoline11module_init28_$u7b$$u7b$closure$u7d$$u7d$28_$u7b$$u7b$closure$u7d$$u7d$17h9707f3b85bdfbe29E', symObjAddr: 0x664, symBinAddr: 0x3C324, symSize: 0x24 }
  - { offset: 0xB52B3, size: 0x8, addend: 0x0, symName: __ZN4pyo35impl_10trampoline21trampoline_unraisable17hf083c074ac24e284E, symObjAddr: 0x688, symBinAddr: 0x3C348, symSize: 0x218 }
  - { offset: 0xB5356, size: 0x8, addend: 0x0, symName: '__ZN4pyo35impl_10trampoline21trampoline_unraisable28_$u7b$$u7b$closure$u7d$$u7d$17h64ff5d7e5e08b8dcE', symObjAddr: 0x8A0, symBinAddr: 0x3C560, symSize: 0x5C }
  - { offset: 0xB5395, size: 0x8, addend: 0x0, symName: '__ZN4pyo35impl_10trampoline21trampoline_unraisable28_$u7b$$u7b$closure$u7d$$u7d$17ha427bb684da650c1E', symObjAddr: 0x8FC, symBinAddr: 0x3C5BC, symSize: 0x2C }
  - { offset: 0xB53E7, size: 0x8, addend: 0x0, symName: '__ZN4pyo35impl_10trampoline22fastcall_with_keywords28_$u7b$$u7b$closure$u7d$$u7d$17h7df6c07f7db057ffE', symObjAddr: 0x928, symBinAddr: 0x3C5E8, symSize: 0x48 }
  - { offset: 0xB54B3, size: 0x8, addend: 0x0, symName: '__ZN4pyo35impl_10trampoline6noargs28_$u7b$$u7b$closure$u7d$$u7d$17h7c9ae984c90ae508E', symObjAddr: 0x970, symBinAddr: 0x3C630, symSize: 0x34 }
  - { offset: 0xB5530, size: 0x8, addend: 0x0, symName: '__ZN4pyo35impl_10trampoline7dealloc28_$u7b$$u7b$closure$u7d$$u7d$17hebc2fa7c9643cb44E', symObjAddr: 0x9A4, symBinAddr: 0x3C664, symSize: 0x40 }
  - { offset: 0xB55AD, size: 0x8, addend: 0x0, symName: '__ZN4pyo35impl_10trampoline7newfunc28_$u7b$$u7b$closure$u7d$$u7d$17h5596c65f5474e136E', symObjAddr: 0x9E4, symBinAddr: 0x3C6A4, symSize: 0x40 }
  - { offset: 0xB60EF, size: 0x8, addend: 0x0, symName: '__ZN4core3str21_$LT$impl$u20$str$GT$8is_empty17h454f039dc4302c57E', symObjAddr: 0x0, symBinAddr: 0x3C6E4, symSize: 0x1C }
  - { offset: 0xB610B, size: 0x8, addend: 0x0, symName: '__ZN4core3str21_$LT$impl$u20$str$GT$8is_empty17h454f039dc4302c57E', symObjAddr: 0x0, symBinAddr: 0x3C6E4, symSize: 0x1C }
  - { offset: 0xB6194, size: 0x8, addend: 0x0, symName: __ZN10rayon_core5sleep8counters13select_thread17h569f93a3c2fd5764E, symObjAddr: 0x0, symBinAddr: 0x3C700, symSize: 0x54 }
  - { offset: 0xB61B0, size: 0x8, addend: 0x0, symName: __ZN10rayon_core5sleep8counters13select_thread17h569f93a3c2fd5764E, symObjAddr: 0x0, symBinAddr: 0x3C700, symSize: 0x54 }
  - { offset: 0xB6249, size: 0x8, addend: 0x0, symName: __ZN10rayon_core5sleep8counters8Counters16inactive_threads17h5a9c51e46515ce6cE, symObjAddr: 0x54, symBinAddr: 0x3C754, symSize: 0x28 }
  - { offset: 0xB626B, size: 0x8, addend: 0x0, symName: __ZN10rayon_core5sleep8counters8Counters16sleeping_threads17h745db0a3847c8b34E, symObjAddr: 0x7C, symBinAddr: 0x3C77C, symSize: 0x24 }
  - { offset: 0xB628E, size: 0x8, addend: 0x0, symName: __ZN10rayon_core5sleep8counters8Counters22awake_but_idle_threads17h9f640073f4e0befdE, symObjAddr: 0xA0, symBinAddr: 0x3C7A0, symSize: 0x10C }
  - { offset: 0xB65AF, size: 0x8, addend: 0x0, symName: __ZN4core5slice3raw14from_raw_parts17h42ea615a90d5b5afE, symObjAddr: 0x0, symBinAddr: 0x3C8AC, symSize: 0x58 }
  - { offset: 0xB6650, size: 0x8, addend: 0x0, symName: __ZN4core5slice3raw14from_raw_parts17h42ea615a90d5b5afE, symObjAddr: 0x0, symBinAddr: 0x3C8AC, symSize: 0x58 }
  - { offset: 0xB6693, size: 0x8, addend: 0x0, symName: __ZN4core5slice3raw14from_raw_parts17h76e22bd60fa945c9E, symObjAddr: 0x58, symBinAddr: 0x3C904, symSize: 0x58 }
  - { offset: 0xB66D6, size: 0x8, addend: 0x0, symName: __ZN4core5slice3raw18from_raw_parts_mut17hda8358b11ec904afE, symObjAddr: 0xB0, symBinAddr: 0x3C95C, symSize: 0x5C }
  - { offset: 0xB6C15, size: 0x8, addend: 0x0, symName: '__ZN118_$LT$pyo3..impl_..pyclass..SendablePyClass$LT$T$GT$$u20$as$u20$pyo3..impl_..pyclass..PyClassThreadChecker$LT$T$GT$$GT$3new17hcbc4cb6b63710170E', symObjAddr: 0x0, symBinAddr: 0x3C9B8, symSize: 0x4 }
  - { offset: 0xB70A7, size: 0x8, addend: 0x0, symName: '__ZN118_$LT$pyo3..impl_..pyclass..SendablePyClass$LT$T$GT$$u20$as$u20$pyo3..impl_..pyclass..PyClassThreadChecker$LT$T$GT$$GT$3new17hcbc4cb6b63710170E', symObjAddr: 0x0, symBinAddr: 0x3C9B8, symSize: 0x4 }
  - { offset: 0xB70CB, size: 0x8, addend: 0x0, symName: '__ZN118_$LT$pyo3..impl_..pyclass..SendablePyClass$LT$T$GT$$u20$as$u20$pyo3..impl_..pyclass..PyClassThreadChecker$LT$T$GT$$GT$6ensure17h0601f23b4b413dc0E', symObjAddr: 0x4, symBinAddr: 0x3C9BC, symSize: 0x10 }
  - { offset: 0xB70FE, size: 0x8, addend: 0x0, symName: '__ZN118_$LT$pyo3..impl_..pyclass..SendablePyClass$LT$T$GT$$u20$as$u20$pyo3..impl_..pyclass..PyClassThreadChecker$LT$T$GT$$GT$8can_drop17h8dd897ad4c557115E', symObjAddr: 0x14, symBinAddr: 0x3C9CC, symSize: 0x18 }
  - { offset: 0xB7151, size: 0x8, addend: 0x0, symName: __ZN4pyo35impl_7pyclass10tp_dealloc17h179dc401af309298E, symObjAddr: 0x2C, symBinAddr: 0x3C9E4, symSize: 0x34 }
  - { offset: 0xB7189, size: 0x8, addend: 0x0, symName: __ZN4pyo35impl_7pyclass11PyClassDict10clear_dict17h37b7b3a230609079E, symObjAddr: 0x60, symBinAddr: 0x3CA18, symSize: 0x10 }
  - { offset: 0xB71D9, size: 0x8, addend: 0x0, symName: __ZN4pyo35impl_7pyclass14PyClassWeakRef14clear_weakrefs17hbbe7b3a813e9b509E, symObjAddr: 0x70, symBinAddr: 0x3CA28, symSize: 0x14 }
  - { offset: 0xB7232, size: 0x8, addend: 0x0, symName: __ZN4pyo35impl_7pyclass18tp_dealloc_with_gc17hee52e599559d089eE, symObjAddr: 0x84, symBinAddr: 0x3CA3C, symSize: 0x4C }
  - { offset: 0xB7BF7, size: 0x8, addend: 0x0, symName: '__ZN4pyo35impl_7pyclass29PyClassImplCollector$LT$T$GT$3new17ha1e34207139e0e76E', symObjAddr: 0xD0, symBinAddr: 0x3CA88, symSize: 0x4 }
  - { offset: 0xB7C8B, size: 0x8, addend: 0x0, symName: __ZN4core5slice4sort6stable14driftsort_main17h600fdd9c593173d8E, symObjAddr: 0x0, symBinAddr: 0x3CA8C, symSize: 0x1EC }
  - { offset: 0xB7E6D, size: 0x8, addend: 0x0, symName: __ZN4core5slice4sort6stable14driftsort_main17h600fdd9c593173d8E, symObjAddr: 0x0, symBinAddr: 0x3CA8C, symSize: 0x1EC }
  - { offset: 0xB8073, size: 0x8, addend: 0x0, symName: __ZN4core5slice4sort6stable14driftsort_main17hcd0752c69160f23dE, symObjAddr: 0x1EC, symBinAddr: 0x3CC78, symSize: 0x1EC }
  - { offset: 0xB8279, size: 0x8, addend: 0x0, symName: __ZN4core5slice4sort6stable14driftsort_main17hfb6b47d0087158f5E, symObjAddr: 0x3D8, symBinAddr: 0x3CE64, symSize: 0x1EC }
  - { offset: 0xB8D19, size: 0x8, addend: 0x0, symName: '__ZN4core5slice4sort6stable27AlignedStorage$LT$T$C$_$GT$19as_uninit_slice_mut17h7d8ab16d2697c706E', symObjAddr: 0x5C4, symBinAddr: 0x3D050, symSize: 0x84 }
  - { offset: 0xB8E01, size: 0x8, addend: 0x0, symName: '__ZN4core5slice4sort6stable27AlignedStorage$LT$T$C$_$GT$19as_uninit_slice_mut17h9a8b1f25f83b8289E', symObjAddr: 0x648, symBinAddr: 0x3D0D4, symSize: 0x84 }
  - { offset: 0xB8EE9, size: 0x8, addend: 0x0, symName: '__ZN4core5slice4sort6stable27AlignedStorage$LT$T$C$_$GT$19as_uninit_slice_mut17heb375151a6ff4cbfE', symObjAddr: 0x6CC, symBinAddr: 0x3D158, symSize: 0x84 }
  - { offset: 0xB90C7, size: 0x8, addend: 0x0, symName: '__ZN51_$LT$T$u20$as$u20$core..borrow..Borrow$LT$T$GT$$GT$6borrow17h2c6ef5fc6a744ff4E', symObjAddr: 0x0, symBinAddr: 0x3D1DC, symSize: 0x14 }
  - { offset: 0xB90E3, size: 0x8, addend: 0x0, symName: '__ZN51_$LT$T$u20$as$u20$core..borrow..Borrow$LT$T$GT$$GT$6borrow17h2c6ef5fc6a744ff4E', symObjAddr: 0x0, symBinAddr: 0x3D1DC, symSize: 0x14 }
  - { offset: 0xB916B, size: 0x8, addend: 0x0, symName: '__ZN4core5tuple64_$LT$impl$u20$core..cmp..PartialEq$u20$for$u20$$LP$U$C$T$RP$$GT$2eq17h186b4905df230038E', symObjAddr: 0x0, symBinAddr: 0x3D1F0, symSize: 0x60 }
  - { offset: 0xB9187, size: 0x8, addend: 0x0, symName: '__ZN4core5tuple64_$LT$impl$u20$core..cmp..PartialEq$u20$for$u20$$LP$U$C$T$RP$$GT$2eq17h186b4905df230038E', symObjAddr: 0x0, symBinAddr: 0x3D1F0, symSize: 0x60 }
  - { offset: 0xB91D3, size: 0x8, addend: 0x0, symName: '__ZN4core5tuple64_$LT$impl$u20$core..cmp..PartialEq$u20$for$u20$$LP$U$C$T$RP$$GT$2eq17h71c7c3aee1d23675E', symObjAddr: 0x60, symBinAddr: 0x3D250, symSize: 0x60 }
  - { offset: 0xB92CC, size: 0x8, addend: 0x0, symName: '__ZN4core5array98_$LT$impl$u20$core..convert..TryFrom$LT$$RF$$u5b$T$u5d$$GT$$u20$for$u20$$u5b$T$u3b$$u20$N$u5d$$GT$8try_from17h09420b555b5974eeE', symObjAddr: 0x0, symBinAddr: 0x3D2B0, symSize: 0x8C }
  - { offset: 0xB94DE, size: 0x8, addend: 0x0, symName: '__ZN4core5array98_$LT$impl$u20$core..convert..TryFrom$LT$$RF$$u5b$T$u5d$$GT$$u20$for$u20$$u5b$T$u3b$$u20$N$u5d$$GT$8try_from17h09420b555b5974eeE', symObjAddr: 0x0, symBinAddr: 0x3D2B0, symSize: 0x8C }
  - { offset: 0xB965E, size: 0x8, addend: 0x0, symName: '__ZN4core5array98_$LT$impl$u20$core..iter..traits..collect..IntoIterator$u20$for$u20$$RF$$u5b$T$u3b$$u20$N$u5d$$GT$9into_iter17h497b1e59694bf81aE', symObjAddr: 0x8C, symBinAddr: 0x3D33C, symSize: 0x58 }
  - { offset: 0xB9794, size: 0x8, addend: 0x0, symName: '__ZN4core5array98_$LT$impl$u20$core..iter..traits..collect..IntoIterator$u20$for$u20$$RF$$u5b$T$u3b$$u20$N$u5d$$GT$9into_iter17h51bb09b436380f1eE', symObjAddr: 0xE4, symBinAddr: 0x3D394, symSize: 0x58 }
  - { offset: 0xB9F0F, size: 0x8, addend: 0x0, symName: '__ZN115_$LT$core..iter..adapters..take_while..TakeWhile$LT$I$C$P$GT$$u20$as$u20$core..iter..traits..iterator..Iterator$GT$4next17hfef564dc93a24ad6E', symObjAddr: 0x0, symBinAddr: 0x3D3EC, symSize: 0x160 }
  - { offset: 0xBA6D6, size: 0x8, addend: 0x0, symName: '__ZN115_$LT$core..iter..adapters..take_while..TakeWhile$LT$I$C$P$GT$$u20$as$u20$core..iter..traits..iterator..Iterator$GT$4next17hfef564dc93a24ad6E', symObjAddr: 0x0, symBinAddr: 0x3D3EC, symSize: 0x160 }
  - { offset: 0xBA7AA, size: 0x8, addend: 0x0, symName: '__ZN115_$LT$core..iter..adapters..take_while..TakeWhile$LT$I$C$P$GT$$u20$as$u20$core..iter..traits..iterator..Iterator$GT$9size_hint17h267cdff9817ef424E', symObjAddr: 0x160, symBinAddr: 0x3D54C, symSize: 0x8C }
  - { offset: 0xBA921, size: 0x8, addend: 0x0, symName: __ZN4core4iter6traits8iterator8Iterator3map17h7156691c6c8e5179E, symObjAddr: 0x1EC, symBinAddr: 0x3D5D8, symSize: 0x30 }
  - { offset: 0xBB063, size: 0x8, addend: 0x0, symName: __ZN4core3str8converts19from_utf8_unchecked17h66ba75e5c71d6dcfE, symObjAddr: 0x0, symBinAddr: 0x3D608, symSize: 0x18 }
  - { offset: 0xBB07F, size: 0x8, addend: 0x0, symName: __ZN4core3str8converts19from_utf8_unchecked17h66ba75e5c71d6dcfE, symObjAddr: 0x0, symBinAddr: 0x3D608, symSize: 0x18 }
  - { offset: 0xBB11F, size: 0x8, addend: 0x0, symName: __ZN4pyo37pyclass18create_type_object18create_type_object17heaa643e8e81420d5E, symObjAddr: 0x0, symBinAddr: 0x3D620, symSize: 0x174 }
  - { offset: 0xBB1C0, size: 0x8, addend: 0x0, symName: __ZN4pyo37pyclass18create_type_object18create_type_object17heaa643e8e81420d5E, symObjAddr: 0x0, symBinAddr: 0x3D620, symSize: 0x174 }
  - { offset: 0xBC6E7, size: 0x8, addend: 0x0, symName: '__ZN12flash_expert184_$LT$impl$u20$pyo3..impl_..pyclass..PyMethods$LT$flash_expert..FlashExpertManager$GT$$u20$for$u20$pyo3..impl_..pyclass..PyClassImplCollector$LT$flash_expert..FlashExpertManager$GT$$GT$10py_methods17hce7c22e65a521a96E', symObjAddr: 0x0, symBinAddr: 0x3D794, symSize: 0x14 }
  - { offset: 0xBCF77, size: 0x8, addend: 0x0, symName: '__ZN12flash_expert184_$LT$impl$u20$pyo3..impl_..pyclass..PyMethods$LT$flash_expert..FlashExpertManager$GT$$u20$for$u20$pyo3..impl_..pyclass..PyClassImplCollector$LT$flash_expert..FlashExpertManager$GT$$GT$10py_methods17hce7c22e65a521a96E', symObjAddr: 0x0, symBinAddr: 0x3D794, symSize: 0x14 }
  - { offset: 0xBCFC2, size: 0x8, addend: 0x0, symName: '__ZN12flash_expert184_$LT$impl$u20$pyo3..impl_..pyclass..PyMethods$LT$flash_expert..FlashExpertManager$GT$$u20$for$u20$pyo3..impl_..pyclass..PyClassImplCollector$LT$flash_expert..FlashExpertManager$GT$$GT$10py_methods5ITEMS10trampoline198_$LT$impl$u20$pyo3..impl_..pyclass..PyClassNewTextSignature$LT$flash_expert..FlashExpertManager$GT$$u20$for$u20$pyo3..impl_..pyclass..PyClassImplCollector$LT$flash_expert..FlashExpertManager$GT$$GT$18new_text_signature17hfd1cee91354ba564E', symObjAddr: 0x14, symBinAddr: 0x3D7A8, symSize: 0x1C }
  - { offset: 0xBE039, size: 0x8, addend: 0x0, symName: '__ZN4pyo35impl_4wrap82EmptyTupleConverter$LT$core..result..Result$LT$$LP$$RP$$C$pyo3..err..PyErr$GT$$GT$12map_into_ptr17h9716e152bea50652E', symObjAddr: 0x0, symBinAddr: 0x3D7C4, symSize: 0x44 }
  - { offset: 0xBE9BC, size: 0x8, addend: 0x0, symName: '__ZN4pyo35impl_4wrap82EmptyTupleConverter$LT$core..result..Result$LT$$LP$$RP$$C$pyo3..err..PyErr$GT$$GT$12map_into_ptr17h9716e152bea50652E', symObjAddr: 0x0, symBinAddr: 0x3D7C4, symSize: 0x44 }
  - { offset: 0xBEA24, size: 0x8, addend: 0x0, symName: __ZN4pyo35impl_9pymethods11tp_new_impl17hb7dec32c3d98dffaE, symObjAddr: 0x0, symBinAddr: 0x3D808, symSize: 0x6C }
  - { offset: 0xBEAC5, size: 0x8, addend: 0x0, symName: __ZN4pyo35impl_9pymethods11tp_new_impl17hb7dec32c3d98dffaE, symObjAddr: 0x0, symBinAddr: 0x3D808, symSize: 0x6C }
  - { offset: 0xBEE6F, size: 0x8, addend: 0x0, symName: '__ZN50_$LT$T$u20$as$u20$core..convert..Into$LT$U$GT$$GT$4into17hc2bc7b40a4e810b9E', symObjAddr: 0x6C, symBinAddr: 0x3D874, symSize: 0x24 }
  - { offset: 0xBFEC1, size: 0x8, addend: 0x0, symName: '__ZN5alloc3str56_$LT$impl$u20$alloc..borrow..ToOwned$u20$for$u20$str$GT$8to_owned17h7eb6625ee43dbb93E', symObjAddr: 0x0, symBinAddr: 0x3D898, symSize: 0x50 }
  - { offset: 0xC0177, size: 0x8, addend: 0x0, symName: '__ZN5alloc3str56_$LT$impl$u20$alloc..borrow..ToOwned$u20$for$u20$str$GT$8to_owned17h7eb6625ee43dbb93E', symObjAddr: 0x0, symBinAddr: 0x3D898, symSize: 0x50 }
  - { offset: 0xC027F, size: 0x8, addend: 0x0, symName: '__ZN10rayon_core3job18JobResult$LT$T$GT$17into_return_value17h2dbb25f097ecbd1dE', symObjAddr: 0x0, symBinAddr: 0x3D8E8, symSize: 0x90 }
  - { offset: 0xC0C71, size: 0x8, addend: 0x0, symName: '__ZN10rayon_core3job18JobResult$LT$T$GT$4call28_$u7b$$u7b$closure$u7d$$u7d$17h0b7c49515f75173cE', symObjAddr: 0x690, symBinAddr: 0x3DF78, symSize: 0x48 }
  - { offset: 0xC0CB1, size: 0x8, addend: 0x0, symName: '__ZN10rayon_core3job18JobResult$LT$T$GT$4call28_$u7b$$u7b$closure$u7d$$u7d$17h409273c5fe75f839E', symObjAddr: 0x6D8, symBinAddr: 0x3DFC0, symSize: 0x48 }
  - { offset: 0xC0CF1, size: 0x8, addend: 0x0, symName: '__ZN10rayon_core3job18JobResult$LT$T$GT$4call28_$u7b$$u7b$closure$u7d$$u7d$17h5427a40928d386a2E', symObjAddr: 0x720, symBinAddr: 0x3E008, symSize: 0x48 }
  - { offset: 0xC0D31, size: 0x8, addend: 0x0, symName: '__ZN10rayon_core3job18JobResult$LT$T$GT$4call28_$u7b$$u7b$closure$u7d$$u7d$17ha2d991870d0d3521E', symObjAddr: 0x768, symBinAddr: 0x3E050, symSize: 0x48 }
  - { offset: 0xC0D71, size: 0x8, addend: 0x0, symName: '__ZN10rayon_core3job18JobResult$LT$T$GT$4call28_$u7b$$u7b$closure$u7d$$u7d$17ha4a8b71967422e2fE', symObjAddr: 0x7B0, symBinAddr: 0x3E098, symSize: 0x48 }
  - { offset: 0xC0DB1, size: 0x8, addend: 0x0, symName: '__ZN10rayon_core3job18JobResult$LT$T$GT$4call28_$u7b$$u7b$closure$u7d$$u7d$17hde84a8424bc9d1e4E', symObjAddr: 0x7F8, symBinAddr: 0x3E0E0, symSize: 0x48 }
  - { offset: 0xC1465, size: 0x8, addend: 0x0, symName: '__ZN83_$LT$rayon_core..job..StackJob$LT$L$C$F$C$R$GT$$u20$as$u20$rayon_core..job..Job$GT$7execute17h14ad5eafad80c6ffE', symObjAddr: 0x12F8, symBinAddr: 0x3EBE0, symSize: 0x2F0 }
  - { offset: 0xC1543, size: 0x8, addend: 0x0, symName: '__ZN83_$LT$rayon_core..job..StackJob$LT$L$C$F$C$R$GT$$u20$as$u20$rayon_core..job..Job$GT$7execute17ha880700e5288a6dcE', symObjAddr: 0x15E8, symBinAddr: 0x3EED0, symSize: 0x2E0 }
  - { offset: 0xC1621, size: 0x8, addend: 0x0, symName: '__ZN83_$LT$rayon_core..job..StackJob$LT$L$C$F$C$R$GT$$u20$as$u20$rayon_core..job..Job$GT$7execute17hb0a9336ef0b6b5c1E', symObjAddr: 0x18C8, symBinAddr: 0x3F1B0, symSize: 0x2F0 }
  - { offset: 0xC16FF, size: 0x8, addend: 0x0, symName: '__ZN83_$LT$rayon_core..job..StackJob$LT$L$C$F$C$R$GT$$u20$as$u20$rayon_core..job..Job$GT$7execute17hd36b1ab4f98de46eE', symObjAddr: 0x1BB8, symBinAddr: 0x3F4A0, symSize: 0x2E4 }
  - { offset: 0xC17DD, size: 0x8, addend: 0x0, symName: '__ZN83_$LT$rayon_core..job..StackJob$LT$L$C$F$C$R$GT$$u20$as$u20$rayon_core..job..Job$GT$7execute17hd9cf135f32ff10caE', symObjAddr: 0x1E9C, symBinAddr: 0x3F784, symSize: 0x2DC }
  - { offset: 0xC18BB, size: 0x8, addend: 0x0, symName: '__ZN83_$LT$rayon_core..job..StackJob$LT$L$C$F$C$R$GT$$u20$as$u20$rayon_core..job..Job$GT$7execute17hf60434b5c2617a44E', symObjAddr: 0x2178, symBinAddr: 0x3FA60, symSize: 0x2E8 }
  - { offset: 0xC31B7, size: 0x8, addend: 0x0, symName: '__ZN10rayon_core3job18JobResult$LT$T$GT$17into_return_value17h2dbb25f097ecbd1dE', symObjAddr: 0x0, symBinAddr: 0x3D8E8, symSize: 0x90 }
  - { offset: 0xC3200, size: 0x8, addend: 0x0, symName: '__ZN10rayon_core3job18JobResult$LT$T$GT$17into_return_value17hb5e20adb89fbd801E', symObjAddr: 0x90, symBinAddr: 0x3D978, symSize: 0x90 }
  - { offset: 0xC35EF, size: 0x8, addend: 0x0, symName: '__ZN10rayon_core3job18JobResult$LT$T$GT$17into_return_value17hc6ac6708b9bcb1d5E', symObjAddr: 0x120, symBinAddr: 0x3DA08, symSize: 0x90 }
  - { offset: 0xC3656, size: 0x8, addend: 0x0, symName: '__ZN10rayon_core3job18JobResult$LT$T$GT$17into_return_value17hec2919f50a37862eE', symObjAddr: 0x1B0, symBinAddr: 0x3DA98, symSize: 0x90 }
  - { offset: 0xC3886, size: 0x8, addend: 0x0, symName: '__ZN10rayon_core3job18JobResult$LT$T$GT$4call17h4570f89a1b9cee6bE', symObjAddr: 0x240, symBinAddr: 0x3DB28, symSize: 0xC0 }
  - { offset: 0xC38F6, size: 0x8, addend: 0x0, symName: '__ZN10rayon_core3job18JobResult$LT$T$GT$4call17h80360e8145450887E', symObjAddr: 0x300, symBinAddr: 0x3DBE8, symSize: 0xC0 }
  - { offset: 0xC3966, size: 0x8, addend: 0x0, symName: '__ZN10rayon_core3job18JobResult$LT$T$GT$4call17h8583407335d0205cE', symObjAddr: 0x3C0, symBinAddr: 0x3DCA8, symSize: 0xA8 }
  - { offset: 0xC39D5, size: 0x8, addend: 0x0, symName: '__ZN10rayon_core3job18JobResult$LT$T$GT$4call17h877e26b60aeb6af3E', symObjAddr: 0x468, symBinAddr: 0x3DD50, symSize: 0xC0 }
  - { offset: 0xC3A45, size: 0x8, addend: 0x0, symName: '__ZN10rayon_core3job18JobResult$LT$T$GT$4call17h9eeaabec2aabd77bE', symObjAddr: 0x528, symBinAddr: 0x3DE10, symSize: 0xA8 }
  - { offset: 0xC3AB4, size: 0x8, addend: 0x0, symName: '__ZN10rayon_core3job18JobResult$LT$T$GT$4call17haf03d41fa9451e8bE', symObjAddr: 0x5D0, symBinAddr: 0x3DEB8, symSize: 0xC0 }
  - { offset: 0xC3D0B, size: 0x8, addend: 0x0, symName: '__ZN10rayon_core3job25StackJob$LT$L$C$F$C$R$GT$10as_job_ref17h3801bd695995c154E', symObjAddr: 0x840, symBinAddr: 0x3E128, symSize: 0x24 }
  - { offset: 0xC3D6F, size: 0x8, addend: 0x0, symName: '__ZN10rayon_core3job25StackJob$LT$L$C$F$C$R$GT$10as_job_ref17h6c35cb6fed8e15afE', symObjAddr: 0x864, symBinAddr: 0x3E14C, symSize: 0x24 }
  - { offset: 0xC3DB9, size: 0x8, addend: 0x0, symName: '__ZN10rayon_core3job25StackJob$LT$L$C$F$C$R$GT$10as_job_ref17h899ea7990179458fE', symObjAddr: 0x888, symBinAddr: 0x3E170, symSize: 0x24 }
  - { offset: 0xC3E03, size: 0x8, addend: 0x0, symName: '__ZN10rayon_core3job25StackJob$LT$L$C$F$C$R$GT$10as_job_ref17h979ea1b43b57f310E', symObjAddr: 0x8AC, symBinAddr: 0x3E194, symSize: 0x24 }
  - { offset: 0xC3E4D, size: 0x8, addend: 0x0, symName: '__ZN10rayon_core3job25StackJob$LT$L$C$F$C$R$GT$10as_job_ref17ha5cbb237e61c2486E', symObjAddr: 0x8D0, symBinAddr: 0x3E1B8, symSize: 0x24 }
  - { offset: 0xC3E97, size: 0x8, addend: 0x0, symName: '__ZN10rayon_core3job25StackJob$LT$L$C$F$C$R$GT$10as_job_ref17hbbc98f84e78f3ca5E', symObjAddr: 0x8F4, symBinAddr: 0x3E1DC, symSize: 0x24 }
  - { offset: 0xC3F46, size: 0x8, addend: 0x0, symName: '__ZN10rayon_core3job25StackJob$LT$L$C$F$C$R$GT$10run_inline17h24f87e5b080110cfE', symObjAddr: 0x918, symBinAddr: 0x3E200, symSize: 0xE8 }
  - { offset: 0xC4015, size: 0x8, addend: 0x0, symName: '__ZN10rayon_core3job25StackJob$LT$L$C$F$C$R$GT$10run_inline17he9977cda4e56adb9E', symObjAddr: 0xA00, symBinAddr: 0x3E2E8, symSize: 0xF4 }
  - { offset: 0xC40B9, size: 0x8, addend: 0x0, symName: '__ZN10rayon_core3job25StackJob$LT$L$C$F$C$R$GT$11into_result17h5121993c1b0b2346E', symObjAddr: 0xAF4, symBinAddr: 0x3E3DC, symSize: 0x7C }
  - { offset: 0xC4131, size: 0x8, addend: 0x0, symName: '__ZN10rayon_core3job25StackJob$LT$L$C$F$C$R$GT$11into_result17h5c96aa6af9537e0eE', symObjAddr: 0xB70, symBinAddr: 0x3E458, symSize: 0x70 }
  - { offset: 0xC41A8, size: 0x8, addend: 0x0, symName: '__ZN10rayon_core3job25StackJob$LT$L$C$F$C$R$GT$11into_result17h62f2de903ace9e72E', symObjAddr: 0xBE0, symBinAddr: 0x3E4C8, symSize: 0x70 }
  - { offset: 0xC421F, size: 0x8, addend: 0x0, symName: '__ZN10rayon_core3job25StackJob$LT$L$C$F$C$R$GT$11into_result17h7df81dcc017dd5ccE', symObjAddr: 0xC50, symBinAddr: 0x3E538, symSize: 0x7C }
  - { offset: 0xC427B, size: 0x8, addend: 0x0, symName: '__ZN10rayon_core3job25StackJob$LT$L$C$F$C$R$GT$11into_result17h8d008a87e7587cb0E', symObjAddr: 0xCCC, symBinAddr: 0x3E5B4, symSize: 0x7C }
  - { offset: 0xC42D7, size: 0x8, addend: 0x0, symName: '__ZN10rayon_core3job25StackJob$LT$L$C$F$C$R$GT$11into_result17hb7515525158413e4E', symObjAddr: 0xD48, symBinAddr: 0x3E630, symSize: 0x7C }
  - { offset: 0xC436B, size: 0x8, addend: 0x0, symName: '__ZN10rayon_core3job25StackJob$LT$L$C$F$C$R$GT$3new17h12acc0ec84e409beE', symObjAddr: 0xDC4, symBinAddr: 0x3E6AC, symSize: 0xB8 }
  - { offset: 0xC440F, size: 0x8, addend: 0x0, symName: '__ZN10rayon_core3job25StackJob$LT$L$C$F$C$R$GT$3new17h1c9c87246f519f2bE', symObjAddr: 0xE7C, symBinAddr: 0x3E764, symSize: 0xC4 }
  - { offset: 0xC44D0, size: 0x8, addend: 0x0, symName: '__ZN10rayon_core3job25StackJob$LT$L$C$F$C$R$GT$3new17h30b471440787a9a7E', symObjAddr: 0xF40, symBinAddr: 0x3E828, symSize: 0xBC }
  - { offset: 0xC4590, size: 0x8, addend: 0x0, symName: '__ZN10rayon_core3job25StackJob$LT$L$C$F$C$R$GT$3new17h5641fa279b6d122aE', symObjAddr: 0xFFC, symBinAddr: 0x3E8E4, symSize: 0xC4 }
  - { offset: 0xC4635, size: 0x8, addend: 0x0, symName: '__ZN10rayon_core3job25StackJob$LT$L$C$F$C$R$GT$3new17h89f1a84724cf0a05E', symObjAddr: 0x10C0, symBinAddr: 0x3E9A8, symSize: 0xB8 }
  - { offset: 0xC46F5, size: 0x8, addend: 0x0, symName: '__ZN10rayon_core3job25StackJob$LT$L$C$F$C$R$GT$3new17hc8950e830d0937baE', symObjAddr: 0x1178, symBinAddr: 0x3EA60, symSize: 0xC0 }
  - { offset: 0xC478A, size: 0x8, addend: 0x0, symName: __ZN10rayon_core3job6JobRef3new17h0e50a92f3336a3b0E, symObjAddr: 0x1238, symBinAddr: 0x3EB20, symSize: 0x20 }
  - { offset: 0xC47C2, size: 0x8, addend: 0x0, symName: __ZN10rayon_core3job6JobRef3new17h1379e38781a1d404E, symObjAddr: 0x1258, symBinAddr: 0x3EB40, symSize: 0x20 }
  - { offset: 0xC47FA, size: 0x8, addend: 0x0, symName: __ZN10rayon_core3job6JobRef3new17hbd094c5e3a76ac0fE, symObjAddr: 0x1278, symBinAddr: 0x3EB60, symSize: 0x20 }
  - { offset: 0xC4832, size: 0x8, addend: 0x0, symName: __ZN10rayon_core3job6JobRef3new17hbd5b78fbbce9e669E, symObjAddr: 0x1298, symBinAddr: 0x3EB80, symSize: 0x20 }
  - { offset: 0xC486A, size: 0x8, addend: 0x0, symName: __ZN10rayon_core3job6JobRef3new17he51dd666bd5710c7E, symObjAddr: 0x12B8, symBinAddr: 0x3EBA0, symSize: 0x20 }
  - { offset: 0xC48A2, size: 0x8, addend: 0x0, symName: __ZN10rayon_core3job6JobRef3new17he7069c290aa192d7E, symObjAddr: 0x12D8, symBinAddr: 0x3EBC0, symSize: 0x20 }
  - { offset: 0xC4BB3, size: 0x8, addend: 0x0, symName: '__ZN102_$LT$core..iter..adapters..map..Map$LT$I$C$F$GT$$u20$as$u20$core..iter..traits..iterator..Iterator$GT$4fold17h79619fc0cd2d2172E', symObjAddr: 0x0, symBinAddr: 0x3FD48, symSize: 0x44 }
  - { offset: 0xC4FE8, size: 0x8, addend: 0x0, symName: '__ZN4core4iter8adapters3map8map_fold28_$u7b$$u7b$closure$u7d$$u7d$17h2dd932bada1cbd08E', symObjAddr: 0x56C, symBinAddr: 0x402B4, symSize: 0x98 }
  - { offset: 0xC506F, size: 0x8, addend: 0x0, symName: '__ZN4core4iter8adapters3map8map_fold28_$u7b$$u7b$closure$u7d$$u7d$17hae241056085d011cE', symObjAddr: 0x604, symBinAddr: 0x4034C, symSize: 0x98 }
  - { offset: 0xC50F6, size: 0x8, addend: 0x0, symName: '__ZN4core4iter8adapters3map8map_fold28_$u7b$$u7b$closure$u7d$$u7d$17hafd452f10d2fea8fE', symObjAddr: 0x69C, symBinAddr: 0x403E4, symSize: 0x7C }
  - { offset: 0xC5181, size: 0x8, addend: 0x0, symName: '__ZN102_$LT$core..iter..adapters..map..Map$LT$I$C$F$GT$$u20$as$u20$core..iter..traits..iterator..Iterator$GT$4fold17h79619fc0cd2d2172E', symObjAddr: 0x0, symBinAddr: 0x3FD48, symSize: 0x44 }
  - { offset: 0xC5219, size: 0x8, addend: 0x0, symName: '__ZN102_$LT$core..iter..adapters..map..Map$LT$I$C$F$GT$$u20$as$u20$core..iter..traits..iterator..Iterator$GT$4fold17h7a33bfd94193e81aE', symObjAddr: 0x44, symBinAddr: 0x3FD8C, symSize: 0x30 }
  - { offset: 0xC528E, size: 0x8, addend: 0x0, symName: '__ZN102_$LT$core..iter..adapters..map..Map$LT$I$C$F$GT$$u20$as$u20$core..iter..traits..iterator..Iterator$GT$4fold17hfbfc7ccd6f3f73beE', symObjAddr: 0x74, symBinAddr: 0x3FDBC, symSize: 0x38 }
  - { offset: 0xC5304, size: 0x8, addend: 0x0, symName: '__ZN102_$LT$core..iter..adapters..map..Map$LT$I$C$F$GT$$u20$as$u20$core..iter..traits..iterator..Iterator$GT$4next17h78b772aee3098c70E', symObjAddr: 0xAC, symBinAddr: 0x3FDF4, symSize: 0xAC }
  - { offset: 0xC53A0, size: 0x8, addend: 0x0, symName: '__ZN102_$LT$core..iter..adapters..map..Map$LT$I$C$F$GT$$u20$as$u20$core..iter..traits..iterator..Iterator$GT$4next17hbc2e71bb1f7b049dE', symObjAddr: 0x158, symBinAddr: 0x3FEA0, symSize: 0xAC }
  - { offset: 0xC543C, size: 0x8, addend: 0x0, symName: '__ZN102_$LT$core..iter..adapters..map..Map$LT$I$C$F$GT$$u20$as$u20$core..iter..traits..iterator..Iterator$GT$4next17hd263bc7f4fb9510dE', symObjAddr: 0x204, symBinAddr: 0x3FF4C, symSize: 0x94 }
  - { offset: 0xC54D8, size: 0x8, addend: 0x0, symName: '__ZN102_$LT$core..iter..adapters..map..Map$LT$I$C$F$GT$$u20$as$u20$core..iter..traits..iterator..Iterator$GT$8try_fold17h05786efa18351bfbE', symObjAddr: 0x298, symBinAddr: 0x3FFE0, symSize: 0x4C }
  - { offset: 0xC5556, size: 0x8, addend: 0x0, symName: '__ZN102_$LT$core..iter..adapters..map..Map$LT$I$C$F$GT$$u20$as$u20$core..iter..traits..iterator..Iterator$GT$9size_hint17h0f8b2217823e0ab4E', symObjAddr: 0x2E4, symBinAddr: 0x4002C, symSize: 0x24 }
  - { offset: 0xC559D, size: 0x8, addend: 0x0, symName: '__ZN102_$LT$core..iter..adapters..map..Map$LT$I$C$F$GT$$u20$as$u20$core..iter..traits..iterator..Iterator$GT$9size_hint17h37105c24d1c55650E', symObjAddr: 0x308, symBinAddr: 0x40050, symSize: 0x24 }
  - { offset: 0xC55E4, size: 0x8, addend: 0x0, symName: '__ZN102_$LT$core..iter..adapters..map..Map$LT$I$C$F$GT$$u20$as$u20$core..iter..traits..iterator..Iterator$GT$9size_hint17h3a22389475dc956cE', symObjAddr: 0x32C, symBinAddr: 0x40074, symSize: 0x24 }
  - { offset: 0xC562B, size: 0x8, addend: 0x0, symName: '__ZN102_$LT$core..iter..adapters..map..Map$LT$I$C$F$GT$$u20$as$u20$core..iter..traits..iterator..Iterator$GT$9size_hint17h635766015c979b3dE', symObjAddr: 0x350, symBinAddr: 0x40098, symSize: 0x24 }
  - { offset: 0xC570A, size: 0x8, addend: 0x0, symName: '__ZN4core4iter8adapters3map12map_try_fold28_$u7b$$u7b$closure$u7d$$u7d$17h934f6eb420af941aE', symObjAddr: 0x48C, symBinAddr: 0x401D4, symSize: 0xE0 }
  - { offset: 0xC57A2, size: 0x8, addend: 0x0, symName: '__ZN96_$LT$core..iter..adapters..map..Map$LT$I$C$F$GT$$u20$as$u20$core..iter..adapters..SourceIter$GT$8as_inner17hbf8c8c5aabdcbc67E', symObjAddr: 0x85C, symBinAddr: 0x405A4, symSize: 0x24 }
  - { offset: 0xC59B1, size: 0x8, addend: 0x0, symName: __ZN4core4iter6traits8iterator8Iterator10take_while17h07be84676a152bceE, symObjAddr: 0x374, symBinAddr: 0x400BC, symSize: 0x2C }
  - { offset: 0xC5A15, size: 0x8, addend: 0x0, symName: __ZN4core4iter6traits8iterator8Iterator3map17h84ef9134493bcc86E, symObjAddr: 0x3A0, symBinAddr: 0x400E8, symSize: 0x28 }
  - { offset: 0xC5A82, size: 0x8, addend: 0x0, symName: __ZN4core4iter6traits8iterator8Iterator3sum17h08369b1a0f79311bE, symObjAddr: 0x3C8, symBinAddr: 0x40110, symSize: 0x14 }
  - { offset: 0xC5AC3, size: 0x8, addend: 0x0, symName: __ZN4core4iter6traits8iterator8Iterator3sum17hf8f6cb8e36ba0f03E, symObjAddr: 0x3DC, symBinAddr: 0x40124, symSize: 0x2C }
  - { offset: 0xC5B03, size: 0x8, addend: 0x0, symName: __ZN4core4iter6traits8iterator8Iterator7collect17h246b32bd5e721e0aE, symObjAddr: 0x408, symBinAddr: 0x40150, symSize: 0x2C }
  - { offset: 0xC5B43, size: 0x8, addend: 0x0, symName: __ZN4core4iter6traits8iterator8Iterator7collect17h2f1d9bc801a9fbcaE, symObjAddr: 0x434, symBinAddr: 0x4017C, symSize: 0x14 }
  - { offset: 0xC5B84, size: 0x8, addend: 0x0, symName: __ZN4core4iter6traits8iterator8Iterator8for_each17h1365ee8ca5158d10E, symObjAddr: 0x448, symBinAddr: 0x40190, symSize: 0x44 }
  - { offset: 0xC5BFB, size: 0x8, addend: 0x0, symName: '__ZN63_$LT$I$u20$as$u20$core..iter..traits..collect..IntoIterator$GT$9into_iter17h7c210188362e9a95E', symObjAddr: 0x718, symBinAddr: 0x40460, symSize: 0x14 }
  - { offset: 0xC5C32, size: 0x8, addend: 0x0, symName: '__ZN63_$LT$I$u20$as$u20$core..iter..traits..collect..IntoIterator$GT$9into_iter17h810b493607deebcdE', symObjAddr: 0x72C, symBinAddr: 0x40474, symSize: 0x1C }
  - { offset: 0xC5C69, size: 0x8, addend: 0x0, symName: '__ZN63_$LT$I$u20$as$u20$core..iter..traits..collect..IntoIterator$GT$9into_iter17hb1452b611e927af5E', symObjAddr: 0x748, symBinAddr: 0x40490, symSize: 0x18 }
  - { offset: 0xC5CA0, size: 0x8, addend: 0x0, symName: '__ZN63_$LT$I$u20$as$u20$core..iter..traits..collect..IntoIterator$GT$9into_iter17he29486566d63d8e7E', symObjAddr: 0x760, symBinAddr: 0x404A8, symSize: 0x14 }
  - { offset: 0xC5CD7, size: 0x8, addend: 0x0, symName: '__ZN63_$LT$I$u20$as$u20$core..iter..traits..collect..IntoIterator$GT$9into_iter17he4d1af1635ee9ce4E', symObjAddr: 0x774, symBinAddr: 0x404BC, symSize: 0x30 }
  - { offset: 0xC6DD7, size: 0x8, addend: 0x0, symName: '__ZN83_$LT$I$u20$as$u20$alloc..vec..in_place_collect..SpecInPlaceCollect$LT$T$C$I$GT$$GT$16collect_in_place17h3ee5b2dd22a64867E', symObjAddr: 0x7A4, symBinAddr: 0x404EC, symSize: 0xB8 }
  - { offset: 0xC7C25, size: 0x8, addend: 0x0, symName: '__ZN100_$LT$$RF$mut$u20$serde_json..ser..Serializer$LT$W$C$F$GT$$u20$as$u20$serde_core..ser..Serializer$GT$13serialize_f6417h660a6691d5d4333dE', symObjAddr: 0x0, symBinAddr: 0x405C8, symSize: 0x84 }
  - { offset: 0xC7EC4, size: 0x8, addend: 0x0, symName: '__ZN100_$LT$$RF$mut$u20$serde_json..ser..Serializer$LT$W$C$F$GT$$u20$as$u20$serde_core..ser..Serializer$GT$13serialize_f6417h660a6691d5d4333dE', symObjAddr: 0x0, symBinAddr: 0x405C8, symSize: 0x84 }
  - { offset: 0xC7F10, size: 0x8, addend: 0x0, symName: '__ZN100_$LT$$RF$mut$u20$serde_json..ser..Serializer$LT$W$C$F$GT$$u20$as$u20$serde_core..ser..Serializer$GT$13serialize_f6417hcc566db364405d67E', symObjAddr: 0x84, symBinAddr: 0x4064C, symSize: 0x84 }
  - { offset: 0xC7F5C, size: 0x8, addend: 0x0, symName: '__ZN100_$LT$$RF$mut$u20$serde_json..ser..Serializer$LT$W$C$F$GT$$u20$as$u20$serde_core..ser..Serializer$GT$13serialize_i6417h08b21df7b0f3bf0fE', symObjAddr: 0x108, symBinAddr: 0x406D0, symSize: 0x3C }
  - { offset: 0xC7FA8, size: 0x8, addend: 0x0, symName: '__ZN100_$LT$$RF$mut$u20$serde_json..ser..Serializer$LT$W$C$F$GT$$u20$as$u20$serde_core..ser..Serializer$GT$13serialize_i6417h6c4166e2b3f0d6baE', symObjAddr: 0x144, symBinAddr: 0x4070C, symSize: 0x3C }
  - { offset: 0xC7FF4, size: 0x8, addend: 0x0, symName: '__ZN100_$LT$$RF$mut$u20$serde_json..ser..Serializer$LT$W$C$F$GT$$u20$as$u20$serde_core..ser..Serializer$GT$13serialize_map17h84b74bd7d64f895aE', symObjAddr: 0x180, symBinAddr: 0x40748, symSize: 0x104 }
  - { offset: 0xC807F, size: 0x8, addend: 0x0, symName: '__ZN100_$LT$$RF$mut$u20$serde_json..ser..Serializer$LT$W$C$F$GT$$u20$as$u20$serde_core..ser..Serializer$GT$13serialize_map17hf1211c3f073fe65bE', symObjAddr: 0x284, symBinAddr: 0x4084C, symSize: 0x104 }
  - { offset: 0xC810A, size: 0x8, addend: 0x0, symName: '__ZN100_$LT$$RF$mut$u20$serde_json..ser..Serializer$LT$W$C$F$GT$$u20$as$u20$serde_core..ser..Serializer$GT$13serialize_seq17h022250b8f76b9694E', symObjAddr: 0x388, symBinAddr: 0x40950, symSize: 0x104 }
  - { offset: 0xC8195, size: 0x8, addend: 0x0, symName: '__ZN100_$LT$$RF$mut$u20$serde_json..ser..Serializer$LT$W$C$F$GT$$u20$as$u20$serde_core..ser..Serializer$GT$13serialize_seq17h201df80bb6e4bf53E', symObjAddr: 0x48C, symBinAddr: 0x40A54, symSize: 0x104 }
  - { offset: 0xC8220, size: 0x8, addend: 0x0, symName: '__ZN100_$LT$$RF$mut$u20$serde_json..ser..Serializer$LT$W$C$F$GT$$u20$as$u20$serde_core..ser..Serializer$GT$13serialize_str17h3bfb76e1bc9a47a7E', symObjAddr: 0x590, symBinAddr: 0x40B58, symSize: 0x48 }
  - { offset: 0xC826C, size: 0x8, addend: 0x0, symName: '__ZN100_$LT$$RF$mut$u20$serde_json..ser..Serializer$LT$W$C$F$GT$$u20$as$u20$serde_core..ser..Serializer$GT$13serialize_str17h93c3ed3d245b2e9eE', symObjAddr: 0x5D8, symBinAddr: 0x40BA0, symSize: 0x48 }
  - { offset: 0xC82B8, size: 0x8, addend: 0x0, symName: '__ZN100_$LT$$RF$mut$u20$serde_json..ser..Serializer$LT$W$C$F$GT$$u20$as$u20$serde_core..ser..Serializer$GT$13serialize_u6417h00fedc7d7e63b88cE', symObjAddr: 0x620, symBinAddr: 0x40BE8, symSize: 0x3C }
  - { offset: 0xC8304, size: 0x8, addend: 0x0, symName: '__ZN100_$LT$$RF$mut$u20$serde_json..ser..Serializer$LT$W$C$F$GT$$u20$as$u20$serde_core..ser..Serializer$GT$13serialize_u6417h72f421e62017ad97E', symObjAddr: 0x65C, symBinAddr: 0x40C24, symSize: 0x3C }
  - { offset: 0xC8350, size: 0x8, addend: 0x0, symName: '__ZN100_$LT$$RF$mut$u20$serde_json..ser..Serializer$LT$W$C$F$GT$$u20$as$u20$serde_core..ser..Serializer$GT$14serialize_bool17h5ce16ab0945acc50E', symObjAddr: 0x698, symBinAddr: 0x40C60, symSize: 0x3C }
  - { offset: 0xC839C, size: 0x8, addend: 0x0, symName: '__ZN100_$LT$$RF$mut$u20$serde_json..ser..Serializer$LT$W$C$F$GT$$u20$as$u20$serde_core..ser..Serializer$GT$14serialize_bool17h6318bd54fecfb9b9E', symObjAddr: 0x6D4, symBinAddr: 0x40C9C, symSize: 0x3C }
  - { offset: 0xC83E8, size: 0x8, addend: 0x0, symName: '__ZN100_$LT$$RF$mut$u20$serde_json..ser..Serializer$LT$W$C$F$GT$$u20$as$u20$serde_core..ser..Serializer$GT$14serialize_unit17h1a9d94784289b499E', symObjAddr: 0x710, symBinAddr: 0x40CD8, symSize: 0x30 }
  - { offset: 0xC8426, size: 0x8, addend: 0x0, symName: '__ZN100_$LT$$RF$mut$u20$serde_json..ser..Serializer$LT$W$C$F$GT$$u20$as$u20$serde_core..ser..Serializer$GT$14serialize_unit17hc8dab6419a815369E', symObjAddr: 0x740, symBinAddr: 0x40D08, symSize: 0x30 }
  - { offset: 0xC8465, size: 0x8, addend: 0x0, symName: __ZN10serde_json3ser13to_vec_pretty17he0e3a60b8946054aE, symObjAddr: 0xBF8, symBinAddr: 0x411C0, symSize: 0xDC }
  - { offset: 0xC84D0, size: 0x8, addend: 0x0, symName: __ZN10serde_json3ser16to_string_pretty17h8726b7f4e7a5d725E, symObjAddr: 0xCD4, symBinAddr: 0x4129C, symSize: 0x108 }
  - { offset: 0xC8579, size: 0x8, addend: 0x0, symName: __ZN10serde_json3ser16to_writer_pretty17h176db6ccfddc33aaE, symObjAddr: 0xDDC, symBinAddr: 0x413A4, symSize: 0x64 }
  - { offset: 0xC85E6, size: 0x8, addend: 0x0, symName: __ZN10serde_json3ser18format_escaped_str17hb77971588c9342c7E, symObjAddr: 0xE40, symBinAddr: 0x41408, symSize: 0xC8 }
  - { offset: 0xC8680, size: 0x8, addend: 0x0, symName: __ZN10serde_json3ser18format_escaped_str17hd5437919e52993a6E, symObjAddr: 0xF08, symBinAddr: 0x414D0, symSize: 0xC8 }
  - { offset: 0xC8849, size: 0x8, addend: 0x0, symName: __ZN10serde_json3ser27format_escaped_str_contents17h27981cf5b5c05aadE, symObjAddr: 0x1030, symBinAddr: 0x415F8, symSize: 0x390 }
  - { offset: 0xC89EE, size: 0x8, addend: 0x0, symName: __ZN10serde_json3ser27format_escaped_str_contents17h2c7322aacff8e4d6E, symObjAddr: 0x13C0, symBinAddr: 0x41988, symSize: 0x390 }
  - { offset: 0xC8B93, size: 0x8, addend: 0x0, symName: __ZN10serde_json3ser6indent17hcfc9c3b91cdac3adE, symObjAddr: 0x17D0, symBinAddr: 0x41D98, symSize: 0xA0 }
  - { offset: 0xC8C1C, size: 0x8, addend: 0x0, symName: __ZN10serde_json3ser6to_vec17hb64320c6fc6de82dE, symObjAddr: 0x1870, symBinAddr: 0x41E38, symSize: 0xDC }
  - { offset: 0xC8C8C, size: 0x8, addend: 0x0, symName: __ZN10serde_json3ser9Formatter10end_object17h660b76010b2e4b09E, symObjAddr: 0x194C, symBinAddr: 0x41F14, symSize: 0x40 }
  - { offset: 0xC8CDB, size: 0x8, addend: 0x0, symName: __ZN10serde_json3ser9Formatter10end_string17h7013a88648d91955E, symObjAddr: 0x198C, symBinAddr: 0x41F54, symSize: 0x40 }
  - { offset: 0xC8D2A, size: 0x8, addend: 0x0, symName: __ZN10serde_json3ser9Formatter10end_string17h929ea96eed56cd04E, symObjAddr: 0x19CC, symBinAddr: 0x41F94, symSize: 0x40 }
  - { offset: 0xC8D79, size: 0x8, addend: 0x0, symName: __ZN10serde_json3ser9Formatter10write_bool17h0c2a363b9d106482E, symObjAddr: 0x1A0C, symBinAddr: 0x41FD4, symSize: 0x70 }
  - { offset: 0xC8DF5, size: 0x8, addend: 0x0, symName: __ZN10serde_json3ser9Formatter10write_bool17h44d7a8846e29a9bcE, symObjAddr: 0x1A7C, symBinAddr: 0x42044, symSize: 0x70 }
  - { offset: 0xC8E71, size: 0x8, addend: 0x0, symName: __ZN10serde_json3ser9Formatter10write_null17h5bfb78c0727a231dE, symObjAddr: 0x1AEC, symBinAddr: 0x420B4, symSize: 0x40 }
  - { offset: 0xC8EC0, size: 0x8, addend: 0x0, symName: __ZN10serde_json3ser9Formatter10write_null17h5f9b10ad8529ff62E, symObjAddr: 0x1B2C, symBinAddr: 0x420F4, symSize: 0x40 }
  - { offset: 0xC8F0F, size: 0x8, addend: 0x0, symName: __ZN10serde_json3ser9Formatter11begin_array17h0638a36c1ac69d84E, symObjAddr: 0x1B6C, symBinAddr: 0x42134, symSize: 0x40 }
  - { offset: 0xC8F5E, size: 0x8, addend: 0x0, symName: __ZN10serde_json3ser9Formatter12begin_object17h56e1fbf249984715E, symObjAddr: 0x1BAC, symBinAddr: 0x42174, symSize: 0x40 }
  - { offset: 0xC8FAD, size: 0x8, addend: 0x0, symName: __ZN10serde_json3ser9Formatter12begin_string17h1fbbd41f6f02c021E, symObjAddr: 0x1BEC, symBinAddr: 0x421B4, symSize: 0x40 }
  - { offset: 0xC8FFC, size: 0x8, addend: 0x0, symName: __ZN10serde_json3ser9Formatter12begin_string17h355fdf1fc31bdc0fE, symObjAddr: 0x1C2C, symBinAddr: 0x421F4, symSize: 0x40 }
  - { offset: 0xC904B, size: 0x8, addend: 0x0, symName: __ZN10serde_json3ser9Formatter14end_object_key17h39ed4e14eb21753cE, symObjAddr: 0x1C6C, symBinAddr: 0x42234, symSize: 0x18 }
  - { offset: 0xC909A, size: 0x8, addend: 0x0, symName: __ZN10serde_json3ser9Formatter14end_object_key17he806ec34f1db2df5E, symObjAddr: 0x1C84, symBinAddr: 0x4224C, symSize: 0x18 }
  - { offset: 0xC90E9, size: 0x8, addend: 0x0, symName: __ZN10serde_json3ser9Formatter15end_array_value17h32f91618a98ba8f6E, symObjAddr: 0x1C9C, symBinAddr: 0x42264, symSize: 0x18 }
  - { offset: 0xC9138, size: 0x8, addend: 0x0, symName: __ZN10serde_json3ser9Formatter16begin_object_key17hd255775c0f988230E, symObjAddr: 0x1CB4, symBinAddr: 0x4227C, symSize: 0x5C }
  - { offset: 0xC9196, size: 0x8, addend: 0x0, symName: __ZN10serde_json3ser9Formatter16end_object_value17h34a2e07bb1201e41E, symObjAddr: 0x1D10, symBinAddr: 0x422D8, symSize: 0x18 }
  - { offset: 0xC91E5, size: 0x8, addend: 0x0, symName: __ZN10serde_json3ser9Formatter17begin_array_value17h0f28dd24fc9e76b0E, symObjAddr: 0x1D28, symBinAddr: 0x422F0, symSize: 0x5C }
  - { offset: 0xC9243, size: 0x8, addend: 0x0, symName: __ZN10serde_json3ser9Formatter17write_char_escape17hb6e95489fa9faa8aE, symObjAddr: 0x1D84, symBinAddr: 0x4234C, symSize: 0x254 }
  - { offset: 0xC92F3, size: 0x8, addend: 0x0, symName: __ZN10serde_json3ser9Formatter17write_char_escape17hf9919897279c410eE, symObjAddr: 0x1FD8, symBinAddr: 0x425A0, symSize: 0x254 }
  - { offset: 0xC93A3, size: 0x8, addend: 0x0, symName: __ZN10serde_json3ser9Formatter18begin_object_value17ha869ed65384d8341E, symObjAddr: 0x222C, symBinAddr: 0x427F4, symSize: 0x40 }
  - { offset: 0xC93F2, size: 0x8, addend: 0x0, symName: __ZN10serde_json3ser9Formatter21write_string_fragment17h0e74d65159e20fa6E, symObjAddr: 0x226C, symBinAddr: 0x42834, symSize: 0x50 }
  - { offset: 0xC9450, size: 0x8, addend: 0x0, symName: __ZN10serde_json3ser9Formatter21write_string_fragment17h9eeddfb20e2dcd78E, symObjAddr: 0x22BC, symBinAddr: 0x42884, symSize: 0x50 }
  - { offset: 0xC94AE, size: 0x8, addend: 0x0, symName: __ZN10serde_json3ser9Formatter9end_array17hb84788d8fa0b161fE, symObjAddr: 0x230C, symBinAddr: 0x428D4, symSize: 0x40 }
  - { offset: 0xC94FD, size: 0x8, addend: 0x0, symName: __ZN10serde_json3ser9Formatter9write_f6417h0f7ae03cb146ba92E, symObjAddr: 0x234C, symBinAddr: 0x42914, symSize: 0x74 }
  - { offset: 0xC9597, size: 0x8, addend: 0x0, symName: __ZN10serde_json3ser9Formatter9write_f6417hae39b6acee68f210E, symObjAddr: 0x23C0, symBinAddr: 0x42988, symSize: 0x74 }
  - { offset: 0xC9631, size: 0x8, addend: 0x0, symName: __ZN10serde_json3ser9Formatter9write_i6417ha9d026a4454628e6E, symObjAddr: 0x2434, symBinAddr: 0x429FC, symSize: 0x74 }
  - { offset: 0xC96CB, size: 0x8, addend: 0x0, symName: __ZN10serde_json3ser9Formatter9write_i6417hbce58b6e512ea5acE, symObjAddr: 0x24A8, symBinAddr: 0x42A70, symSize: 0x74 }
  - { offset: 0xC9765, size: 0x8, addend: 0x0, symName: __ZN10serde_json3ser9Formatter9write_u6417h3062b2cd28643ee6E, symObjAddr: 0x251C, symBinAddr: 0x42AE4, symSize: 0x74 }
  - { offset: 0xC97FF, size: 0x8, addend: 0x0, symName: __ZN10serde_json3ser9Formatter9write_u6417h9ff6a381651a842eE, symObjAddr: 0x2590, symBinAddr: 0x42B58, symSize: 0x74 }
  - { offset: 0xC989A, size: 0x8, addend: 0x0, symName: __ZN10serde_json3ser9to_string17h0da70dd860854152E, symObjAddr: 0x2604, symBinAddr: 0x42BCC, symSize: 0x108 }
  - { offset: 0xC9943, size: 0x8, addend: 0x0, symName: __ZN10serde_json3ser9to_writer17h51487e37a2d1c467E, symObjAddr: 0x270C, symBinAddr: 0x42CD4, symSize: 0x64 }
  - { offset: 0xC99B5, size: 0x8, addend: 0x0, symName: '__ZN79_$LT$serde_json..ser..PrettyFormatter$u20$as$u20$serde_json..ser..Formatter$GT$10end_object17hf3053e69d697d87dE', symObjAddr: 0x2770, symBinAddr: 0x42D38, symSize: 0x10C }
  - { offset: 0xC9A37, size: 0x8, addend: 0x0, symName: '__ZN79_$LT$serde_json..ser..PrettyFormatter$u20$as$u20$serde_json..ser..Formatter$GT$11begin_array17hb07ada39252f2e4aE', symObjAddr: 0x287C, symBinAddr: 0x42E44, symSize: 0x78 }
  - { offset: 0xC9A7D, size: 0x8, addend: 0x0, symName: '__ZN79_$LT$serde_json..ser..PrettyFormatter$u20$as$u20$serde_json..ser..Formatter$GT$12begin_object17h55a72d803d8cd8b9E', symObjAddr: 0x28F4, symBinAddr: 0x42EBC, symSize: 0x78 }
  - { offset: 0xC9AC3, size: 0x8, addend: 0x0, symName: '__ZN79_$LT$serde_json..ser..PrettyFormatter$u20$as$u20$serde_json..ser..Formatter$GT$15end_array_value17ha760524fad17b8d4E', symObjAddr: 0x296C, symBinAddr: 0x42F34, symSize: 0x24 }
  - { offset: 0xC9B09, size: 0x8, addend: 0x0, symName: '__ZN79_$LT$serde_json..ser..PrettyFormatter$u20$as$u20$serde_json..ser..Formatter$GT$16begin_object_key17h93be0f7809d4ae1aE', symObjAddr: 0x2990, symBinAddr: 0x42F58, symSize: 0xC0 }
  - { offset: 0xC9B7C, size: 0x8, addend: 0x0, symName: '__ZN79_$LT$serde_json..ser..PrettyFormatter$u20$as$u20$serde_json..ser..Formatter$GT$16end_object_value17h18ff38103ec9cc00E', symObjAddr: 0x2A50, symBinAddr: 0x43018, symSize: 0x24 }
  - { offset: 0xC9BC2, size: 0x8, addend: 0x0, symName: '__ZN79_$LT$serde_json..ser..PrettyFormatter$u20$as$u20$serde_json..ser..Formatter$GT$17begin_array_value17h9096d47d35faf897E', symObjAddr: 0x2A74, symBinAddr: 0x4303C, symSize: 0xC0 }
  - { offset: 0xC9C35, size: 0x8, addend: 0x0, symName: '__ZN79_$LT$serde_json..ser..PrettyFormatter$u20$as$u20$serde_json..ser..Formatter$GT$18begin_object_value17h3b1e1662137191f2E', symObjAddr: 0x2B34, symBinAddr: 0x430FC, symSize: 0x40 }
  - { offset: 0xC9C7B, size: 0x8, addend: 0x0, symName: '__ZN79_$LT$serde_json..ser..PrettyFormatter$u20$as$u20$serde_json..ser..Formatter$GT$9end_array17hf4a1bc0696283b13E', symObjAddr: 0x2B74, symBinAddr: 0x4313C, symSize: 0x10C }
  - { offset: 0xC9D03, size: 0x8, addend: 0x0, symName: '__ZN88_$LT$serde_json..ser..Compound$LT$W$C$F$GT$$u20$as$u20$serde_core..ser..SerializeMap$GT$13serialize_key17h016c11ece794b77fE', symObjAddr: 0x2C80, symBinAddr: 0x43248, symSize: 0x104 }
  - { offset: 0xC9DC5, size: 0x8, addend: 0x0, symName: '__ZN88_$LT$serde_json..ser..Compound$LT$W$C$F$GT$$u20$as$u20$serde_core..ser..SerializeMap$GT$13serialize_key17h97f8d53f6d18964fE', symObjAddr: 0x2D84, symBinAddr: 0x4334C, symSize: 0x104 }
  - { offset: 0xC9E87, size: 0x8, addend: 0x0, symName: '__ZN88_$LT$serde_json..ser..Compound$LT$W$C$F$GT$$u20$as$u20$serde_core..ser..SerializeMap$GT$15serialize_value17h3ef47ad52aa15953E', symObjAddr: 0x2E88, symBinAddr: 0x43450, symSize: 0xCC }
  - { offset: 0xC9F39, size: 0x8, addend: 0x0, symName: '__ZN88_$LT$serde_json..ser..Compound$LT$W$C$F$GT$$u20$as$u20$serde_core..ser..SerializeMap$GT$15serialize_value17hbe9226b879362891E', symObjAddr: 0x2F54, symBinAddr: 0x4351C, symSize: 0xCC }
  - { offset: 0xC9FEB, size: 0x8, addend: 0x0, symName: '__ZN88_$LT$serde_json..ser..Compound$LT$W$C$F$GT$$u20$as$u20$serde_core..ser..SerializeMap$GT$3end17h2b7526c94c48b2a3E', symObjAddr: 0x3020, symBinAddr: 0x435E8, symSize: 0x64 }
  - { offset: 0xCA059, size: 0x8, addend: 0x0, symName: '__ZN88_$LT$serde_json..ser..Compound$LT$W$C$F$GT$$u20$as$u20$serde_core..ser..SerializeMap$GT$3end17h677814af0f7da885E', symObjAddr: 0x3084, symBinAddr: 0x4364C, symSize: 0x64 }
  - { offset: 0xCA0CD, size: 0x8, addend: 0x0, symName: '__ZN88_$LT$serde_json..ser..Compound$LT$W$C$F$GT$$u20$as$u20$serde_core..ser..SerializeSeq$GT$17serialize_element17h0d8b05449fd44507E', symObjAddr: 0x30E8, symBinAddr: 0x436B0, symSize: 0x104 }
  - { offset: 0xCA18F, size: 0x8, addend: 0x0, symName: '__ZN88_$LT$serde_json..ser..Compound$LT$W$C$F$GT$$u20$as$u20$serde_core..ser..SerializeSeq$GT$17serialize_element17h4ff440d0b582024dE', symObjAddr: 0x31EC, symBinAddr: 0x437B4, symSize: 0x104 }
  - { offset: 0xCA251, size: 0x8, addend: 0x0, symName: '__ZN88_$LT$serde_json..ser..Compound$LT$W$C$F$GT$$u20$as$u20$serde_core..ser..SerializeSeq$GT$3end17h24e0f07be593bd01E', symObjAddr: 0x32F0, symBinAddr: 0x438B8, symSize: 0x64 }
  - { offset: 0xCA2BF, size: 0x8, addend: 0x0, symName: '__ZN88_$LT$serde_json..ser..Compound$LT$W$C$F$GT$$u20$as$u20$serde_core..ser..SerializeSeq$GT$3end17h836c1ca0f599ef46E', symObjAddr: 0x3354, symBinAddr: 0x4391C, symSize: 0x64 }
  - { offset: 0xCA333, size: 0x8, addend: 0x0, symName: '__ZN94_$LT$serde_json..ser..MapKeySerializer$LT$W$C$F$GT$$u20$as$u20$serde_core..ser..Serializer$GT$13serialize_str17h586f6e46143a1043E', symObjAddr: 0x33B8, symBinAddr: 0x43980, symSize: 0x30 }
  - { offset: 0xCA382, size: 0x8, addend: 0x0, symName: '__ZN94_$LT$serde_json..ser..MapKeySerializer$LT$W$C$F$GT$$u20$as$u20$serde_core..ser..Serializer$GT$13serialize_str17hf2e5a872cec57b26E', symObjAddr: 0x33E8, symBinAddr: 0x439B0, symSize: 0x30 }
  - { offset: 0xCA9F6, size: 0x8, addend: 0x0, symName: __ZN10serde_core3ser10Serializer11collect_seq17h3f74c29f4f9d1b72E, symObjAddr: 0x770, symBinAddr: 0x40D38, symSize: 0x1CC }
  - { offset: 0xCAACB, size: 0x8, addend: 0x0, symName: __ZN10serde_core3ser10Serializer11collect_seq17h7af9f23d53a1b579E, symObjAddr: 0x93C, symBinAddr: 0x40F04, symSize: 0x1CC }
  - { offset: 0xCABA6, size: 0x8, addend: 0x0, symName: __ZN10serde_core3ser12SerializeMap15serialize_entry17h00c96a3dd5c43be4E, symObjAddr: 0xB08, symBinAddr: 0x410D0, symSize: 0x78 }
  - { offset: 0xCAC2A, size: 0x8, addend: 0x0, symName: __ZN10serde_core3ser12SerializeMap15serialize_entry17h9f92ea57a2df3d1cE, symObjAddr: 0xB80, symBinAddr: 0x41148, symSize: 0x78 }
  - { offset: 0xCB8CF, size: 0x8, addend: 0x0, symName: '__ZN10serde_json3ser19Serializer$LT$W$GT$3new17h2d2bc6a90b3a13a1E', symObjAddr: 0xFD0, symBinAddr: 0x41598, symSize: 0x24 }
  - { offset: 0xCB928, size: 0x8, addend: 0x0, symName: '__ZN10serde_json3ser23Serializer$LT$W$C$F$GT$14with_formatter17h6cb05d2c88e5fc1bE', symObjAddr: 0xFF4, symBinAddr: 0x415BC, symSize: 0x28 }
  - { offset: 0xCB96A, size: 0x8, addend: 0x0, symName: '__ZN10serde_json3ser23Serializer$LT$W$C$F$GT$14with_formatter17hd81a584ffa93617fE', symObjAddr: 0x101C, symBinAddr: 0x415E4, symSize: 0x14 }
  - { offset: 0xCBA59, size: 0x8, addend: 0x0, symName: '__ZN10serde_json3ser54Serializer$LT$W$C$serde_json..ser..PrettyFormatter$GT$6pretty17heec6eba415655461E', symObjAddr: 0x1750, symBinAddr: 0x41D18, symSize: 0x80 }
  - { offset: 0xCBD1D, size: 0x8, addend: 0x0, symName: '__ZN5alloc3vec16Vec$LT$T$C$A$GT$13from_parts_in18precondition_check17h43095095f4ceab9bE', symObjAddr: 0x0, symBinAddr: 0x439E0, symSize: 0x60 }
  - { offset: 0xCBD3E, size: 0x8, addend: 0x0, symName: '__ZN5alloc3vec16Vec$LT$T$C$A$GT$13from_parts_in18precondition_check17h43095095f4ceab9bE', symObjAddr: 0x0, symBinAddr: 0x439E0, symSize: 0x60 }
  - { offset: 0xCBD97, size: 0x8, addend: 0x0, symName: '__ZN5alloc3vec16Vec$LT$T$C$A$GT$17from_raw_parts_in18precondition_check17hcd9562060ed93829E', symObjAddr: 0x60, symBinAddr: 0x43A40, symSize: 0x60 }
  - { offset: 0xCBDF0, size: 0x8, addend: 0x0, symName: '__ZN5alloc3vec16Vec$LT$T$C$A$GT$7set_len18precondition_check17h6c091adb3f0be5e9E', symObjAddr: 0xC0, symBinAddr: 0x43AA0, symSize: 0x60 }
  - { offset: 0xCBE9A, size: 0x8, addend: 0x0, symName: __ZN8foldhash4fast10FoldHasher9with_seed17h3bccc4dcffe8f4a8E, symObjAddr: 0x0, symBinAddr: 0x43B00, symSize: 0x54 }
  - { offset: 0xCBF7B, size: 0x8, addend: 0x0, symName: __ZN8foldhash4fast10FoldHasher9with_seed17h3bccc4dcffe8f4a8E, symObjAddr: 0x0, symBinAddr: 0x43B00, symSize: 0x54 }
  - { offset: 0xCBFC9, size: 0x8, addend: 0x0, symName: __ZN3std2io5error5Error3new17ha5e67ed820cfbe75E, symObjAddr: 0x0, symBinAddr: 0x43B54, symSize: 0x4C }
  - { offset: 0xCC4BE, size: 0x8, addend: 0x0, symName: __ZN3std2io5error5Error3new17ha5e67ed820cfbe75E, symObjAddr: 0x0, symBinAddr: 0x43B54, symSize: 0x4C }
  - { offset: 0xCC518, size: 0x8, addend: 0x0, symName: __ZN4core3ptr11write_bytes18precondition_check17hfc4192cc85a2339aE, symObjAddr: 0x0, symBinAddr: 0x43BA0, symSize: 0x9C }
  - { offset: 0xCC7C6, size: 0x8, addend: 0x0, symName: __ZN4core3ptr11write_bytes18precondition_check17hfc4192cc85a2339aE, symObjAddr: 0x0, symBinAddr: 0x43BA0, symSize: 0x9C }
  - { offset: 0xCC89E, size: 0x8, addend: 0x0, symName: __ZN4core3ptr12align_offset7mod_inv17h7916cee34524f634E, symObjAddr: 0x9C, symBinAddr: 0x43C3C, symSize: 0x104 }
  - { offset: 0xCC959, size: 0x8, addend: 0x0, symName: __ZN4core3ptr19copy_nonoverlapping18precondition_check17ha1fff3e5fce3268fE, symObjAddr: 0x1A0, symBinAddr: 0x43D40, symSize: 0x168 }
  - { offset: 0xCCB13, size: 0x8, addend: 0x0, symName: __ZN4core3ptr19swap_nonoverlapping18precondition_check17h52b67bdcfdf00171E, symObjAddr: 0x308, symBinAddr: 0x43EA8, symSize: 0x16C }
  - { offset: 0xCCD37, size: 0x8, addend: 0x0, symName: __ZN4core3ptr25swap_nonoverlapping_bytes17h890062002dc85d35E, symObjAddr: 0x474, symBinAddr: 0x44014, symSize: 0xD8 }
  - { offset: 0xCCEE0, size: 0x8, addend: 0x0, symName: __ZN4core3ptr25swap_nonoverlapping_bytes25swap_nonoverlapping_short17h5d25de6aea4b5688E, symObjAddr: 0x54C, symBinAddr: 0x440EC, symSize: 0x11C }
  - { offset: 0xCD072, size: 0x8, addend: 0x0, symName: __ZN4core3ptr4copy18precondition_check17h6ea1bc2e41b4404cE, symObjAddr: 0x668, symBinAddr: 0x44208, symSize: 0x130 }
  - { offset: 0xCD388, size: 0x8, addend: 0x0, symName: __ZN4core3mem4swap17hbc109225ccfa5254E, symObjAddr: 0x0, symBinAddr: 0x44338, symSize: 0x2C }
  - { offset: 0xCD39F, size: 0x8, addend: 0x0, symName: __ZN4core3mem4swap17hbc109225ccfa5254E, symObjAddr: 0x0, symBinAddr: 0x44338, symSize: 0x2C }
  - { offset: 0xCD3E1, size: 0x8, addend: 0x0, symName: __ZN4core3mem4swap17hf944500560d67962E, symObjAddr: 0x2C, symBinAddr: 0x44364, symSize: 0x4C }
  - { offset: 0xCD423, size: 0x8, addend: 0x0, symName: __ZN4core3mem6forget17h225e3e06417f4cbaE, symObjAddr: 0x78, symBinAddr: 0x443B0, symSize: 0x4 }
  - { offset: 0xCD451, size: 0x8, addend: 0x0, symName: __ZN4core3mem6forget17hb78f736cd06dff00E, symObjAddr: 0x7C, symBinAddr: 0x443B4, symSize: 0x10 }
  - { offset: 0xCD482, size: 0x8, addend: 0x0, symName: __ZN4core3mem7replace17h0c5b762cad4b9606E, symObjAddr: 0x8C, symBinAddr: 0x443C4, symSize: 0x34 }
  - { offset: 0xCD4C8, size: 0x8, addend: 0x0, symName: __ZN4core3mem7replace17h22e035ba53f7c3b8E, symObjAddr: 0xC0, symBinAddr: 0x443F8, symSize: 0x28 }
  - { offset: 0xCD50E, size: 0x8, addend: 0x0, symName: __ZN4core3mem7replace17h50a14ddc76640884E, symObjAddr: 0xE8, symBinAddr: 0x44420, symSize: 0x28 }
  - { offset: 0xCD554, size: 0x8, addend: 0x0, symName: __ZN4core3mem7replace17hffe47298eb1bd754E, symObjAddr: 0x110, symBinAddr: 0x44448, symSize: 0x34 }
  - { offset: 0xCDC0B, size: 0x8, addend: 0x0, symName: __ZN4core5slice4sort6stable5drift10create_run17h68a48f5e679308bcE, symObjAddr: 0x0, symBinAddr: 0x4447C, symSize: 0x400 }
  - { offset: 0xCEA48, size: 0x8, addend: 0x0, symName: __ZN4core5slice4sort6stable5drift10create_run17h68a48f5e679308bcE, symObjAddr: 0x0, symBinAddr: 0x4447C, symSize: 0x400 }
  - { offset: 0xCEF57, size: 0x8, addend: 0x0, symName: __ZN4core5slice4sort6stable5drift10create_run17h77e36361e3f4b883E, symObjAddr: 0x400, symBinAddr: 0x4487C, symSize: 0x400 }
  - { offset: 0xCF466, size: 0x8, addend: 0x0, symName: __ZN4core5slice4sort6stable5drift10create_run17h82257348851eb157E, symObjAddr: 0x800, symBinAddr: 0x44C7C, symSize: 0x3D8 }
  - { offset: 0xCF975, size: 0x8, addend: 0x0, symName: __ZN4core5slice4sort6stable5drift16stable_quicksort17h003febaff0cfe52cE, symObjAddr: 0xBD8, symBinAddr: 0x45054, symSize: 0xB4 }
  - { offset: 0xCFAAF, size: 0x8, addend: 0x0, symName: __ZN4core5slice4sort6stable5drift16stable_quicksort17h919c480762293191E, symObjAddr: 0xC8C, symBinAddr: 0x45108, symSize: 0xB4 }
  - { offset: 0xCFBE9, size: 0x8, addend: 0x0, symName: __ZN4core5slice4sort6stable5drift16stable_quicksort17he94b83cca4ee6382E, symObjAddr: 0xD40, symBinAddr: 0x451BC, symSize: 0xB4 }
  - { offset: 0xCFE0E, size: 0x8, addend: 0x0, symName: __ZN4core5slice4sort6stable5drift4sort17h3128e8aa34050eccE, symObjAddr: 0xDF4, symBinAddr: 0x45270, symSize: 0x61C }
  - { offset: 0xD071E, size: 0x8, addend: 0x0, symName: __ZN4core5slice4sort6stable5drift4sort17h321d475527bb3a36E, symObjAddr: 0x1410, symBinAddr: 0x4588C, symSize: 0x634 }
  - { offset: 0xD102E, size: 0x8, addend: 0x0, symName: __ZN4core5slice4sort6stable5drift4sort17h3cbd17c95da20b88E, symObjAddr: 0x1A44, symBinAddr: 0x45EC0, symSize: 0x634 }
  - { offset: 0xD2D50, size: 0x8, addend: 0x0, symName: __ZN4pyo35types4none6PyNone3get17ha30aa34a02230df7E, symObjAddr: 0x0, symBinAddr: 0x464F4, symSize: 0x2C }
  - { offset: 0xD305F, size: 0x8, addend: 0x0, symName: __ZN4pyo35types4none6PyNone3get17ha30aa34a02230df7E, symObjAddr: 0x0, symBinAddr: 0x464F4, symSize: 0x2C }
  - { offset: 0xD30AA, size: 0x8, addend: 0x0, symName: '__ZN77_$LT$alloc..borrow..Cow$LT$str$GT$$u20$as$u20$alloc..string..SpecToString$GT$14spec_to_string17h4028e0339994edc6E', symObjAddr: 0x0, symBinAddr: 0x46520, symSize: 0x9C }
  - { offset: 0xD321D, size: 0x8, addend: 0x0, symName: '__ZN77_$LT$alloc..borrow..Cow$LT$str$GT$$u20$as$u20$alloc..string..SpecToString$GT$14spec_to_string17h4028e0339994edc6E', symObjAddr: 0x0, symBinAddr: 0x46520, symSize: 0x9C }
  - { offset: 0xD391E, size: 0x8, addend: 0x0, symName: '__ZN4pyo312pyclass_init27PyClassInitializer$LT$T$GT$27create_class_object_of_type17h561e7ae8b6b57de8E', symObjAddr: 0x0, symBinAddr: 0x465BC, symSize: 0x328 }
  - { offset: 0xD43AB, size: 0x8, addend: 0x0, symName: '__ZN96_$LT$pyo3..pyclass_init..PyClassInitializer$LT$T$GT$$u20$as$u20$core..convert..From$LT$T$GT$$GT$4from17h7bf2c7db28dc43f2E', symObjAddr: 0x420, symBinAddr: 0x469DC, symSize: 0x48 }
  - { offset: 0xD50E7, size: 0x8, addend: 0x0, symName: '__ZN4pyo312pyclass_init27PyClassInitializer$LT$T$GT$27create_class_object_of_type17h561e7ae8b6b57de8E', symObjAddr: 0x0, symBinAddr: 0x465BC, symSize: 0x328 }
  - { offset: 0xD52E6, size: 0x8, addend: 0x0, symName: '__ZN4pyo312pyclass_init27PyClassInitializer$LT$T$GT$3new17hd37ab3cc03abd583E', symObjAddr: 0x328, symBinAddr: 0x468E4, symSize: 0xF8 }
  - { offset: 0xD533F, size: 0x8, addend: 0x0, symName: __ZN5rayon4iter16ParallelIterator3map17h4fdef0f02bda392aE, symObjAddr: 0x0, symBinAddr: 0x46A24, symSize: 0x38 }
  - { offset: 0xD56F8, size: 0x8, addend: 0x0, symName: __ZN5rayon4iter16ParallelIterator3map17h4fdef0f02bda392aE, symObjAddr: 0x0, symBinAddr: 0x46A24, symSize: 0x38 }
  - { offset: 0xD575B, size: 0x8, addend: 0x0, symName: __ZN5rayon4iter8plumbing8Producer7max_len17h90cce0861fa5c77aE, symObjAddr: 0x38, symBinAddr: 0x46A5C, symSize: 0x14 }
  - { offset: 0xD5790, size: 0x8, addend: 0x0, symName: __ZN5rayon4iter8plumbing8Producer7min_len17h1dea368ebd4b57fbE, symObjAddr: 0x4C, symBinAddr: 0x46A70, symSize: 0x18 }
  - { offset: 0xD57C5, size: 0x8, addend: 0x0, symName: __ZN5rayon4iter8plumbing8Producer9fold_with17ha69590d09819f7e2E, symObjAddr: 0x64, symBinAddr: 0x46A88, symSize: 0xBC }
  - { offset: 0xD5812, size: 0x8, addend: 0x0, symName: __ZN5rayon4iter8plumbing8Producer9fold_with17hc7739c174c70d55cE, symObjAddr: 0x120, symBinAddr: 0x46B44, symSize: 0xBC }
  - { offset: 0xD5BF5, size: 0x8, addend: 0x0, symName: '__ZN5rayon5slice79_$LT$impl$u20$rayon..iter..IntoParallelIterator$u20$for$u20$$RF$$u5b$T$u5d$$GT$13into_par_iter17h5d11c56841b15f50E', symObjAddr: 0x1DC, symBinAddr: 0x46C00, symSize: 0x18 }
  - { offset: 0xD5C32, size: 0x8, addend: 0x0, symName: '__ZN77_$LT$rayon..slice..Iter$LT$T$GT$$u20$as$u20$rayon..iter..ParallelIterator$GT$15drive_unindexed17h6967eb9827b74624E', symObjAddr: 0x1F4, symBinAddr: 0x46C18, symSize: 0x5C }
  - { offset: 0xD5C82, size: 0x8, addend: 0x0, symName: '__ZN77_$LT$rayon..slice..Iter$LT$T$GT$$u20$as$u20$rayon..iter..ParallelIterator$GT$15drive_unindexed17h76396fcc686049a6E', symObjAddr: 0x250, symBinAddr: 0x46C74, symSize: 0x40 }
  - { offset: 0xD5CD8, size: 0x8, addend: 0x0, symName: '__ZN84_$LT$rayon..slice..Iter$LT$T$GT$$u20$as$u20$rayon..iter..IndexedParallelIterator$GT$13with_producer17h52e8f47aac32e980E', symObjAddr: 0x290, symBinAddr: 0x46CB4, symSize: 0x5C }
  - { offset: 0xD5D28, size: 0x8, addend: 0x0, symName: '__ZN84_$LT$rayon..slice..Iter$LT$T$GT$$u20$as$u20$rayon..iter..IndexedParallelIterator$GT$13with_producer17h97e404851e98a8d3E', symObjAddr: 0x2EC, symBinAddr: 0x46D10, symSize: 0x54 }
  - { offset: 0xD5D78, size: 0x8, addend: 0x0, symName: '__ZN84_$LT$rayon..slice..Iter$LT$T$GT$$u20$as$u20$rayon..iter..IndexedParallelIterator$GT$3len17h5e01892580019995E', symObjAddr: 0x340, symBinAddr: 0x46D64, symSize: 0x18 }
  - { offset: 0xD5DB5, size: 0x8, addend: 0x0, symName: '__ZN87_$LT$rayon..slice..IterProducer$LT$T$GT$$u20$as$u20$rayon..iter..plumbing..Producer$GT$8split_at17hacd36ab507e19b3dE', symObjAddr: 0x358, symBinAddr: 0x46D7C, symSize: 0x70 }
  - { offset: 0xD5E29, size: 0x8, addend: 0x0, symName: '__ZN87_$LT$rayon..slice..IterProducer$LT$T$GT$$u20$as$u20$rayon..iter..plumbing..Producer$GT$9into_iter17h6941af555d4526fcE', symObjAddr: 0x3C8, symBinAddr: 0x46DEC, symSize: 0x28 }
  - { offset: 0xD6982, size: 0x8, addend: 0x0, symName: '__ZN10serde_json3map59Map$LT$alloc..string..String$C$serde_json..value..Value$GT$3len17h50069701bc002f00E', symObjAddr: 0x0, symBinAddr: 0x46E14, symSize: 0x24 }
  - { offset: 0xD6A5F, size: 0x8, addend: 0x0, symName: '__ZN142_$LT$$RF$serde_json..map..Map$LT$alloc..string..String$C$serde_json..value..Value$GT$$u20$as$u20$core..iter..traits..collect..IntoIterator$GT$9into_iter17h72f4b6ac57ad6facE', symObjAddr: 0x138, symBinAddr: 0x46F4C, symSize: 0x44 }
  - { offset: 0xD6A93, size: 0x8, addend: 0x0, symName: '__ZN80_$LT$serde_json..map..Iter$u20$as$u20$core..iter..traits..iterator..Iterator$GT$4next17h4766f862a5013fddE', symObjAddr: 0x17C, symBinAddr: 0x46F90, symSize: 0x24 }
  - { offset: 0xD6AC7, size: 0x8, addend: 0x0, symName: '__ZN80_$LT$serde_json..map..Keys$u20$as$u20$core..iter..traits..iterator..Iterator$GT$4next17h9b5d3e04cb730aeaE', symObjAddr: 0x1A0, symBinAddr: 0x46FB4, symSize: 0x24 }
  - { offset: 0xD6AFB, size: 0x8, addend: 0x0, symName: '__ZN82_$LT$serde_json..map..Values$u20$as$u20$core..iter..traits..iterator..Iterator$GT$4next17h2b0fe43db35919b0E', symObjAddr: 0x1C4, symBinAddr: 0x46FD8, symSize: 0x24 }
  - { offset: 0xD6B29, size: 0x8, addend: 0x0, symName: '__ZN82_$LT$serde_json..map..Values$u20$as$u20$core..iter..traits..iterator..Iterator$GT$9size_hint17h864d50f682dbc637E', symObjAddr: 0x1E8, symBinAddr: 0x46FFC, symSize: 0x24 }
  - { offset: 0xD7913, size: 0x8, addend: 0x0, symName: '__ZN10serde_json3map59Map$LT$alloc..string..String$C$serde_json..value..Value$GT$3len17h50069701bc002f00E', symObjAddr: 0x0, symBinAddr: 0x46E14, symSize: 0x24 }
  - { offset: 0xD7936, size: 0x8, addend: 0x0, symName: '__ZN10serde_json3map59Map$LT$alloc..string..String$C$serde_json..value..Value$GT$3new17h8da8b2266a103d89E', symObjAddr: 0x24, symBinAddr: 0x46E38, symSize: 0x38 }
  - { offset: 0xD7992, size: 0x8, addend: 0x0, symName: '__ZN10serde_json3map59Map$LT$alloc..string..String$C$serde_json..value..Value$GT$4keys17h79f3e35af47a93eaE', symObjAddr: 0x5C, symBinAddr: 0x46E70, symSize: 0x44 }
  - { offset: 0xD79C2, size: 0x8, addend: 0x0, symName: '__ZN10serde_json3map59Map$LT$alloc..string..String$C$serde_json..value..Value$GT$6insert17h333c2bc000cb7557E', symObjAddr: 0xA0, symBinAddr: 0x46EB4, symSize: 0x54 }
  - { offset: 0xD7A02, size: 0x8, addend: 0x0, symName: '__ZN10serde_json3map59Map$LT$alloc..string..String$C$serde_json..value..Value$GT$6values17h1a7fc3b6e443aa55E', symObjAddr: 0xF4, symBinAddr: 0x46F08, symSize: 0x44 }
  - { offset: 0xD7ACD, size: 0x8, addend: 0x0, symName: '__ZN110_$LT$core..iter..adapters..enumerate..Enumerate$LT$I$GT$$u20$as$u20$core..iter..traits..iterator..Iterator$GT$4next17h6fe8bea4cee4b54cE', symObjAddr: 0x0, symBinAddr: 0x47020, symSize: 0xE0 }
  - { offset: 0xD800F, size: 0x8, addend: 0x0, symName: '__ZN110_$LT$core..iter..adapters..enumerate..Enumerate$LT$I$GT$$u20$as$u20$core..iter..traits..iterator..Iterator$GT$4next17h6fe8bea4cee4b54cE', symObjAddr: 0x0, symBinAddr: 0x47020, symSize: 0xE0 }
  - { offset: 0xD80F5, size: 0x8, addend: 0x0, symName: '__ZN110_$LT$core..iter..adapters..enumerate..Enumerate$LT$I$GT$$u20$as$u20$core..iter..traits..iterator..Iterator$GT$4next17h996d97f50d51422dE', symObjAddr: 0xE0, symBinAddr: 0x47100, symSize: 0xE0 }
  - { offset: 0xD8271, size: 0x8, addend: 0x0, symName: '__ZN63_$LT$I$u20$as$u20$core..iter..traits..collect..IntoIterator$GT$9into_iter17h2692d1e905ebacf1E', symObjAddr: 0x1C0, symBinAddr: 0x471E0, symSize: 0x30 }
  - { offset: 0xD82A9, size: 0x8, addend: 0x0, symName: '__ZN63_$LT$I$u20$as$u20$core..iter..traits..collect..IntoIterator$GT$9into_iter17h90b224b59fadbec0E', symObjAddr: 0x1F0, symBinAddr: 0x47210, symSize: 0x18 }
  - { offset: 0xD8623, size: 0x8, addend: 0x0, symName: __ZN10rayon_core9FnContext3new17h6ed366fcc1d17e07E, symObjAddr: 0x0, symBinAddr: 0x47228, symSize: 0x10 }
  - { offset: 0xD86BC, size: 0x8, addend: 0x0, symName: __ZN10rayon_core9FnContext3new17h6ed366fcc1d17e07E, symObjAddr: 0x0, symBinAddr: 0x47228, symSize: 0x10 }
  - { offset: 0xD86EC, size: 0x8, addend: 0x0, symName: __ZN10rayon_core9FnContext8migrated17h1140d430b4fc73c8E, symObjAddr: 0x10, symBinAddr: 0x47238, symSize: 0x1C }
  - { offset: 0xD872D, size: 0x8, addend: 0x0, symName: '__ZN103_$LT$rayon..iter..map..MapConsumer$LT$C$C$F$GT$$u20$as$u20$rayon..iter..plumbing..Consumer$LT$T$GT$$GT$11into_folder17h11e2037bec56db07E', symObjAddr: 0x0, symBinAddr: 0x47254, symSize: 0x60 }
  - { offset: 0xD8AEB, size: 0x8, addend: 0x0, symName: '__ZN103_$LT$rayon..iter..map..MapConsumer$LT$C$C$F$GT$$u20$as$u20$rayon..iter..plumbing..Consumer$LT$T$GT$$GT$11into_folder17h11e2037bec56db07E', symObjAddr: 0x0, symBinAddr: 0x47254, symSize: 0x60 }
  - { offset: 0xD8B3C, size: 0x8, addend: 0x0, symName: '__ZN103_$LT$rayon..iter..map..MapConsumer$LT$C$C$F$GT$$u20$as$u20$rayon..iter..plumbing..Consumer$LT$T$GT$$GT$11into_folder17h3df19e7ebe438019E', symObjAddr: 0x60, symBinAddr: 0x472B4, symSize: 0x64 }
  - { offset: 0xD8B8D, size: 0x8, addend: 0x0, symName: '__ZN103_$LT$rayon..iter..map..MapConsumer$LT$C$C$F$GT$$u20$as$u20$rayon..iter..plumbing..Consumer$LT$T$GT$$GT$11into_folder17heaa00aa453691f92E', symObjAddr: 0xC4, symBinAddr: 0x47318, symSize: 0x50 }
  - { offset: 0xD8BDD, size: 0x8, addend: 0x0, symName: '__ZN103_$LT$rayon..iter..map..MapConsumer$LT$C$C$F$GT$$u20$as$u20$rayon..iter..plumbing..Consumer$LT$T$GT$$GT$11into_folder17hf6decde9f08e0f71E', symObjAddr: 0x114, symBinAddr: 0x47368, symSize: 0x70 }
  - { offset: 0xD8C2E, size: 0x8, addend: 0x0, symName: '__ZN103_$LT$rayon..iter..map..MapConsumer$LT$C$C$F$GT$$u20$as$u20$rayon..iter..plumbing..Consumer$LT$T$GT$$GT$4full17h9201f5b8c42672a0E', symObjAddr: 0x184, symBinAddr: 0x473D8, symSize: 0x24 }
  - { offset: 0xD8C7E, size: 0x8, addend: 0x0, symName: '__ZN103_$LT$rayon..iter..map..MapConsumer$LT$C$C$F$GT$$u20$as$u20$rayon..iter..plumbing..Consumer$LT$T$GT$$GT$4full17hb32833abeffbd176E', symObjAddr: 0x1A8, symBinAddr: 0x473FC, symSize: 0x24 }
  - { offset: 0xD8CCE, size: 0x8, addend: 0x0, symName: '__ZN103_$LT$rayon..iter..map..MapConsumer$LT$C$C$F$GT$$u20$as$u20$rayon..iter..plumbing..Consumer$LT$T$GT$$GT$4full17hbae312686797c5cfE', symObjAddr: 0x1CC, symBinAddr: 0x47420, symSize: 0x24 }
  - { offset: 0xD8D1E, size: 0x8, addend: 0x0, symName: '__ZN103_$LT$rayon..iter..map..MapConsumer$LT$C$C$F$GT$$u20$as$u20$rayon..iter..plumbing..Consumer$LT$T$GT$$GT$4full17hec990ca817d554e8E', symObjAddr: 0x1F0, symBinAddr: 0x47444, symSize: 0x24 }
  - { offset: 0xD8D6E, size: 0x8, addend: 0x0, symName: '__ZN103_$LT$rayon..iter..map..MapConsumer$LT$C$C$F$GT$$u20$as$u20$rayon..iter..plumbing..Consumer$LT$T$GT$$GT$8split_at17h636714e7def7e214E', symObjAddr: 0x214, symBinAddr: 0x47468, symSize: 0x110 }
  - { offset: 0xD8E00, size: 0x8, addend: 0x0, symName: '__ZN103_$LT$rayon..iter..map..MapConsumer$LT$C$C$F$GT$$u20$as$u20$rayon..iter..plumbing..Consumer$LT$T$GT$$GT$8split_at17hbc16eb43ad533b44E', symObjAddr: 0x324, symBinAddr: 0x47578, symSize: 0x128 }
  - { offset: 0xD8E92, size: 0x8, addend: 0x0, symName: '__ZN103_$LT$rayon..iter..map..MapConsumer$LT$C$C$F$GT$$u20$as$u20$rayon..iter..plumbing..Consumer$LT$T$GT$$GT$8split_at17hca9263a77ae35ef9E', symObjAddr: 0x44C, symBinAddr: 0x476A0, symSize: 0x158 }
  - { offset: 0xD8F25, size: 0x8, addend: 0x0, symName: '__ZN103_$LT$rayon..iter..map..MapConsumer$LT$C$C$F$GT$$u20$as$u20$rayon..iter..plumbing..Consumer$LT$T$GT$$GT$8split_at17hfe8248f9c5c13558E', symObjAddr: 0x5A4, symBinAddr: 0x477F8, symSize: 0x158 }
  - { offset: 0xD91F8, size: 0x8, addend: 0x0, symName: '__ZN84_$LT$rayon..iter..map..Map$LT$I$C$F$GT$$u20$as$u20$rayon..iter..ParallelIterator$GT$15drive_unindexed17h004864f9cc7870a3E', symObjAddr: 0x8BC, symBinAddr: 0x47B10, symSize: 0xB0 }
  - { offset: 0xD9274, size: 0x8, addend: 0x0, symName: '__ZN84_$LT$rayon..iter..map..Map$LT$I$C$F$GT$$u20$as$u20$rayon..iter..ParallelIterator$GT$15drive_unindexed17h93588f9836dd8a25E', symObjAddr: 0x96C, symBinAddr: 0x47BC0, symSize: 0xB8 }
  - { offset: 0xD92F0, size: 0x8, addend: 0x0, symName: '__ZN84_$LT$rayon..iter..map..Map$LT$I$C$F$GT$$u20$as$u20$rayon..iter..ParallelIterator$GT$15drive_unindexed17ha5c4b2914d251fbaE', symObjAddr: 0xA24, symBinAddr: 0x47C78, symSize: 0xB8 }
  - { offset: 0xD936D, size: 0x8, addend: 0x0, symName: '__ZN84_$LT$rayon..iter..map..Map$LT$I$C$F$GT$$u20$as$u20$rayon..iter..ParallelIterator$GT$15drive_unindexed17ha8af076481b9c527E', symObjAddr: 0xADC, symBinAddr: 0x47D30, symSize: 0xC4 }
  - { offset: 0xD93F0, size: 0x8, addend: 0x0, symName: '__ZN99_$LT$rayon..iter..map..MapFolder$LT$C$C$F$GT$$u20$as$u20$rayon..iter..plumbing..Folder$LT$T$GT$$GT$12consume_iter17h38f1c21dfc0c2496E', symObjAddr: 0xBA0, symBinAddr: 0x47DF4, symSize: 0xE8 }
  - { offset: 0xD9459, size: 0x8, addend: 0x0, symName: '__ZN99_$LT$rayon..iter..map..MapFolder$LT$C$C$F$GT$$u20$as$u20$rayon..iter..plumbing..Folder$LT$T$GT$$GT$12consume_iter17h645b522a5337fd2dE', symObjAddr: 0xC88, symBinAddr: 0x47EDC, symSize: 0x100 }
  - { offset: 0xD94C1, size: 0x8, addend: 0x0, symName: '__ZN99_$LT$rayon..iter..map..MapFolder$LT$C$C$F$GT$$u20$as$u20$rayon..iter..plumbing..Folder$LT$T$GT$$GT$12consume_iter17h7ec6e091910876b1E', symObjAddr: 0xD88, symBinAddr: 0x47FDC, symSize: 0xE8 }
  - { offset: 0xD952A, size: 0x8, addend: 0x0, symName: '__ZN99_$LT$rayon..iter..map..MapFolder$LT$C$C$F$GT$$u20$as$u20$rayon..iter..plumbing..Folder$LT$T$GT$$GT$12consume_iter17hd6d6d26dd03171b6E', symObjAddr: 0xE70, symBinAddr: 0x480C4, symSize: 0x100 }
  - { offset: 0xD9592, size: 0x8, addend: 0x0, symName: '__ZN99_$LT$rayon..iter..map..MapFolder$LT$C$C$F$GT$$u20$as$u20$rayon..iter..plumbing..Folder$LT$T$GT$$GT$8complete17h255df6f8995c98beE', symObjAddr: 0xF70, symBinAddr: 0x481C4, symSize: 0x34 }
  - { offset: 0xD95E3, size: 0x8, addend: 0x0, symName: '__ZN99_$LT$rayon..iter..map..MapFolder$LT$C$C$F$GT$$u20$as$u20$rayon..iter..plumbing..Folder$LT$T$GT$$GT$8complete17h518e0901d99e4244E', symObjAddr: 0xFA4, symBinAddr: 0x481F8, symSize: 0x40 }
  - { offset: 0xD9634, size: 0x8, addend: 0x0, symName: '__ZN99_$LT$rayon..iter..map..MapFolder$LT$C$C$F$GT$$u20$as$u20$rayon..iter..plumbing..Folder$LT$T$GT$$GT$8complete17hbe43cf06e834c1dbE', symObjAddr: 0xFE4, symBinAddr: 0x48238, symSize: 0x34 }
  - { offset: 0xD9685, size: 0x8, addend: 0x0, symName: '__ZN99_$LT$rayon..iter..map..MapFolder$LT$C$C$F$GT$$u20$as$u20$rayon..iter..plumbing..Folder$LT$T$GT$$GT$8complete17hf46cc404f0d9f96bE', symObjAddr: 0x1018, symBinAddr: 0x4826C, symSize: 0x40 }
  - { offset: 0xD97A9, size: 0x8, addend: 0x0, symName: '__ZN55_$LT$T$u20$as$u20$rayon..iter..IntoParallelIterator$GT$13into_par_iter17hc1f75ac4e7216bb2E', symObjAddr: 0x6FC, symBinAddr: 0x47950, symSize: 0x14 }
  - { offset: 0xD97E6, size: 0x8, addend: 0x0, symName: __ZN5rayon4iter16ParallelIterator10while_some17h5c8b3f18427f2ceaE, symObjAddr: 0x710, symBinAddr: 0x47964, symSize: 0x40 }
  - { offset: 0xD9827, size: 0x8, addend: 0x0, symName: __ZN5rayon4iter16ParallelIterator3map17hc35f93271fee72e9E, symObjAddr: 0x750, symBinAddr: 0x479A4, symSize: 0x3C }
  - { offset: 0xD9880, size: 0x8, addend: 0x0, symName: __ZN5rayon4iter16ParallelIterator7collect17h17b762edafbf78efE, symObjAddr: 0x78C, symBinAddr: 0x479E0, symSize: 0x34 }
  - { offset: 0xDA598, size: 0x8, addend: 0x0, symName: '__ZN5rayon4iter3map16Map$LT$I$C$F$GT$3new17h5fead357ca029532E', symObjAddr: 0x7C0, symBinAddr: 0x47A14, symSize: 0x28 }
  - { offset: 0xDA5DA, size: 0x8, addend: 0x0, symName: '__ZN5rayon4iter3map16Map$LT$I$C$F$GT$3new17hb226b9deefbef558E', symObjAddr: 0x7E8, symBinAddr: 0x47A3C, symSize: 0x38 }
  - { offset: 0xDA643, size: 0x8, addend: 0x0, symName: '__ZN5rayon4iter3map24MapConsumer$LT$C$C$F$GT$3new17h04e3aaa6c8df9031E', symObjAddr: 0x820, symBinAddr: 0x47A74, symSize: 0x30 }
  - { offset: 0xDA69F, size: 0x8, addend: 0x0, symName: '__ZN5rayon4iter3map24MapConsumer$LT$C$C$F$GT$3new17h22905e0688d42d70E', symObjAddr: 0x850, symBinAddr: 0x47AA4, symSize: 0x28 }
  - { offset: 0xDA6E1, size: 0x8, addend: 0x0, symName: '__ZN5rayon4iter3map24MapConsumer$LT$C$C$F$GT$3new17h5b721a15919f0345E', symObjAddr: 0x878, symBinAddr: 0x47ACC, symSize: 0x28 }
  - { offset: 0xDA723, size: 0x8, addend: 0x0, symName: '__ZN5rayon4iter3map24MapConsumer$LT$C$C$F$GT$3new17h90b2eb456acc0577E', symObjAddr: 0x8A0, symBinAddr: 0x47AF4, symSize: 0x1C }
  - { offset: 0xDA8BD, size: 0x8, addend: 0x0, symName: '__ZN109_$LT$pyo3..types..dict..borrowed_iter..BorrowedDictIter$u20$as$u20$core..iter..traits..iterator..Iterator$GT$4next17h2ddbd160483cb5acE', symObjAddr: 0x0, symBinAddr: 0x482AC, symSize: 0xE4 }
  - { offset: 0xDA968, size: 0x8, addend: 0x0, symName: '__ZN109_$LT$pyo3..types..dict..borrowed_iter..BorrowedDictIter$u20$as$u20$core..iter..traits..iterator..Iterator$GT$4next17h2ddbd160483cb5acE', symObjAddr: 0x0, symBinAddr: 0x482AC, symSize: 0xE4 }
  - { offset: 0xDADB5, size: 0x8, addend: 0x0, symName: __ZN4pyo33err5PyErr10from_state17h3eddcd69cab53b3fE, symObjAddr: 0x0, symBinAddr: 0x48390, symSize: 0x30 }
  - { offset: 0xDB671, size: 0x8, addend: 0x0, symName: __ZN4pyo33err5PyErr10from_state17h3eddcd69cab53b3fE, symObjAddr: 0x0, symBinAddr: 0x48390, symSize: 0x30 }
  - { offset: 0xDB6DA, size: 0x8, addend: 0x0, symName: __ZN4pyo33err5PyErr16write_unraisable17h0d99af7db98d44feE, symObjAddr: 0x30, symBinAddr: 0x483C0, symSize: 0x58 }
  - { offset: 0xDB728, size: 0x8, addend: 0x0, symName: __ZN4pyo33err5PyErr7restore17h37a7c91f8be0f604E, symObjAddr: 0x88, symBinAddr: 0x48418, symSize: 0x38 }
  - { offset: 0xDB785, size: 0x8, addend: 0x0, symName: '__ZN52_$LT$char$u20$as$u20$core..str..pattern..Pattern$GT$13into_searcher17h30c5056af27f3dd1E', symObjAddr: 0x0, symBinAddr: 0x48450, symSize: 0x114 }
  - { offset: 0xDBB0B, size: 0x8, addend: 0x0, symName: '__ZN52_$LT$char$u20$as$u20$core..str..pattern..Pattern$GT$13into_searcher17h30c5056af27f3dd1E', symObjAddr: 0x0, symBinAddr: 0x48450, symSize: 0x114 }
  - { offset: 0xDBC53, size: 0x8, addend: 0x0, symName: '__ZN55_$LT$$RF$str$u20$as$u20$core..str..pattern..Pattern$GT$15is_contained_in17h9522a01b64204185E', symObjAddr: 0x114, symBinAddr: 0x48564, symSize: 0x164 }
  - { offset: 0xDBE5F, size: 0x8, addend: 0x0, symName: '__ZN55_$LT$$RF$str$u20$as$u20$core..str..pattern..Pattern$GT$15strip_prefix_of17h4676a200c7f33f58E', symObjAddr: 0x278, symBinAddr: 0x486C8, symSize: 0xE8 }
  - { offset: 0xDC00D, size: 0x8, addend: 0x0, symName: '__ZN55_$LT$$RF$str$u20$as$u20$core..str..pattern..Pattern$GT$15strip_suffix_of17ha92a996dd7a63070E', symObjAddr: 0x360, symBinAddr: 0x487B0, symSize: 0xE8 }
  - { offset: 0xDC28B, size: 0x8, addend: 0x0, symName: '__ZN80_$LT$core..str..pattern..StrSearcher$u20$as$u20$core..str..pattern..Searcher$GT$10next_match17h3b2cd79cbbaf6c86E', symObjAddr: 0x448, symBinAddr: 0x48898, symSize: 0x148 }
  - { offset: 0xDC317, size: 0x8, addend: 0x0, symName: '__ZN80_$LT$core..str..pattern..StrSearcher$u20$as$u20$core..str..pattern..Searcher$GT$4next17hbed44e12ddee2ee7E', symObjAddr: 0x590, symBinAddr: 0x489E0, symSize: 0x434 }
  - { offset: 0xDC672, size: 0x8, addend: 0x0, symName: '__ZN81_$LT$core..str..pattern..CharSearcher$u20$as$u20$core..str..pattern..Searcher$GT$10next_match17h5ea58859aa54a136E', symObjAddr: 0x9C4, symBinAddr: 0x48E14, symSize: 0x37C }
  - { offset: 0xDDB98, size: 0x8, addend: 0x0, symName: __ZN4core4iter6traits8iterator8Iterator12try_for_each17h53b004ba5a665612E, symObjAddr: 0x0, symBinAddr: 0x49190, symSize: 0x2C }
  - { offset: 0xDE4C7, size: 0x8, addend: 0x0, symName: __ZN4core4iter6traits8iterator8Iterator12try_for_each17h53b004ba5a665612E, symObjAddr: 0x0, symBinAddr: 0x49190, symSize: 0x2C }
  - { offset: 0xDE51F, size: 0x8, addend: 0x0, symName: __ZN4core4iter6traits8iterator8Iterator12try_for_each17ha2b0c1ecc2aa0bd6E, symObjAddr: 0x2C, symBinAddr: 0x491BC, symSize: 0x2C }
  - { offset: 0xDE577, size: 0x8, addend: 0x0, symName: __ZN4core4iter6traits8iterator8Iterator12try_for_each17hdf3f15259b66d6e4E, symObjAddr: 0x58, symBinAddr: 0x491E8, symSize: 0x2C }
  - { offset: 0xDE5CF, size: 0x8, addend: 0x0, symName: __ZN4core4iter6traits8iterator8Iterator12try_for_each17hf54ca23fe8dbc22fE, symObjAddr: 0x84, symBinAddr: 0x49214, symSize: 0x2C }
  - { offset: 0xDE627, size: 0x8, addend: 0x0, symName: __ZN4core4iter6traits8iterator8Iterator3map17h506412430fdf6acbE, symObjAddr: 0xB0, symBinAddr: 0x49240, symSize: 0x1C }
  - { offset: 0xDE67F, size: 0x8, addend: 0x0, symName: __ZN4core4iter6traits8iterator8Iterator3map17h5e0aa7299819e578E, symObjAddr: 0xCC, symBinAddr: 0x4925C, symSize: 0x30 }
  - { offset: 0xDE6EC, size: 0x8, addend: 0x0, symName: __ZN4core4iter6traits8iterator8Iterator3map17h921ad442a34100f3E, symObjAddr: 0xFC, symBinAddr: 0x4928C, symSize: 0x1C }
  - { offset: 0xDE744, size: 0x8, addend: 0x0, symName: __ZN4core4iter6traits8iterator8Iterator6copied17h36b0242a8bbed57bE, symObjAddr: 0x118, symBinAddr: 0x492A8, symSize: 0x1C }
  - { offset: 0xDE784, size: 0x8, addend: 0x0, symName: __ZN4core4iter6traits8iterator8Iterator8try_fold17h2957a9263fb00205E, symObjAddr: 0x134, symBinAddr: 0x492C4, symSize: 0x144 }
  - { offset: 0xDE837, size: 0x8, addend: 0x0, symName: __ZN4core4iter6traits8iterator8Iterator8try_fold17h30a96ec2416bd128E, symObjAddr: 0x278, symBinAddr: 0x49408, symSize: 0x144 }
  - { offset: 0xDE8EA, size: 0x8, addend: 0x0, symName: __ZN4core4iter6traits8iterator8Iterator8try_fold17h56f2e921f688db11E, symObjAddr: 0x3BC, symBinAddr: 0x4954C, symSize: 0x144 }
  - { offset: 0xDE99D, size: 0x8, addend: 0x0, symName: __ZN4core4iter6traits8iterator8Iterator8try_fold17h6b7ee9f691c9350eE, symObjAddr: 0x500, symBinAddr: 0x49690, symSize: 0x144 }
  - { offset: 0xDEA50, size: 0x8, addend: 0x0, symName: __ZN4core4iter6traits8iterator8Iterator9enumerate17h0e622d2b4155ce18E, symObjAddr: 0x644, symBinAddr: 0x497D4, symSize: 0x28 }
  - { offset: 0xDEB1F, size: 0x8, addend: 0x0, symName: '__ZN63_$LT$I$u20$as$u20$core..iter..traits..collect..IntoIterator$GT$9into_iter17h19649579ff2b2626E', symObjAddr: 0x7B4, symBinAddr: 0x49944, symSize: 0x1C }
  - { offset: 0xDEB56, size: 0x8, addend: 0x0, symName: '__ZN63_$LT$I$u20$as$u20$core..iter..traits..collect..IntoIterator$GT$9into_iter17h4a1a89bb4d2d6701E', symObjAddr: 0x7D0, symBinAddr: 0x49960, symSize: 0x1C }
  - { offset: 0xDEE8E, size: 0x8, addend: 0x0, symName: '__ZN91_$LT$core..slice..iter..Iter$LT$T$GT$$u20$as$u20$core..iter..traits..iterator..Iterator$GT$4fold17h2734d319ef7bc9d0E', symObjAddr: 0x7EC, symBinAddr: 0x4997C, symSize: 0x1D8 }
  - { offset: 0xDF08F, size: 0x8, addend: 0x0, symName: '__ZN91_$LT$core..slice..iter..Iter$LT$T$GT$$u20$as$u20$core..iter..traits..iterator..Iterator$GT$4fold17h8ef548034be66f1cE', symObjAddr: 0x9C4, symBinAddr: 0x49B54, symSize: 0x1F8 }
  - { offset: 0xDF298, size: 0x8, addend: 0x0, symName: '__ZN91_$LT$core..slice..iter..Iter$LT$T$GT$$u20$as$u20$core..iter..traits..iterator..Iterator$GT$4next17h42697e06c0202aa0E', symObjAddr: 0xBBC, symBinAddr: 0x49D4C, symSize: 0x84 }
  - { offset: 0xDF34E, size: 0x8, addend: 0x0, symName: '__ZN91_$LT$core..slice..iter..Iter$LT$T$GT$$u20$as$u20$core..iter..traits..iterator..Iterator$GT$4next17h5925389b987de716E', symObjAddr: 0xC40, symBinAddr: 0x49DD0, symSize: 0x84 }
  - { offset: 0xDF404, size: 0x8, addend: 0x0, symName: '__ZN91_$LT$core..slice..iter..Iter$LT$T$GT$$u20$as$u20$core..iter..traits..iterator..Iterator$GT$4next17h904ae49b55e96e11E', symObjAddr: 0xCC4, symBinAddr: 0x49E54, symSize: 0x84 }
  - { offset: 0xDF4BA, size: 0x8, addend: 0x0, symName: '__ZN91_$LT$core..slice..iter..Iter$LT$T$GT$$u20$as$u20$core..iter..traits..iterator..Iterator$GT$4next17hc1a34a9519c992f5E', symObjAddr: 0xD48, symBinAddr: 0x49ED8, symSize: 0x84 }
  - { offset: 0xDF570, size: 0x8, addend: 0x0, symName: '__ZN91_$LT$core..slice..iter..Iter$LT$T$GT$$u20$as$u20$core..iter..traits..iterator..Iterator$GT$4next17hd67d63ede969c434E', symObjAddr: 0xDCC, symBinAddr: 0x49F5C, symSize: 0x84 }
  - { offset: 0xDF626, size: 0x8, addend: 0x0, symName: '__ZN91_$LT$core..slice..iter..Iter$LT$T$GT$$u20$as$u20$core..iter..traits..iterator..Iterator$GT$4next17hec43fd7d0730a766E', symObjAddr: 0xE50, symBinAddr: 0x49FE0, symSize: 0x84 }
  - { offset: 0xDF6DC, size: 0x8, addend: 0x0, symName: '__ZN91_$LT$core..slice..iter..Iter$LT$T$GT$$u20$as$u20$core..iter..traits..iterator..Iterator$GT$4next17hf2f6959e80a8ea57E', symObjAddr: 0xED4, symBinAddr: 0x4A064, symSize: 0x84 }
  - { offset: 0xDF792, size: 0x8, addend: 0x0, symName: '__ZN91_$LT$core..slice..iter..Iter$LT$T$GT$$u20$as$u20$core..iter..traits..iterator..Iterator$GT$4next17hfc603129575bda3eE', symObjAddr: 0xF58, symBinAddr: 0x4A0E8, symSize: 0x84 }
  - { offset: 0xDF897, size: 0x8, addend: 0x0, symName: '__ZN91_$LT$core..slice..iter..Iter$LT$T$GT$$u20$as$u20$core..iter..traits..iterator..Iterator$GT$8position17h1069690b61ffff36E', symObjAddr: 0xFDC, symBinAddr: 0x4A16C, symSize: 0x1D0 }
  - { offset: 0xDFAF4, size: 0x8, addend: 0x0, symName: '__ZN91_$LT$core..slice..iter..Iter$LT$T$GT$$u20$as$u20$core..iter..traits..iterator..Iterator$GT$8position17h797ec5ff163dfc23E', symObjAddr: 0x11AC, symBinAddr: 0x4A33C, symSize: 0x1D0 }
  - { offset: 0xDFD02, size: 0x8, addend: 0x0, symName: '__ZN91_$LT$core..slice..iter..Iter$LT$T$GT$$u20$as$u20$core..iter..traits..iterator..Iterator$GT$9size_hint17h06c0352c8600cabbE', symObjAddr: 0x137C, symBinAddr: 0x4A50C, symSize: 0xB4 }
  - { offset: 0xDFE2F, size: 0x8, addend: 0x0, symName: '__ZN91_$LT$core..slice..iter..Iter$LT$T$GT$$u20$as$u20$core..iter..traits..iterator..Iterator$GT$9size_hint17h47c67cf11f1c9580E', symObjAddr: 0x1430, symBinAddr: 0x4A5C0, symSize: 0xB4 }
  - { offset: 0xE21C0, size: 0x8, addend: 0x0, symName: '__ZN4core5slice4iter13Iter$LT$T$GT$3new17h0a4ee66b53fba62aE', symObjAddr: 0x66C, symBinAddr: 0x497FC, symSize: 0x58 }
  - { offset: 0xE238A, size: 0x8, addend: 0x0, symName: '__ZN4core5slice4iter13Iter$LT$T$GT$3new17h34afe076dca0c455E', symObjAddr: 0x6C4, symBinAddr: 0x49854, symSize: 0x50 }
  - { offset: 0xE2743, size: 0x8, addend: 0x0, symName: '__ZN4core5slice4iter13Iter$LT$T$GT$3new17h620d6db6eccde4e2E', symObjAddr: 0x714, symBinAddr: 0x498A4, symSize: 0x50 }
  - { offset: 0xE28F3, size: 0x8, addend: 0x0, symName: '__ZN4core5slice4iter13Iter$LT$T$GT$3new17hb065b0f10c5fa81eE', symObjAddr: 0x764, symBinAddr: 0x498F4, symSize: 0x50 }
  - { offset: 0xE31C8, size: 0x8, addend: 0x0, symName: '__ZN3std3sys12thread_local6native5eager16Storage$LT$T$GT$10initialize17hb18c3e083472f1f8E', symObjAddr: 0x0, symBinAddr: 0xFEE5C, symSize: 0x54 }
  - { offset: 0xE3272, size: 0x8, addend: 0x0, symName: __ZN3std3sys12thread_local6native5eager7destroy17h236a3c584838dc88E, symObjAddr: 0xC4, symBinAddr: 0x4A6E4, symSize: 0x30 }
  - { offset: 0xE32A8, size: 0x8, addend: 0x0, symName: '__ZN3std3sys12thread_local6native5eager7destroy28_$u7b$$u7b$closure$u7d$$u7d$17h404d95ddb25d5984E', symObjAddr: 0xF4, symBinAddr: 0x4A714, symSize: 0x40 }
  - { offset: 0xE38D8, size: 0x8, addend: 0x0, symName: '__ZN3std3sys12thread_local6native5eager16Storage$LT$T$GT$10initialize17hb18c3e083472f1f8E', symObjAddr: 0x0, symBinAddr: 0xFEE5C, symSize: 0x54 }
  - { offset: 0xE3995, size: 0x8, addend: 0x0, symName: '__ZN3std3sys12thread_local6native5eager16Storage$LT$T$GT$3get17h25e7c0bc4f299714E', symObjAddr: 0x54, symBinAddr: 0x4A674, symSize: 0x70 }
  - { offset: 0xE3A92, size: 0x8, addend: 0x0, symName: __ZN4core3ptr9alignment9Alignment13new_unchecked18precondition_check17h5c070af907d3a36fE, symObjAddr: 0x0, symBinAddr: 0x4A754, symSize: 0x70 }
  - { offset: 0xE3AFE, size: 0x8, addend: 0x0, symName: __ZN4core3ptr9alignment9Alignment13new_unchecked18precondition_check17h5c070af907d3a36fE, symObjAddr: 0x0, symBinAddr: 0x4A754, symSize: 0x70 }
  - { offset: 0xE3BE4, size: 0x8, addend: 0x0, symName: '__ZN73_$LT$pyo3..types..any..PyAny$u20$as$u20$pyo3..type_object..PyTypeInfo$GT$15type_object_raw17hb842d715c2ddc994E', symObjAddr: 0x0, symBinAddr: 0x4A7C4, symSize: 0x24 }
  - { offset: 0xE3C4B, size: 0x8, addend: 0x0, symName: '__ZN73_$LT$pyo3..types..any..PyAny$u20$as$u20$pyo3..type_object..PyTypeInfo$GT$15type_object_raw17hb842d715c2ddc994E', symObjAddr: 0x0, symBinAddr: 0x4A7C4, symSize: 0x24 }
  - { offset: 0xE3DC4, size: 0x8, addend: 0x0, symName: '__ZN105_$LT$alloc..collections..linked_list..Iter$LT$T$GT$$u20$as$u20$core..iter..traits..iterator..Iterator$GT$4next17h88405d58a2ade525E', symObjAddr: 0x0, symBinAddr: 0x4A7E8, symSize: 0x98 }
  - { offset: 0xE4579, size: 0x8, addend: 0x0, symName: __ZN4core4iter6traits8iterator8Iterator3map17h048dfbeaec988305E, symObjAddr: 0xD4, symBinAddr: 0x4A8BC, symSize: 0x20 }
  - { offset: 0xE45E6, size: 0x8, addend: 0x0, symName: __ZN4core4iter6traits8iterator8Iterator4fold17h23fa04172117bc16E, symObjAddr: 0xF4, symBinAddr: 0x4A8DC, symSize: 0xCC }
  - { offset: 0xE4955, size: 0x8, addend: 0x0, symName: '__ZN105_$LT$alloc..collections..linked_list..Iter$LT$T$GT$$u20$as$u20$core..iter..traits..iterator..Iterator$GT$4next17h88405d58a2ade525E', symObjAddr: 0x0, symBinAddr: 0x4A7E8, symSize: 0x98 }
  - { offset: 0xE4A00, size: 0x8, addend: 0x0, symName: '__ZN113_$LT$alloc..collections..linked_list..IntoIter$LT$T$C$A$GT$$u20$as$u20$core..iter..traits..iterator..Iterator$GT$4next17hb66ea02f97bec6e0E', symObjAddr: 0x98, symBinAddr: 0x4A880, symSize: 0x24 }
  - { offset: 0xE4A46, size: 0x8, addend: 0x0, symName: '__ZN118_$LT$alloc..collections..linked_list..LinkedList$LT$T$C$A$GT$$u20$as$u20$core..iter..traits..collect..IntoIterator$GT$9into_iter17hda041c8947514944E', symObjAddr: 0xBC, symBinAddr: 0x4A8A4, symSize: 0x18 }
  - { offset: 0xE51AA, size: 0x8, addend: 0x0, symName: '__ZN5alloc11collections11linked_list13Node$LT$T$GT$12into_element17he82582e3e7057576E', symObjAddr: 0x1C0, symBinAddr: 0x4A9A8, symSize: 0xE0 }
  - { offset: 0xE52EF, size: 0x8, addend: 0x0, symName: '__ZN5alloc11collections11linked_list19LinkedList$LT$T$GT$3new17h37b4cf40ab180794E', symObjAddr: 0x2A0, symBinAddr: 0x4AA88, symSize: 0x10 }
  - { offset: 0xE5335, size: 0x8, addend: 0x0, symName: '__ZN5alloc11collections11linked_list19LinkedList$LT$T$GT$6append17h26fbf8c54580d401E', symObjAddr: 0x2B0, symBinAddr: 0x4AA98, symSize: 0xF0 }
  - { offset: 0xE553D, size: 0x8, addend: 0x0, symName: '__ZN5alloc11collections11linked_list23LinkedList$LT$T$C$A$GT$13push_back_mut17h5b49398b05054269E', symObjAddr: 0x3A0, symBinAddr: 0x4AB88, symSize: 0x104 }
  - { offset: 0xE56A8, size: 0x8, addend: 0x0, symName: '__ZN5alloc11collections11linked_list23LinkedList$LT$T$C$A$GT$4iter17h9882345b43b86538E', symObjAddr: 0x4A4, symBinAddr: 0x4AC8C, symSize: 0x30 }
  - { offset: 0xE5812, size: 0x8, addend: 0x0, symName: '__ZN5alloc11collections11linked_list23LinkedList$LT$T$C$A$GT$9pop_front17hb0f594887be0b64dE', symObjAddr: 0x4D4, symBinAddr: 0x4ACBC, symSize: 0x164 }
  - { offset: 0xE59C4, size: 0x8, addend: 0x0, symName: '__ZN5alloc11collections11linked_list23LinkedList$LT$T$C$A$GT$9push_back17hcb34abaaebc98a38E', symObjAddr: 0x638, symBinAddr: 0x4AE20, symSize: 0x24 }
  - { offset: 0xE5A41, size: 0x8, addend: 0x0, symName: '__ZN73_$LT$serde_json..number..Number$u20$as$u20$serde_core..ser..Serialize$GT$9serialize17h2132a882676c308fE', symObjAddr: 0x0, symBinAddr: 0x4AE44, symSize: 0xA8 }
  - { offset: 0xE5CC2, size: 0x8, addend: 0x0, symName: '__ZN73_$LT$serde_json..number..Number$u20$as$u20$serde_core..ser..Serialize$GT$9serialize17h2132a882676c308fE', symObjAddr: 0x0, symBinAddr: 0x4AE44, symSize: 0xA8 }
  - { offset: 0xE5D62, size: 0x8, addend: 0x0, symName: '__ZN73_$LT$serde_json..number..Number$u20$as$u20$serde_core..ser..Serialize$GT$9serialize17h5b34adb0f986c129E', symObjAddr: 0xA8, symBinAddr: 0x4AEEC, symSize: 0x94 }
  - { offset: 0xE5E02, size: 0x8, addend: 0x0, symName: '__ZN73_$LT$serde_json..number..Number$u20$as$u20$serde_core..ser..Serialize$GT$9serialize17hd6324c707b729884E', symObjAddr: 0x13C, symBinAddr: 0x4AF80, symSize: 0xA8 }
  - { offset: 0xE6D27, size: 0x8, addend: 0x0, symName: '__ZN63_$LT$u8$u20$as$u20$alloc..vec..spec_from_elem..SpecFromElem$GT$9from_elem17h7864057eff829ae1E', symObjAddr: 0x0, symBinAddr: 0x4B028, symSize: 0x158 }
  - { offset: 0xE742B, size: 0x8, addend: 0x0, symName: '__ZN63_$LT$u8$u20$as$u20$alloc..vec..spec_from_elem..SpecFromElem$GT$9from_elem17h7864057eff829ae1E', symObjAddr: 0x0, symBinAddr: 0x4B028, symSize: 0x158 }
  - { offset: 0xE78C4, size: 0x8, addend: 0x0, symName: '__ZN75_$LT$usize$u20$as$u20$core..slice..index..SliceIndex$LT$$u5b$T$u5d$$GT$$GT$5index17h2d3f86901839142bE', symObjAddr: 0x0, symBinAddr: 0x4B180, symSize: 0x64 }
  - { offset: 0xE78E5, size: 0x8, addend: 0x0, symName: '__ZN75_$LT$usize$u20$as$u20$core..slice..index..SliceIndex$LT$$u5b$T$u5d$$GT$$GT$5index17h2d3f86901839142bE', symObjAddr: 0x0, symBinAddr: 0x4B180, symSize: 0x64 }
  - { offset: 0xE792B, size: 0x8, addend: 0x0, symName: '__ZN75_$LT$usize$u20$as$u20$core..slice..index..SliceIndex$LT$$u5b$T$u5d$$GT$$GT$5index17h5cddfc687eacf26eE', symObjAddr: 0x64, symBinAddr: 0x4B1E4, symSize: 0x5C }
  - { offset: 0xE7971, size: 0x8, addend: 0x0, symName: '__ZN75_$LT$usize$u20$as$u20$core..slice..index..SliceIndex$LT$$u5b$T$u5d$$GT$$GT$5index17h950697aa968a8611E', symObjAddr: 0xC0, symBinAddr: 0x4B240, symSize: 0x5C }
  - { offset: 0xE79B7, size: 0x8, addend: 0x0, symName: '__ZN75_$LT$usize$u20$as$u20$core..slice..index..SliceIndex$LT$$u5b$T$u5d$$GT$$GT$5index17hc22b890308cb8cc9E', symObjAddr: 0x11C, symBinAddr: 0x4B29C, symSize: 0x64 }
  - { offset: 0xE79FD, size: 0x8, addend: 0x0, symName: '__ZN75_$LT$usize$u20$as$u20$core..slice..index..SliceIndex$LT$$u5b$T$u5d$$GT$$GT$5index17hf2adce5532f0436aE', symObjAddr: 0x180, symBinAddr: 0x4B300, symSize: 0x5C }
  - { offset: 0xE7A43, size: 0x8, addend: 0x0, symName: '__ZN75_$LT$usize$u20$as$u20$core..slice..index..SliceIndex$LT$$u5b$T$u5d$$GT$$GT$9index_mut17hf0fd009056e1cb18E', symObjAddr: 0x1DC, symBinAddr: 0x4B35C, symSize: 0x5C }
  - { offset: 0xE885B, size: 0x8, addend: 0x0, symName: '__ZN108_$LT$alloc..vec..Vec$LT$T$C$A$GT$..dedup_by..FillGapOnDrop$LT$T$C$A$GT$$u20$as$u20$core..ops..drop..Drop$GT$4drop17h43214012c5d976c4E', symObjAddr: 0x0, symBinAddr: 0x4B3B8, symSize: 0x1AC }
  - { offset: 0xE9418, size: 0x8, addend: 0x0, symName: '__ZN4core3ptr100drop_in_place$LT$core..cell..UnsafeCell$LT$core..option..Option$LT$std..io..error..Error$GT$$GT$$GT$17h2ba76ed1e5f0054cE', symObjAddr: 0xFE8, symBinAddr: 0x4C37C, symSize: 0x24 }
  - { offset: 0xE9447, size: 0x8, addend: 0x0, symName: '__ZN4core3ptr100drop_in_place$LT$core..result..Result$LT$flash_expert..FlashExpertManager$C$pyo3..err..PyErr$GT$$GT$17h2879bf48a27378d1E', symObjAddr: 0x100C, symBinAddr: 0x4C3A0, symSize: 0x5C }
  - { offset: 0xE9476, size: 0x8, addend: 0x0, symName: '__ZN4core3ptr101drop_in_place$LT$rayon..iter..extend..ListVecFolder$LT$flash_expert..expert_store..ExpertData$GT$$GT$17hb8dc2f205fec3d1bE', symObjAddr: 0x108C, symBinAddr: 0x4C3FC, symSize: 0x24 }
  - { offset: 0xE94A5, size: 0x8, addend: 0x0, symName: '__ZN4core3ptr102drop_in_place$LT$$LP$alloc..string..String$C$pyo3..instance..Py$LT$pyo3..types..any..PyAny$GT$$RP$$GT$17h79648be2b5fb5903E', symObjAddr: 0x10B0, symBinAddr: 0x4C420, symSize: 0x60 }
  - { offset: 0xE94D4, size: 0x8, addend: 0x0, symName: '__ZN4core3ptr102drop_in_place$LT$std..collections..hash..map..HashMap$LT$alloc..string..String$C$memmap2..Mmap$GT$$GT$17h16b800a424f2625aE', symObjAddr: 0x1110, symBinAddr: 0x4C480, symSize: 0x24 }
  - { offset: 0xE9503, size: 0x8, addend: 0x0, symName: '__ZN4core3ptr103drop_in_place$LT$pyo3..pyclass_init..PyClassInitializerImpl$LT$flash_expert..FlashExpertManager$GT$$GT$17ha83d8c39555ee22aE', symObjAddr: 0x1134, symBinAddr: 0x4C4A4, symSize: 0x58 }
  - { offset: 0xE9532, size: 0x8, addend: 0x0, symName: '__ZN4core3ptr1040drop_in_place$LT$rayon_core..job..StackJob$LT$rayon_core..latch..SpinLatch$C$rayon_core..join..join_context..call_b$LT$alloc..collections..linked_list..LinkedList$LT$alloc..vec..Vec$LT$flash_expert..expert_store..ExpertData$GT$$GT$$C$rayon..iter..plumbing..bridge_producer_consumer..helper$LT$rayon..slice..IterProducer$LT$u32$GT$$C$rayon..iter..map..MapConsumer$LT$rayon..iter..map..MapConsumer$LT$rayon..iter..while_some..WhileSomeConsumer$LT$rayon..iter..extend..ListVecConsumer$GT$$C$rayon..result..$LT$impl$u20$rayon..iter..FromParallelIterator$LT$core..result..Result$LT$T$C$E$GT$$GT$$u20$for$u20$core..result..Result$LT$C$C$E$GT$$GT$..from_par_iter..ok$LT$flash_expert..expert_store..ExpertData$C$std..io..error..Error$GT$..$u7b$$u7b$closure$u7d$$u7d$$GT$$C$flash_expert..expert_store..ExpertStore..load_experts..$u7b$$u7b$closure$u7d$$u7d$$GT$$GT$..$u7b$$u7b$closure$u7d$$u7d$$GT$..$u7b$$u7b$closure$u7d$$u7d$$C$alloc..collections..linked_list..LinkedList$LT$alloc..vec..Vec$LT$flash_expert..expert_store..ExpertData$GT$$GT$$GT$$GT$17hf69aef32ea587846E', symObjAddr: 0x118C, symBinAddr: 0x4C4FC, symSize: 0x24 }
  - { offset: 0xE9561, size: 0x8, addend: 0x0, symName: '__ZN4core3ptr104drop_in_place$LT$alloc..raw_vec..RawVec$LT$flash_expert..splitter..write_layer_experts..ProjData$GT$$GT$17hd058f58ef8486117E', symObjAddr: 0x11B0, symBinAddr: 0x4C520, symSize: 0x24 }
  - { offset: 0xE9590, size: 0x8, addend: 0x0, symName: '__ZN4core3ptr1055drop_in_place$LT$rayon_core..job..StackJob$LT$rayon_core..latch..SpinLatch$C$rayon_core..join..join_context..call_b$LT$rayon..iter..collect..consumer..CollectResult$LT$flash_expert..expert_store..ExpertData$GT$$C$rayon..iter..plumbing..bridge_producer_consumer..helper$LT$rayon..slice..IterProducer$LT$u32$GT$$C$rayon..iter..map..MapConsumer$LT$rayon..iter..map..MapConsumer$LT$rayon..iter..while_some..WhileSomeConsumer$LT$rayon..iter..collect..consumer..CollectConsumer$LT$flash_expert..expert_store..ExpertData$GT$$GT$$C$rayon..result..$LT$impl$u20$rayon..iter..FromParallelIterator$LT$core..result..Result$LT$T$C$E$GT$$GT$$u20$for$u20$core..result..Result$LT$C$C$E$GT$$GT$..from_par_iter..ok$LT$flash_expert..expert_store..ExpertData$C$std..io..error..Error$GT$..$u7b$$u7b$closure$u7d$$u7d$$GT$$C$flash_expert..expert_store..ExpertStore..load_experts..$u7b$$u7b$closure$u7d$$u7d$$GT$$GT$..$u7b$$u7b$closure$u7d$$u7d$$GT$..$u7b$$u7b$closure$u7d$$u7d$$C$rayon..iter..collect..consumer..CollectResult$LT$flash_expert..expert_store..ExpertData$GT$$GT$$GT$17h9162a44cd886a4b9E', symObjAddr: 0x11F8, symBinAddr: 0x4C544, symSize: 0x24 }
  - { offset: 0xE95BF, size: 0x8, addend: 0x0, symName: '__ZN4core3ptr105drop_in_place$LT$core..slice..sort..stable..merge..MergeState$LT$$LP$u32$C$std..path..PathBuf$RP$$GT$$GT$17hfbfcf2d8551727f6E', symObjAddr: 0x121C, symBinAddr: 0x4C568, symSize: 0x24 }
  - { offset: 0xE95EE, size: 0x8, addend: 0x0, symName: '__ZN4core3ptr106drop_in_place$LT$alloc..vec..Vec$LT$alloc..sync..Arc$LT$flash_expert..expert_store..ExpertData$GT$$GT$$GT$17h8c6e54c7cf8b88e7E', symObjAddr: 0x1240, symBinAddr: 0x4C58C, symSize: 0x5C }
  - { offset: 0xE961D, size: 0x8, addend: 0x0, symName: '__ZN4core3ptr108drop_in_place$LT$core..option..Option$LT$pyo3..pycell..PyRef$LT$flash_expert..FlashExpertManager$GT$$GT$$GT$17h24dbd504d05c2589E', symObjAddr: 0x129C, symBinAddr: 0x4C5E8, symSize: 0x44 }
  - { offset: 0xE964C, size: 0x8, addend: 0x0, symName: '__ZN4core3ptr108drop_in_place$LT$core..result..Result$LT$$LP$$RP$$C$alloc..borrow..Cow$LT$core..ffi..c_str..CStr$GT$$GT$$GT$17h781be4fdc73f1cd2E', symObjAddr: 0x12E0, symBinAddr: 0x4C62C, symSize: 0x44 }
  - { offset: 0xE967B, size: 0x8, addend: 0x0, symName: '__ZN4core3ptr108drop_in_place$LT$std..sync..poison..PoisonError$LT$core..option..Option$LT$std..io..error..Error$GT$$GT$$GT$17hc8d673fcf9b0cc75E', symObjAddr: 0x1324, symBinAddr: 0x4C670, symSize: 0x24 }
  - { offset: 0xE96AA, size: 0x8, addend: 0x0, symName: '__ZN4core3ptr109drop_in_place$LT$core..slice..sort..shared..smallsort..CopyOnDrop$LT$$LP$u32$C$std..path..PathBuf$RP$$GT$$GT$17h3068ede12dc5b8c6E', symObjAddr: 0x13CC, symBinAddr: 0x4C694, symSize: 0x24 }
  - { offset: 0xE96D9, size: 0x8, addend: 0x0, symName: '__ZN4core3ptr109drop_in_place$LT$hashbrown..raw..RawTable$LT$$LP$alloc..string..String$C$serde_json..value..Value$RP$$GT$$GT$17h2d42c71da738aa80E', symObjAddr: 0x13F0, symBinAddr: 0x4C6B8, symSize: 0x24 }
  - { offset: 0xE9708, size: 0x8, addend: 0x0, symName: '__ZN4core3ptr109drop_in_place$LT$std..sync..poison..mutex..Mutex$LT$core..option..Option$LT$std..io..error..Error$GT$$GT$$GT$17h106ee5a81bae24f8E', symObjAddr: 0x1414, symBinAddr: 0x4C6DC, symSize: 0x60 }
  - { offset: 0xE9737, size: 0x8, addend: 0x0, symName: '__ZN4core3ptr110drop_in_place$LT$core..array..iter..IntoIter$LT$$RF$flash_expert..expert_store..TensorLayout$C$3_usize$GT$$GT$17h9d1a290a68c6fc48E', symObjAddr: 0x1474, symBinAddr: 0x4C73C, symSize: 0x24 }
  - { offset: 0xE9766, size: 0x8, addend: 0x0, symName: '__ZN4core3ptr111drop_in_place$LT$$LP$$LP$u32$C$u32$RP$$C$alloc..sync..Arc$LT$flash_expert..expert_store..ExpertData$GT$$RP$$GT$17h25eadeae6a92612fE', symObjAddr: 0x1498, symBinAddr: 0x4C760, symSize: 0x24 }
  - { offset: 0xE9795, size: 0x8, addend: 0x0, symName: '__ZN4core3ptr111drop_in_place$LT$alloc..sync..Weak$LT$flash_expert..expert_store..ExpertData$C$$RF$alloc..alloc..Global$GT$$GT$17h46f81bd04e5b5076E', symObjAddr: 0x14BC, symBinAddr: 0x4C784, symSize: 0x24 }
  - { offset: 0xE97C4, size: 0x8, addend: 0x0, symName: '__ZN4core3ptr111drop_in_place$LT$core..option..Option$LT$alloc..sync..Arc$LT$flash_expert..expert_store..ExpertData$GT$$GT$$GT$17h1ec6685d18ec31f0E', symObjAddr: 0x14E0, symBinAddr: 0x4C7A8, symSize: 0x44 }
  - { offset: 0xE97F3, size: 0x8, addend: 0x0, symName: '__ZN4core3ptr112drop_in_place$LT$rayon..iter..collect..consumer..CollectResult$LT$flash_expert..expert_store..ExpertData$GT$$GT$17h836e5c6193dc31f8E', symObjAddr: 0x1524, symBinAddr: 0x4C7EC, symSize: 0x24 }
  - { offset: 0xE9822, size: 0x8, addend: 0x0, symName: '__ZN4core3ptr113drop_in_place$LT$alloc..raw_vec..RawVec$LT$alloc..sync..Arc$LT$flash_expert..expert_store..ExpertData$GT$$GT$$GT$17he8fb35cc79a98decE', symObjAddr: 0x1548, symBinAddr: 0x4C810, symSize: 0x24 }
  - { offset: 0xE9851, size: 0x8, addend: 0x0, symName: '__ZN4core3ptr113drop_in_place$LT$std..collections..hash..map..HashMap$LT$alloc..string..String$C$serde_json..value..Value$GT$$GT$17h9bb4355ce0f2094eE', symObjAddr: 0x156C, symBinAddr: 0x4C834, symSize: 0x24 }
  - { offset: 0xE9880, size: 0x8, addend: 0x0, symName: '__ZN4core3ptr114drop_in_place$LT$std..sync..poison..mutex..MutexGuard$LT$core..option..Option$LT$std..io..error..Error$GT$$GT$$GT$17h58ecc6b9428c6962E', symObjAddr: 0x1590, symBinAddr: 0x4C858, symSize: 0x24 }
  - { offset: 0xE98AF, size: 0x8, addend: 0x0, symName: '__ZN4core3ptr121drop_in_place$LT$$u5b$core..option..Option$LT$alloc..sync..Arc$LT$flash_expert..expert_store..ExpertData$GT$$GT$$u5d$$GT$17heec8045cd830ef90E', symObjAddr: 0x15FC, symBinAddr: 0x4C87C, symSize: 0xB4 }
  - { offset: 0xE98DE, size: 0x8, addend: 0x0, symName: '__ZN4core3ptr122drop_in_place$LT$hashbrown..map..HashMap$LT$alloc..string..String$C$memmap2..Mmap$C$std..hash..random..RandomState$GT$$GT$17h79387500d991c4e7E', symObjAddr: 0x16B0, symBinAddr: 0x4C930, symSize: 0x24 }
  - { offset: 0xE990D, size: 0x8, addend: 0x0, symName: '__ZN4core3ptr124drop_in_place$LT$lru..LruCache$LT$$LP$u32$C$u32$RP$$C$alloc..sync..Arc$LT$flash_expert..expert_store..ExpertData$GT$$GT$$GT$17h90fd9cb4343e465aE', symObjAddr: 0x16D4, symBinAddr: 0x4C954, symSize: 0x5C }
  - { offset: 0xE993C, size: 0x8, addend: 0x0, symName: '__ZN4core3ptr126drop_in_place$LT$alloc..vec..Vec$LT$T$C$A$GT$..dedup_by..FillGapOnDrop$LT$alloc..string..String$C$alloc..alloc..Global$GT$$GT$17h4eebea1b1eaec9ddE', symObjAddr: 0x1730, symBinAddr: 0x4C9B0, symSize: 0x24 }
  - { offset: 0xE996B, size: 0x8, addend: 0x0, symName: '__ZN4core3ptr126drop_in_place$LT$hashbrown..map..IntoIter$LT$alloc..string..String$C$pyo3..instance..Py$LT$pyo3..types..any..PyAny$GT$$GT$$GT$17h600bfff4d8eeb116E', symObjAddr: 0x1754, symBinAddr: 0x4C9D4, symSize: 0x24 }
  - { offset: 0xE999A, size: 0x8, addend: 0x0, symName: '__ZN4core3ptr127drop_in_place$LT$alloc..collections..linked_list..Node$LT$alloc..vec..Vec$LT$flash_expert..expert_store..ExpertData$GT$$GT$$GT$17he37b3942cb2421c9E', symObjAddr: 0x1778, symBinAddr: 0x4C9F8, symSize: 0x24 }
  - { offset: 0xE99C9, size: 0x8, addend: 0x0, symName: '__ZN4core3ptr129drop_in_place$LT$alloc..vec..in_place_drop..InPlaceDrop$LT$alloc..sync..Arc$LT$flash_expert..expert_store..ExpertData$GT$$GT$$GT$17h7bf25a82c7ef255aE', symObjAddr: 0x179C, symBinAddr: 0x4CA1C, symSize: 0x24 }
  - { offset: 0xE99F8, size: 0x8, addend: 0x0, symName: '__ZN4core3ptr130drop_in_place$LT$pyo3..err..PyErr..new$LT$pyo3..exceptions..PyIOError$C$alloc..string..String$GT$..$u7b$$u7b$closure$u7d$$u7d$$GT$17h22e47fad26b6e1deE', symObjAddr: 0x17C0, symBinAddr: 0x4CA40, symSize: 0x24 }
  - { offset: 0xE9A27, size: 0x8, addend: 0x0, symName: '__ZN4core3ptr131drop_in_place$LT$alloc..collections..linked_list..IntoIter$LT$alloc..vec..Vec$LT$flash_expert..expert_store..ExpertData$GT$$GT$$GT$17h951cae064b9697a6E', symObjAddr: 0x17E4, symBinAddr: 0x4CA64, symSize: 0x24 }
  - { offset: 0xE9A56, size: 0x8, addend: 0x0, symName: '__ZN4core3ptr133drop_in_place$LT$$LP$alloc..string..String$C$alloc..vec..Vec$LT$u8$GT$$C$alloc..string..String$C$alloc..vec..Vec$LT$usize$GT$$RP$$GT$17hd5c295bf5ce90f52E', symObjAddr: 0x1808, symBinAddr: 0x4CA88, symSize: 0xC0 }
  - { offset: 0xE9A85, size: 0x8, addend: 0x0, symName: '__ZN4core3ptr133drop_in_place$LT$alloc..collections..linked_list..LinkedList$LT$alloc..vec..Vec$LT$flash_expert..expert_store..ExpertData$GT$$GT$$GT$17ha5093f6efc6dfd45E', symObjAddr: 0x18C8, symBinAddr: 0x4CB48, symSize: 0x24 }
  - { offset: 0xE9AB4, size: 0x8, addend: 0x0, symName: '__ZN4core3ptr133drop_in_place$LT$hashbrown..map..HashMap$LT$alloc..string..String$C$serde_json..value..Value$C$std..hash..random..RandomState$GT$$GT$17he2a53b605259d559E', symObjAddr: 0x18EC, symBinAddr: 0x4CB6C, symSize: 0x24 }
  - { offset: 0xE9AE3, size: 0x8, addend: 0x0, symName: '__ZN4core3ptr134drop_in_place$LT$alloc..vec..Vec$LT$core..option..Option$LT$alloc..sync..Arc$LT$flash_expert..expert_store..ExpertData$GT$$GT$$GT$$GT$17hb6e5fae3c8686930E', symObjAddr: 0x1910, symBinAddr: 0x4CB90, symSize: 0x5C }
  - { offset: 0xE9B12, size: 0x8, addend: 0x0, symName: '__ZN4core3ptr134drop_in_place$LT$hashbrown..raw..RawTable$LT$$LP$alloc..string..String$C$pyo3..instance..Py$LT$pyo3..types..any..PyAny$GT$$RP$$GT$$GT$17h84f71dbbf8178bf2E', symObjAddr: 0x196C, symBinAddr: 0x4CBEC, symSize: 0x24 }
  - { offset: 0xE9B41, size: 0x8, addend: 0x0, symName: '__ZN4core3ptr135drop_in_place$LT$std..sync..poison..PoisonError$LT$std..sync..poison..mutex..MutexGuard$LT$flash_expert..cache..ExpertCache$GT$$GT$$GT$17hd1a3ce9f5011ce40E', symObjAddr: 0x1990, symBinAddr: 0x4CC10, symSize: 0x24 }
  - { offset: 0xE9B70, size: 0x8, addend: 0x0, symName: '__ZN4core3ptr137drop_in_place$LT$hashbrown..raw..RawIntoIter$LT$$LP$alloc..string..String$C$pyo3..instance..Py$LT$pyo3..types..any..PyAny$GT$$RP$$GT$$GT$17h388aa9ca94bd3281E', symObjAddr: 0x19B4, symBinAddr: 0x4CC34, symSize: 0x24 }
  - { offset: 0xE9B9F, size: 0x8, addend: 0x0, symName: '__ZN4core3ptr138drop_in_place$LT$std..collections..hash..map..HashMap$LT$alloc..string..String$C$pyo3..instance..Py$LT$pyo3..types..any..PyAny$GT$$GT$$GT$17hd91be1fd64cbff18E', symObjAddr: 0x19D8, symBinAddr: 0x4CC58, symSize: 0x24 }
  - { offset: 0xE9BCE, size: 0x8, addend: 0x0, symName: '__ZN4core3ptr139drop_in_place$LT$core..option..Option$LT$$LP$$LP$u32$C$u32$RP$$C$alloc..sync..Arc$LT$flash_expert..expert_store..ExpertData$GT$$RP$$GT$$GT$17he51e96c6bda32bd7E', symObjAddr: 0x19FC, symBinAddr: 0x4CC7C, symSize: 0x44 }
  - { offset: 0xE9BFD, size: 0x8, addend: 0x0, symName: '__ZN4core3ptr139drop_in_place$LT$std..collections..hash..map..IntoIter$LT$alloc..string..String$C$pyo3..instance..Py$LT$pyo3..types..any..PyAny$GT$$GT$$GT$17h62b0e691acf11fb0E', symObjAddr: 0x1A40, symBinAddr: 0x4CCC0, symSize: 0x24 }
  - { offset: 0xE9C2C, size: 0x8, addend: 0x0, symName: '__ZN4core3ptr141drop_in_place$LT$alloc..raw_vec..RawVec$LT$core..option..Option$LT$alloc..sync..Arc$LT$flash_expert..expert_store..ExpertData$GT$$GT$$GT$$GT$17hd7635f281974abaeE', symObjAddr: 0x1A64, symBinAddr: 0x4CCE4, symSize: 0x24 }
  - { offset: 0xE9C5B, size: 0x8, addend: 0x0, symName: '__ZN4core3ptr143drop_in_place$LT$$u5b$$LP$alloc..string..String$C$alloc..vec..Vec$LT$u8$GT$$C$alloc..string..String$C$alloc..vec..Vec$LT$usize$GT$$RP$$u5d$$GT$17hebf48be580d0fd2cE', symObjAddr: 0x1A88, symBinAddr: 0x4CD08, symSize: 0xC4 }
  - { offset: 0xE9C8A, size: 0x8, addend: 0x0, symName: '__ZN4core3ptr146drop_in_place$LT$rayon_core..job..JobResult$LT$rayon..iter..collect..consumer..CollectResult$LT$flash_expert..expert_store..ExpertData$GT$$GT$$GT$17h6f632e441d4d8a5bE', symObjAddr: 0x1B4C, symBinAddr: 0x4CDCC, symSize: 0x64 }
  - { offset: 0xE9CB9, size: 0x8, addend: 0x0, symName: '__ZN4core3ptr149drop_in_place$LT$alloc..boxed..Box$LT$lru..LruEntry$LT$$LP$u32$C$u32$RP$$C$alloc..sync..Arc$LT$flash_expert..expert_store..ExpertData$GT$$GT$$GT$$GT$17h770f60ed1185698eE', symObjAddr: 0x1BB0, symBinAddr: 0x4CE30, symSize: 0x2C }
  - { offset: 0xE9CE8, size: 0x8, addend: 0x0, symName: '__ZN4core3ptr149drop_in_place$LT$rayon..iter..while_some..WhileSomeFolder$LT$rayon..iter..extend..ListVecFolder$LT$flash_expert..expert_store..ExpertData$GT$$GT$$GT$17h14188a371ef943b6E', symObjAddr: 0x1BDC, symBinAddr: 0x4CE5C, symSize: 0x24 }
  - { offset: 0xE9D17, size: 0x8, addend: 0x0, symName: '__ZN4core3ptr150drop_in_place$LT$alloc..vec..into_iter..IntoIter$LT$core..option..Option$LT$alloc..sync..Arc$LT$flash_expert..expert_store..ExpertData$GT$$GT$$GT$$GT$17h9a88760b71af486cE', symObjAddr: 0x1C00, symBinAddr: 0x4CE80, symSize: 0x24 }
  - { offset: 0xE9D46, size: 0x8, addend: 0x0, symName: '__ZN4core3ptr152drop_in_place$LT$std..sync..poison..PoisonError$LT$std..sync..poison..mutex..MutexGuard$LT$core..option..Option$LT$std..io..error..Error$GT$$GT$$GT$$GT$17h73e1cf4573722b52E', symObjAddr: 0x1C24, symBinAddr: 0x4CEA4, symSize: 0x24 }
  - { offset: 0xE9D75, size: 0x8, addend: 0x0, symName: '__ZN4core3ptr153drop_in_place$LT$std..sync..poison..TryLockError$LT$std..sync..poison..mutex..MutexGuard$LT$core..option..Option$LT$std..io..error..Error$GT$$GT$$GT$$GT$17he1c87ef4d9e7f237E', symObjAddr: 0x1C48, symBinAddr: 0x4CEC8, symSize: 0x48 }
  - { offset: 0xE9DA4, size: 0x8, addend: 0x0, symName: '__ZN4core3ptr156drop_in_place$LT$alloc..vec..Vec$LT$$LP$alloc..string..String$C$alloc..vec..Vec$LT$u8$GT$$C$alloc..string..String$C$alloc..vec..Vec$LT$usize$GT$$RP$$GT$$GT$17h79b9078e06b4c83bE', symObjAddr: 0x1C90, symBinAddr: 0x4CF10, symSize: 0x5C }
  - { offset: 0xE9DD3, size: 0x8, addend: 0x0, symName: '__ZN4core3ptr158drop_in_place$LT$hashbrown..map..HashMap$LT$alloc..string..String$C$pyo3..instance..Py$LT$pyo3..types..any..PyAny$GT$$C$std..hash..random..RandomState$GT$$GT$17h0b4dfca64ea77777E', symObjAddr: 0x1CEC, symBinAddr: 0x4CF6C, symSize: 0x24 }
  - { offset: 0xE9E02, size: 0x8, addend: 0x0, symName: '__ZN4core3ptr160drop_in_place$LT$rayon..iter..while_some..WhileSomeFolder$LT$rayon..iter..collect..consumer..CollectResult$LT$flash_expert..expert_store..ExpertData$GT$$GT$$GT$17h8f49ceb8fb23b149E', symObjAddr: 0x1D10, symBinAddr: 0x4CF90, symSize: 0x24 }
  - { offset: 0xE9E31, size: 0x8, addend: 0x0, symName: '__ZN4core3ptr163drop_in_place$LT$alloc..raw_vec..RawVec$LT$$LP$alloc..string..String$C$alloc..vec..Vec$LT$u8$GT$$C$alloc..string..String$C$alloc..vec..Vec$LT$usize$GT$$RP$$GT$$GT$17h286f5100385c5ba0E', symObjAddr: 0x1D34, symBinAddr: 0x4CFB4, symSize: 0x24 }
  - { offset: 0xE9E60, size: 0x8, addend: 0x0, symName: '__ZN4core3ptr167drop_in_place$LT$rayon_core..job..JobResult$LT$alloc..collections..linked_list..LinkedList$LT$alloc..vec..Vec$LT$flash_expert..expert_store..ExpertData$GT$$GT$$GT$$GT$17hebfe46ba47f247fcE', symObjAddr: 0x1D58, symBinAddr: 0x4CFD8, symSize: 0x64 }
  - { offset: 0xE9E8F, size: 0x8, addend: 0x0, symName: '__ZN4core3ptr175drop_in_place$LT$core..iter..adapters..zip..Zip$LT$alloc..vec..into_iter..IntoIter$LT$flash_expert..expert_store..ExpertData$GT$$C$core..slice..iter..Iter$LT$usize$GT$$GT$$GT$17h50e0ee9c47a53bfbE', symObjAddr: 0x1DBC, symBinAddr: 0x4D03C, symSize: 0x24 }
  - { offset: 0xE9EBE, size: 0x8, addend: 0x0, symName: '__ZN4core3ptr176drop_in_place$LT$core..cell..UnsafeCell$LT$rayon_core..job..JobResult$LT$rayon..iter..collect..consumer..CollectResult$LT$flash_expert..expert_store..ExpertData$GT$$GT$$GT$$GT$17h841d577af7ce0c58E', symObjAddr: 0x1DE0, symBinAddr: 0x4D060, symSize: 0x24 }
  - { offset: 0xE9EED, size: 0x8, addend: 0x0, symName: '__ZN4core3ptr179drop_in_place$LT$alloc..boxed..Box$LT$alloc..collections..linked_list..Node$LT$alloc..vec..Vec$LT$flash_expert..expert_store..ExpertData$GT$$GT$$C$$RF$alloc..alloc..Global$GT$$GT$17hdbd39094e4be7f85E', symObjAddr: 0x1E04, symBinAddr: 0x4D084, symSize: 0x60 }
  - { offset: 0xE9F1C, size: 0x8, addend: 0x0, symName: '__ZN4core3ptr181drop_in_place$LT$hashbrown..scopeguard..ScopeGuard$LT$$RF$mut$u20$hashbrown..raw..RawTableInner$C$hashbrown..raw..RawTableInner..rehash_in_place..$u7b$$u7b$closure$u7d$$u7d$$GT$$GT$17ha67f24eb0b3414c6E', symObjAddr: 0x1E64, symBinAddr: 0x4D0E4, symSize: 0x24 }
  - { offset: 0xE9F4B, size: 0x8, addend: 0x0, symName: '__ZN4core3ptr185drop_in_place$LT$core..result..Result$LT$std..collections..hash..map..HashMap$LT$alloc..string..String$C$pyo3..instance..Py$LT$pyo3..types..any..PyAny$GT$$GT$$C$pyo3..err..PyErr$GT$$GT$17ha8b810cff52c8f6aE', symObjAddr: 0x1E88, symBinAddr: 0x4D108, symSize: 0x50 }
  - { offset: 0xE9F7A, size: 0x8, addend: 0x0, symName: '__ZN4core3ptr185drop_in_place$LT$core..slice..sort..stable..merge..MergeState$LT$$LP$alloc..string..String$C$alloc..vec..Vec$LT$u8$GT$$C$alloc..string..String$C$alloc..vec..Vec$LT$usize$GT$$RP$$GT$$GT$17h5ec2ba97af9a160dE', symObjAddr: 0x1ED8, symBinAddr: 0x4D158, symSize: 0x24 }
  - { offset: 0xE9FA9, size: 0x8, addend: 0x0, symName: '__ZN4core3ptr189drop_in_place$LT$core..slice..sort..shared..smallsort..CopyOnDrop$LT$$LP$alloc..string..String$C$alloc..vec..Vec$LT$u8$GT$$C$alloc..string..String$C$alloc..vec..Vec$LT$usize$GT$$RP$$GT$$GT$17hbe19a3e611c912d2E', symObjAddr: 0x1EFC, symBinAddr: 0x4D17C, symSize: 0x24 }
  - { offset: 0xE9FD8, size: 0x8, addend: 0x0, symName: '__ZN4core3ptr192drop_in_place$LT$$LT$alloc..vec..into_iter..IntoIter$LT$T$C$A$GT$$u20$as$u20$core..ops..drop..Drop$GT$..drop..DropGuard$LT$flash_expert..expert_store..ExpertData$C$alloc..alloc..Global$GT$$GT$17h922232d31f520f8aE', symObjAddr: 0x1F20, symBinAddr: 0x4D1A0, symSize: 0x24 }
  - { offset: 0xEA007, size: 0x8, addend: 0x0, symName: '__ZN4core3ptr197drop_in_place$LT$core..cell..UnsafeCell$LT$rayon_core..job..JobResult$LT$alloc..collections..linked_list..LinkedList$LT$alloc..vec..Vec$LT$flash_expert..expert_store..ExpertData$GT$$GT$$GT$$GT$$GT$17h4cce12a48a77394bE', symObjAddr: 0x1F44, symBinAddr: 0x4D1C4, symSize: 0x24 }
  - { offset: 0xEA036, size: 0x8, addend: 0x0, symName: '__ZN4core3ptr207drop_in_place$LT$core..option..Option$LT$alloc..boxed..Box$LT$alloc..collections..linked_list..Node$LT$alloc..vec..Vec$LT$flash_expert..expert_store..ExpertData$GT$$GT$$C$$RF$alloc..alloc..Global$GT$$GT$$GT$17h0e0bf5c03047483eE', symObjAddr: 0x1F8C, symBinAddr: 0x4D1E8, symSize: 0x44 }
  - { offset: 0xEA065, size: 0x8, addend: 0x0, symName: '__ZN4core3ptr214drop_in_place$LT$$LP$rayon..iter..collect..consumer..CollectResult$LT$flash_expert..expert_store..ExpertData$GT$$C$rayon..iter..collect..consumer..CollectResult$LT$flash_expert..expert_store..ExpertData$GT$$RP$$GT$17hce7942eda70cf769E', symObjAddr: 0x1FD0, symBinAddr: 0x4D22C, symSize: 0x60 }
  - { offset: 0xEA094, size: 0x8, addend: 0x0, symName: '__ZN4core3ptr221drop_in_place$LT$hashbrown..scopeguard..ScopeGuard$LT$hashbrown..raw..RawTableInner$C$hashbrown..raw..RawTableInner..prepare_resize$LT$allocator_api2..stable..alloc..global..Global$GT$..$u7b$$u7b$closure$u7d$$u7d$$GT$$GT$17h049acb32900d2167E', symObjAddr: 0x2030, symBinAddr: 0x4D28C, symSize: 0x24 }
  - { offset: 0xEA0C3, size: 0x8, addend: 0x0, symName: '__ZN4core3ptr2233drop_in_place$LT$rayon_core..job..StackJob$LT$rayon_core..latch..SpinLatch$C$rayon_core..registry..Registry..in_worker_cross$LT$rayon_core..join..join_context$LT$rayon..iter..plumbing..bridge_producer_consumer..helper$LT$rayon..slice..IterProducer$LT$u32$GT$$C$rayon..iter..map..MapConsumer$LT$rayon..iter..map..MapConsumer$LT$rayon..iter..while_some..WhileSomeConsumer$LT$rayon..iter..collect..consumer..CollectConsumer$LT$flash_expert..expert_store..ExpertData$GT$$GT$$C$rayon..result..$LT$impl$u20$rayon..iter..FromParallelIterator$LT$core..result..Result$LT$T$C$E$GT$$GT$$u20$for$u20$core..result..Result$LT$C$C$E$GT$$GT$..from_par_iter..ok$LT$flash_expert..expert_store..ExpertData$C$std..io..error..Error$GT$..$u7b$$u7b$closure$u7d$$u7d$$GT$$C$flash_expert..expert_store..ExpertStore..load_experts..$u7b$$u7b$closure$u7d$$u7d$$GT$$GT$..$u7b$$u7b$closure$u7d$$u7d$$C$rayon..iter..plumbing..bridge_producer_consumer..helper$LT$rayon..slice..IterProducer$LT$u32$GT$$C$rayon..iter..map..MapConsumer$LT$rayon..iter..map..MapConsumer$LT$rayon..iter..while_some..WhileSomeConsumer$LT$rayon..iter..collect..consumer..CollectConsumer$LT$flash_expert..expert_store..ExpertData$GT$$GT$$C$rayon..result..$LT$impl$u20$rayon..iter..FromParallelIterator$LT$core..result..Result$LT$T$C$E$GT$$GT$$u20$for$u20$core..result..Result$LT$C$C$E$GT$$GT$..from_par_iter..ok$LT$flash_expert..expert_store..ExpertData$C$std..io..error..Error$GT$..$u7b$$u7b$closure$u7d$$u7d$$GT$$C$flash_expert..expert_store..ExpertStore..load_experts..$u7b$$u7b$closure$u7d$$u7d$$GT$$GT$..$u7b$$u7b$closure$u7d$$u7d$$C$rayon..iter..collect..consumer..CollectResult$LT$flash_expert..expert_store..ExpertData$GT$$C$rayon..iter..collect..consumer..CollectResult$LT$flash_expert..expert_store..ExpertData$GT$$GT$..$u7b$$u7b$closure$u7d$$u7d$$C$$LP$rayon..iter..collect..consumer..CollectResult$LT$flash_expert..expert_store..ExpertData$GT$$C$rayon..iter..collect..consumer..CollectResult$LT$flash_expert..expert_store..ExpertData$GT$$RP$$GT$..$u7b$$u7b$closure$u7d$$u7d$$C$$LP$rayon..iter..collect..consumer..CollectResult$LT$flash_expert..expert_store..ExpertData$GT$$C$rayon..iter..collect..consumer..CollectResult$LT$flash_expert..expert_store..ExpertData$GT$$RP$$GT$$GT$17hcfe71ea2ff32c01aE', symObjAddr: 0x2054, symBinAddr: 0x4D2B0, symSize: 0x24 }
  - { offset: 0xEA0F2, size: 0x8, addend: 0x0, symName: '__ZN4core3ptr2245drop_in_place$LT$rayon_core..job..StackJob$LT$rayon_core..latch..SpinLatch$C$rayon_core..registry..Registry..in_worker_cross$LT$rayon_core..join..join_context$LT$rayon..iter..plumbing..bridge_producer_consumer..helper$LT$rayon..slice..IterProducer$LT$u32$GT$$C$rayon..iter..map..MapConsumer$LT$rayon..iter..map..MapConsumer$LT$rayon..iter..while_some..WhileSomeConsumer$LT$rayon..iter..extend..ListVecConsumer$GT$$C$rayon..result..$LT$impl$u20$rayon..iter..FromParallelIterator$LT$core..result..Result$LT$T$C$E$GT$$GT$$u20$for$u20$core..result..Result$LT$C$C$E$GT$$GT$..from_par_iter..ok$LT$flash_expert..expert_store..ExpertData$C$std..io..error..Error$GT$..$u7b$$u7b$closure$u7d$$u7d$$GT$$C$flash_expert..expert_store..ExpertStore..load_experts..$u7b$$u7b$closure$u7d$$u7d$$GT$$GT$..$u7b$$u7b$closure$u7d$$u7d$$C$rayon..iter..plumbing..bridge_producer_consumer..helper$LT$rayon..slice..IterProducer$LT$u32$GT$$C$rayon..iter..map..MapConsumer$LT$rayon..iter..map..MapConsumer$LT$rayon..iter..while_some..WhileSomeConsumer$LT$rayon..iter..extend..ListVecConsumer$GT$$C$rayon..result..$LT$impl$u20$rayon..iter..FromParallelIterator$LT$core..result..Result$LT$T$C$E$GT$$GT$$u20$for$u20$core..result..Result$LT$C$C$E$GT$$GT$..from_par_iter..ok$LT$flash_expert..expert_store..ExpertData$C$std..io..error..Error$GT$..$u7b$$u7b$closure$u7d$$u7d$$GT$$C$flash_expert..expert_store..ExpertStore..load_experts..$u7b$$u7b$closure$u7d$$u7d$$GT$$GT$..$u7b$$u7b$closure$u7d$$u7d$$C$alloc..collections..linked_list..LinkedList$LT$alloc..vec..Vec$LT$flash_expert..expert_store..ExpertData$GT$$GT$$C$alloc..collections..linked_list..LinkedList$LT$alloc..vec..Vec$LT$flash_expert..expert_store..ExpertData$GT$$GT$$GT$..$u7b$$u7b$closure$u7d$$u7d$$C$$LP$alloc..collections..linked_list..LinkedList$LT$alloc..vec..Vec$LT$flash_expert..expert_store..ExpertData$GT$$GT$$C$alloc..collections..linked_list..LinkedList$LT$alloc..vec..Vec$LT$flash_expert..expert_store..ExpertData$GT$$GT$$RP$$GT$..$u7b$$u7b$closure$u7d$$u7d$$C$$LP$alloc..collections..linked_list..LinkedList$LT$alloc..vec..Vec$LT$flash_expert..expert_store..ExpertData$GT$$GT$$C$alloc..collections..linked_list..LinkedList$LT$alloc..vec..Vec$LT$flash_expert..expert_store..ExpertData$GT$$GT$$RP$$GT$$GT$17hfe4cb3d5baf0bc9bE', symObjAddr: 0x2078, symBinAddr: 0x4D2D4, symSize: 0x24 }
  - { offset: 0xEA121, size: 0x8, addend: 0x0, symName: '__ZN4core3ptr227drop_in_place$LT$$LT$alloc..collections..linked_list..LinkedList$LT$T$C$A$GT$$u20$as$u20$core..ops..drop..Drop$GT$..drop..DropGuard$LT$alloc..vec..Vec$LT$flash_expert..expert_store..ExpertData$GT$$C$alloc..alloc..Global$GT$$GT$17h98dd793f354fb075E', symObjAddr: 0x209C, symBinAddr: 0x4D2F8, symSize: 0x24 }
  - { offset: 0xEA150, size: 0x8, addend: 0x0, symName: '__ZN4core3ptr2296drop_in_place$LT$rayon_core..job..StackJob$LT$rayon_core..latch..LatchRef$LT$rayon_core..latch..LockLatch$GT$$C$rayon_core..registry..Registry..in_worker_cold$LT$rayon_core..join..join_context$LT$rayon..iter..plumbing..bridge_producer_consumer..helper$LT$rayon..slice..IterProducer$LT$u32$GT$$C$rayon..iter..map..MapConsumer$LT$rayon..iter..map..MapConsumer$LT$rayon..iter..while_some..WhileSomeConsumer$LT$rayon..iter..collect..consumer..CollectConsumer$LT$flash_expert..expert_store..ExpertData$GT$$GT$$C$rayon..result..$LT$impl$u20$rayon..iter..FromParallelIterator$LT$core..result..Result$LT$T$C$E$GT$$GT$$u20$for$u20$core..result..Result$LT$C$C$E$GT$$GT$..from_par_iter..ok$LT$flash_expert..expert_store..ExpertData$C$std..io..error..Error$GT$..$u7b$$u7b$closure$u7d$$u7d$$GT$$C$flash_expert..expert_store..ExpertStore..load_experts..$u7b$$u7b$closure$u7d$$u7d$$GT$$GT$..$u7b$$u7b$closure$u7d$$u7d$$C$rayon..iter..plumbing..bridge_producer_consumer..helper$LT$rayon..slice..IterProducer$LT$u32$GT$$C$rayon..iter..map..MapConsumer$LT$rayon..iter..map..MapConsumer$LT$rayon..iter..while_some..WhileSomeConsumer$LT$rayon..iter..collect..consumer..CollectConsumer$LT$flash_expert..expert_store..ExpertData$GT$$GT$$C$rayon..result..$LT$impl$u20$rayon..iter..FromParallelIterator$LT$core..result..Result$LT$T$C$E$GT$$GT$$u20$for$u20$core..result..Result$LT$C$C$E$GT$$GT$..from_par_iter..ok$LT$flash_expert..expert_store..ExpertData$C$std..io..error..Error$GT$..$u7b$$u7b$closure$u7d$$u7d$$GT$$C$flash_expert..expert_store..ExpertStore..load_experts..$u7b$$u7b$closure$u7d$$u7d$$GT$$GT$..$u7b$$u7b$closure$u7d$$u7d$$C$rayon..iter..collect..consumer..CollectResult$LT$flash_expert..expert_store..ExpertData$GT$$C$rayon..iter..collect..consumer..CollectResult$LT$flash_expert..expert_store..ExpertData$GT$$GT$..$u7b$$u7b$closure$u7d$$u7d$$C$$LP$rayon..iter..collect..consumer..CollectResult$LT$flash_expert..expert_store..ExpertData$GT$$C$rayon..iter..collect..consumer..CollectResult$LT$flash_expert..expert_store..ExpertData$GT$$RP$$GT$..$u7b$$u7b$closure$u7d$$u7d$..$u7b$$u7b$closure$u7d$$u7d$$C$$LP$rayon..iter..collect..consumer..CollectResult$LT$flash_expert..expert_store..ExpertData$GT$$C$rayon..iter..collect..consumer..CollectResult$LT$flash_expert..expert_store..ExpertData$GT$$RP$$GT$$GT$17haf6e2bbcc1557dd2E', symObjAddr: 0x20C0, symBinAddr: 0x4D31C, symSize: 0x24 }
  - { offset: 0xEA17F, size: 0x8, addend: 0x0, symName: '__ZN4core3ptr2308drop_in_place$LT$rayon_core..job..StackJob$LT$rayon_core..latch..LatchRef$LT$rayon_core..latch..LockLatch$GT$$C$rayon_core..registry..Registry..in_worker_cold$LT$rayon_core..join..join_context$LT$rayon..iter..plumbing..bridge_producer_consumer..helper$LT$rayon..slice..IterProducer$LT$u32$GT$$C$rayon..iter..map..MapConsumer$LT$rayon..iter..map..MapConsumer$LT$rayon..iter..while_some..WhileSomeConsumer$LT$rayon..iter..extend..ListVecConsumer$GT$$C$rayon..result..$LT$impl$u20$rayon..iter..FromParallelIterator$LT$core..result..Result$LT$T$C$E$GT$$GT$$u20$for$u20$core..result..Result$LT$C$C$E$GT$$GT$..from_par_iter..ok$LT$flash_expert..expert_store..ExpertData$C$std..io..error..Error$GT$..$u7b$$u7b$closure$u7d$$u7d$$GT$$C$flash_expert..expert_store..ExpertStore..load_experts..$u7b$$u7b$closure$u7d$$u7d$$GT$$GT$..$u7b$$u7b$closure$u7d$$u7d$$C$rayon..iter..plumbing..bridge_producer_consumer..helper$LT$rayon..slice..IterProducer$LT$u32$GT$$C$rayon..iter..map..MapConsumer$LT$rayon..iter..map..MapConsumer$LT$rayon..iter..while_some..WhileSomeConsumer$LT$rayon..iter..extend..ListVecConsumer$GT$$C$rayon..result..$LT$impl$u20$rayon..iter..FromParallelIterator$LT$core..result..Result$LT$T$C$E$GT$$GT$$u20$for$u20$core..result..Result$LT$C$C$E$GT$$GT$..from_par_iter..ok$LT$flash_expert..expert_store..ExpertData$C$std..io..error..Error$GT$..$u7b$$u7b$closure$u7d$$u7d$$GT$$C$flash_expert..expert_store..ExpertStore..load_experts..$u7b$$u7b$closure$u7d$$u7d$$GT$$GT$..$u7b$$u7b$closure$u7d$$u7d$$C$alloc..collections..linked_list..LinkedList$LT$alloc..vec..Vec$LT$flash_expert..expert_store..ExpertData$GT$$GT$$C$alloc..collections..linked_list..LinkedList$LT$alloc..vec..Vec$LT$flash_expert..expert_store..ExpertData$GT$$GT$$GT$..$u7b$$u7b$closure$u7d$$u7d$$C$$LP$alloc..collections..linked_list..LinkedList$LT$alloc..vec..Vec$LT$flash_expert..expert_store..ExpertData$GT$$GT$$C$alloc..collections..linked_list..LinkedList$LT$alloc..vec..Vec$LT$flash_expert..expert_store..ExpertData$GT$$GT$$RP$$GT$..$u7b$$u7b$closure$u7d$$u7d$..$u7b$$u7b$closure$u7d$$u7d$$C$$LP$alloc..collections..linked_list..LinkedList$LT$alloc..vec..Vec$LT$flash_expert..expert_store..ExpertData$GT$$GT$$C$alloc..collections..linked_list..LinkedList$LT$alloc..vec..Vec$LT$flash_expert..expert_store..ExpertData$GT$$GT$$RP$$GT$$GT$17h98dc6d1db08599a6E', symObjAddr: 0x20E4, symBinAddr: 0x4D340, symSize: 0x24 }
  - { offset: 0xEA1AE, size: 0x8, addend: 0x0, symName: '__ZN4core3ptr230drop_in_place$LT$hashbrown..map..HashMap$LT$lru..KeyRef$LT$$LP$u32$C$u32$RP$$GT$$C$core..ptr..non_null..NonNull$LT$lru..LruEntry$LT$$LP$u32$C$u32$RP$$C$alloc..sync..Arc$LT$flash_expert..expert_store..ExpertData$GT$$GT$$GT$$GT$$GT$17h6f219375119b0a4dE', symObjAddr: 0x2108, symBinAddr: 0x4D364, symSize: 0x24 }
  - { offset: 0xEA1DD, size: 0x8, addend: 0x0, symName: '__ZN4core3ptr235drop_in_place$LT$alloc..vec..in_place_drop..InPlaceDstDataSrcBufDrop$LT$core..option..Option$LT$alloc..sync..Arc$LT$flash_expert..expert_store..ExpertData$GT$$GT$$C$alloc..sync..Arc$LT$flash_expert..expert_store..ExpertData$GT$$GT$$GT$17hf50e6c769b332ceaE', symObjAddr: 0x212C, symBinAddr: 0x4D388, symSize: 0x24 }
  - { offset: 0xEA20C, size: 0x8, addend: 0x0, symName: '__ZN4core3ptr238drop_in_place$LT$alloc..boxed..convert..$LT$impl$u20$core..convert..From$LT$alloc..string..String$GT$$u20$for$u20$alloc..boxed..Box$LT$dyn$u20$core..error..Error$u2b$core..marker..Sync$u2b$core..marker..Send$GT$$GT$..from..StringError$GT$17h03b1b33976ed98b1E', symObjAddr: 0x2150, symBinAddr: 0x4D3AC, symSize: 0x24 }
  - { offset: 0xEA23B, size: 0x8, addend: 0x0, symName: '__ZN4core3ptr239drop_in_place$LT$hashbrown..raw..RawDrain$LT$$LP$lru..KeyRef$LT$$LP$u32$C$u32$RP$$GT$$C$core..ptr..non_null..NonNull$LT$lru..LruEntry$LT$$LP$u32$C$u32$RP$$C$alloc..sync..Arc$LT$flash_expert..expert_store..ExpertData$GT$$GT$$GT$$RP$$GT$$GT$17ha99c3d0ac7d902bfE', symObjAddr: 0x2174, symBinAddr: 0x4D3D0, symSize: 0x24 }
  - { offset: 0xEA26A, size: 0x8, addend: 0x0, symName: '__ZN4core3ptr239drop_in_place$LT$hashbrown..raw..RawTable$LT$$LP$lru..KeyRef$LT$$LP$u32$C$u32$RP$$GT$$C$core..ptr..non_null..NonNull$LT$lru..LruEntry$LT$$LP$u32$C$u32$RP$$C$alloc..sync..Arc$LT$flash_expert..expert_store..ExpertData$GT$$GT$$GT$$RP$$GT$$GT$17h8d036c1180ba6b0bE', symObjAddr: 0x2198, symBinAddr: 0x4D3F4, symSize: 0x24 }
  - { offset: 0xEA299, size: 0x8, addend: 0x0, symName: '__ZN4core3ptr244drop_in_place$LT$$LT$alloc..vec..into_iter..IntoIter$LT$T$C$A$GT$$u20$as$u20$core..ops..drop..Drop$GT$..drop..DropGuard$LT$core..option..Option$LT$alloc..sync..Arc$LT$flash_expert..expert_store..ExpertData$GT$$GT$$C$alloc..alloc..Global$GT$$GT$17h4fa5766dc08d54c5E', symObjAddr: 0x21BC, symBinAddr: 0x4D418, symSize: 0x24 }
  - { offset: 0xEA2C8, size: 0x8, addend: 0x0, symName: '__ZN4core3ptr248drop_in_place$LT$rayon_core..job..JobResult$LT$$LP$rayon..iter..collect..consumer..CollectResult$LT$flash_expert..expert_store..ExpertData$GT$$C$rayon..iter..collect..consumer..CollectResult$LT$flash_expert..expert_store..ExpertData$GT$$RP$$GT$$GT$17h6706c4021d456f25E', symObjAddr: 0x21E0, symBinAddr: 0x4D43C, symSize: 0x64 }
  - { offset: 0xEA2F7, size: 0x8, addend: 0x0, symName: '__ZN4core3ptr256drop_in_place$LT$$LP$alloc..collections..linked_list..LinkedList$LT$alloc..vec..Vec$LT$flash_expert..expert_store..ExpertData$GT$$GT$$C$alloc..collections..linked_list..LinkedList$LT$alloc..vec..Vec$LT$flash_expert..expert_store..ExpertData$GT$$GT$$RP$$GT$17h0ed7cd6184040addE', symObjAddr: 0x2244, symBinAddr: 0x4D4A0, symSize: 0x60 }
  - { offset: 0xEA326, size: 0x8, addend: 0x0, symName: '__ZN4core3ptr263drop_in_place$LT$alloc..vec..Vec$LT$usize$GT$..extend_trusted$LT$core..iter..adapters..map..Map$LT$core..slice..iter..Iter$LT$serde_json..value..Value$GT$$C$flash_expert..splitter..tensor_shape..$u7b$$u7b$closure$u7d$$u7d$$GT$$GT$..$u7b$$u7b$closure$u7d$$u7d$$GT$17h3250f41c6b6e4bc0E', symObjAddr: 0x22A4, symBinAddr: 0x4D500, symSize: 0x24 }
  - { offset: 0xEA355, size: 0x8, addend: 0x0, symName: '__ZN4core3ptr265drop_in_place$LT$core..iter..adapters..map..Map$LT$alloc..vec..into_iter..IntoIter$LT$core..option..Option$LT$alloc..sync..Arc$LT$flash_expert..expert_store..ExpertData$GT$$GT$$GT$$C$flash_expert..cache..ExpertCache..get_or_load..$u7b$$u7b$closure$u7d$$u7d$$GT$$GT$17h318cc30cb1b8c6ebE', symObjAddr: 0x22C8, symBinAddr: 0x4D524, symSize: 0x24 }
  - { offset: 0xEA384, size: 0x8, addend: 0x0, symName: '__ZN4core3ptr277drop_in_place$LT$core..result..Result$LT$std..sync..poison..mutex..MutexGuard$LT$core..option..Option$LT$std..io..error..Error$GT$$GT$$C$std..sync..poison..TryLockError$LT$std..sync..poison..mutex..MutexGuard$LT$core..option..Option$LT$std..io..error..Error$GT$$GT$$GT$$GT$$GT$17h18231bf340794accE', symObjAddr: 0x22EC, symBinAddr: 0x4D548, symSize: 0x50 }
  - { offset: 0xEA3B3, size: 0x8, addend: 0x0, symName: '__ZN4core3ptr278drop_in_place$LT$core..cell..UnsafeCell$LT$rayon_core..job..JobResult$LT$$LP$rayon..iter..collect..consumer..CollectResult$LT$flash_expert..expert_store..ExpertData$GT$$C$rayon..iter..collect..consumer..CollectResult$LT$flash_expert..expert_store..ExpertData$GT$$RP$$GT$$GT$$GT$17hf416f6b9cad88e69E', symObjAddr: 0x233C, symBinAddr: 0x4D598, symSize: 0x24 }
  - { offset: 0xEA3E2, size: 0x8, addend: 0x0, symName: '__ZN4core3ptr290drop_in_place$LT$rayon_core..job..JobResult$LT$$LP$alloc..collections..linked_list..LinkedList$LT$alloc..vec..Vec$LT$flash_expert..expert_store..ExpertData$GT$$GT$$C$alloc..collections..linked_list..LinkedList$LT$alloc..vec..Vec$LT$flash_expert..expert_store..ExpertData$GT$$GT$$RP$$GT$$GT$17h10c66f28f885b874E', symObjAddr: 0x2360, symBinAddr: 0x4D5BC, symSize: 0x64 }
  - { offset: 0xEA411, size: 0x8, addend: 0x0, symName: '__ZN4core3ptr320drop_in_place$LT$core..cell..UnsafeCell$LT$rayon_core..job..JobResult$LT$$LP$alloc..collections..linked_list..LinkedList$LT$alloc..vec..Vec$LT$flash_expert..expert_store..ExpertData$GT$$GT$$C$alloc..collections..linked_list..LinkedList$LT$alloc..vec..Vec$LT$flash_expert..expert_store..ExpertData$GT$$GT$$RP$$GT$$GT$$GT$17h8386a3c74aadd603E', symObjAddr: 0x23C4, symBinAddr: 0x4D620, symSize: 0x24 }
  - { offset: 0xEA440, size: 0x8, addend: 0x0, symName: '__ZN4core3ptr34drop_in_place$LT$std..fs..File$GT$17h40ddb5d2cb8bbbceE', symObjAddr: 0x23E8, symBinAddr: 0x4D644, symSize: 0x24 }
  - { offset: 0xEA46F, size: 0x8, addend: 0x0, symName: '__ZN4core3ptr362drop_in_place$LT$core..iter..traits..iterator..Iterator..for_each..call$LT$usize$C$alloc..vec..Vec$LT$usize$GT$..extend_trusted$LT$core..iter..adapters..map..Map$LT$core..slice..iter..Iter$LT$serde_json..value..Value$GT$$C$flash_expert..splitter..tensor_shape..$u7b$$u7b$closure$u7d$$u7d$$GT$$GT$..$u7b$$u7b$closure$u7d$$u7d$$GT$..$u7b$$u7b$closure$u7d$$u7d$$GT$17hcc54ace2e59e90bcE', symObjAddr: 0x240C, symBinAddr: 0x4D668, symSize: 0x24 }
  - { offset: 0xEA49E, size: 0x8, addend: 0x0, symName: '__ZN4core3ptr37drop_in_place$LT$std..fs..ReadDir$GT$17h306612e7403ba454E', symObjAddr: 0x2430, symBinAddr: 0x4D68C, symSize: 0x24 }
  - { offset: 0xEA4CD, size: 0x8, addend: 0x0, symName: '__ZN4core3ptr38drop_in_place$LT$std..fs..DirEntry$GT$17h79b647f3791d2393E', symObjAddr: 0x2454, symBinAddr: 0x4D6B0, symSize: 0x24 }
  - { offset: 0xEA4FC, size: 0x8, addend: 0x0, symName: '__ZN4core3ptr39drop_in_place$LT$std..path..PathBuf$GT$17h9740c7337b2e1ae5E', symObjAddr: 0x2478, symBinAddr: 0x4D6D4, symSize: 0x24 }
  - { offset: 0xEA52B, size: 0x8, addend: 0x0, symName: '__ZN4core3ptr457drop_in_place$LT$rayon..iter..map..MapFolder$LT$rayon..iter..while_some..WhileSomeFolder$LT$rayon..iter..extend..ListVecFolder$LT$flash_expert..expert_store..ExpertData$GT$$GT$$C$rayon..result..$LT$impl$u20$rayon..iter..FromParallelIterator$LT$core..result..Result$LT$T$C$E$GT$$GT$$u20$for$u20$core..result..Result$LT$C$C$E$GT$$GT$..from_par_iter..ok$LT$flash_expert..expert_store..ExpertData$C$std..io..error..Error$GT$..$u7b$$u7b$closure$u7d$$u7d$$GT$$GT$17h0cc99ba3763bf2ebE', symObjAddr: 0x249C, symBinAddr: 0x4D6F8, symSize: 0x24 }
  - { offset: 0xEA55A, size: 0x8, addend: 0x0, symName: '__ZN4core3ptr45drop_in_place$LT$std..sys..fs..unix..File$GT$17h6359559af567c1c8E', symObjAddr: 0x24C0, symBinAddr: 0x4D71C, symSize: 0x24 }
  - { offset: 0xEA589, size: 0x8, addend: 0x0, symName: '__ZN4core3ptr468drop_in_place$LT$rayon..iter..map..MapFolder$LT$rayon..iter..while_some..WhileSomeFolder$LT$rayon..iter..collect..consumer..CollectResult$LT$flash_expert..expert_store..ExpertData$GT$$GT$$C$rayon..result..$LT$impl$u20$rayon..iter..FromParallelIterator$LT$core..result..Result$LT$T$C$E$GT$$GT$$u20$for$u20$core..result..Result$LT$C$C$E$GT$$GT$..from_par_iter..ok$LT$flash_expert..expert_store..ExpertData$C$std..io..error..Error$GT$..$u7b$$u7b$closure$u7d$$u7d$$GT$$GT$17h7bf10b741ae3593cE', symObjAddr: 0x24E4, symBinAddr: 0x4D740, symSize: 0x24 }
  - { offset: 0xEA5B8, size: 0x8, addend: 0x0, symName: '__ZN4core3ptr47drop_in_place$LT$alloc..vec..Vec$LT$i32$GT$$GT$17h9d769b79c75cdac5E', symObjAddr: 0x2508, symBinAddr: 0x4D764, symSize: 0x5C }
  - { offset: 0xEA5E7, size: 0x8, addend: 0x0, symName: '__ZN4core3ptr47drop_in_place$LT$alloc..vec..Vec$LT$u32$GT$$GT$17hbce4a8f38c8015ecE', symObjAddr: 0x2564, symBinAddr: 0x4D7C0, symSize: 0x5C }
  - { offset: 0xEA616, size: 0x8, addend: 0x0, symName: '__ZN4core3ptr48drop_in_place$LT$std..os..fd..owned..OwnedFd$GT$17h2eb3c9d9ea724bedE', symObjAddr: 0x25C0, symBinAddr: 0x4D81C, symSize: 0x24 }
  - { offset: 0xEA645, size: 0x8, addend: 0x0, symName: '__ZN4core3ptr48drop_in_place$LT$std..sys..fs..unix..ReadDir$GT$17h8aab2b30cddde674E', symObjAddr: 0x25E4, symBinAddr: 0x4D840, symSize: 0x24 }
  - { offset: 0xEA674, size: 0x8, addend: 0x0, symName: '__ZN4core3ptr49drop_in_place$LT$std..sys..fd..unix..FileDesc$GT$17ha0ebc909a8fac100E', symObjAddr: 0x2608, symBinAddr: 0x4D864, symSize: 0x24 }
  - { offset: 0xEA6A3, size: 0x8, addend: 0x0, symName: '__ZN4core3ptr49drop_in_place$LT$std..sys..fs..unix..DirEntry$GT$17h0f377723af3daf10E', symObjAddr: 0x262C, symBinAddr: 0x4D888, symSize: 0x24 }
  - { offset: 0xEA6D2, size: 0x8, addend: 0x0, symName: '__ZN4core3ptr52drop_in_place$LT$$u5b$alloc..string..String$u5d$$GT$17h695dddd343cbe499E', symObjAddr: 0x2650, symBinAddr: 0x4D8AC, symSize: 0xC4 }
  - { offset: 0xEA701, size: 0x8, addend: 0x0, symName: '__ZN4core3ptr53drop_in_place$LT$$LP$u32$C$std..path..PathBuf$RP$$GT$17h381f7cd90547cccdE', symObjAddr: 0x2714, symBinAddr: 0x4D970, symSize: 0x24 }
  - { offset: 0xEA730, size: 0x8, addend: 0x0, symName: '__ZN4core3ptr53drop_in_place$LT$flash_expert..FlashExpertManager$GT$17h92ec4cc4f076954fE', symObjAddr: 0x2738, symBinAddr: 0x4D994, symSize: 0x60 }
  - { offset: 0xEA75F, size: 0x8, addend: 0x0, symName: '__ZN4core3ptr53drop_in_place$LT$flash_expert..cache..ExpertCache$GT$17h660d9583951a126fE', symObjAddr: 0x2798, symBinAddr: 0x4D9F4, symSize: 0x24 }
  - { offset: 0xEA78E, size: 0x8, addend: 0x0, symName: '__ZN4core3ptr54drop_in_place$LT$alloc..raw_vec..RawVec$LT$i32$GT$$GT$17h4430b1bb53632ee9E', symObjAddr: 0x27E0, symBinAddr: 0x4DA18, symSize: 0x24 }
  - { offset: 0xEA7BD, size: 0x8, addend: 0x0, symName: '__ZN4core3ptr54drop_in_place$LT$alloc..raw_vec..RawVec$LT$u32$GT$$GT$17h4675f9b4525ae38dE', symObjAddr: 0x2804, symBinAddr: 0x4DA3C, symSize: 0x24 }
  - { offset: 0xEA7EC, size: 0x8, addend: 0x0, symName: '__ZN4core3ptr552drop_in_place$LT$core..iter..adapters..map..map_fold$LT$$RF$serde_json..value..Value$C$usize$C$$LP$$RP$$C$flash_expert..splitter..tensor_shape..$u7b$$u7b$closure$u7d$$u7d$$C$core..iter..traits..iterator..Iterator..for_each..call$LT$usize$C$alloc..vec..Vec$LT$usize$GT$..extend_trusted$LT$core..iter..adapters..map..Map$LT$core..slice..iter..Iter$LT$serde_json..value..Value$GT$$C$flash_expert..splitter..tensor_shape..$u7b$$u7b$closure$u7d$$u7d$$GT$$GT$..$u7b$$u7b$closure$u7d$$u7d$$GT$..$u7b$$u7b$closure$u7d$$u7d$$GT$..$u7b$$u7b$closure$u7d$$u7d$$GT$17h64ff6b8921ab240dE', symObjAddr: 0x2828, symBinAddr: 0x4DA60, symSize: 0x24 }
  - { offset: 0xEA81B, size: 0x8, addend: 0x0, symName: '__ZN4core3ptr577drop_in_place$LT$rayon..iter..map..MapFolder$LT$rayon..iter..map..MapFolder$LT$rayon..iter..while_some..WhileSomeFolder$LT$rayon..iter..extend..ListVecFolder$LT$flash_expert..expert_store..ExpertData$GT$$GT$$C$rayon..result..$LT$impl$u20$rayon..iter..FromParallelIterator$LT$core..result..Result$LT$T$C$E$GT$$GT$$u20$for$u20$core..result..Result$LT$C$C$E$GT$$GT$..from_par_iter..ok$LT$flash_expert..expert_store..ExpertData$C$std..io..error..Error$GT$..$u7b$$u7b$closure$u7d$$u7d$$GT$$C$flash_expert..expert_store..ExpertStore..load_experts..$u7b$$u7b$closure$u7d$$u7d$$GT$$GT$17h9ed3dd5351815dbdE', symObjAddr: 0x284C, symBinAddr: 0x4DA84, symSize: 0x24 }
  - { offset: 0xEA84A, size: 0x8, addend: 0x0, symName: '__ZN4core3ptr57drop_in_place$LT$serde_json..value..ser..SerializeMap$GT$17h29852a11bc246b06E', symObjAddr: 0x2870, symBinAddr: 0x4DAA8, symSize: 0x64 }
  - { offset: 0xEA879, size: 0x8, addend: 0x0, symName: '__ZN4core3ptr57drop_in_place$LT$serde_json..value..ser..SerializeVec$GT$17h07f8fb2309bac241E', symObjAddr: 0x28D4, symBinAddr: 0x4DB0C, symSize: 0x24 }
  - { offset: 0xEA8A8, size: 0x8, addend: 0x0, symName: '__ZN4core3ptr588drop_in_place$LT$rayon..iter..map..MapFolder$LT$rayon..iter..map..MapFolder$LT$rayon..iter..while_some..WhileSomeFolder$LT$rayon..iter..collect..consumer..CollectResult$LT$flash_expert..expert_store..ExpertData$GT$$GT$$C$rayon..result..$LT$impl$u20$rayon..iter..FromParallelIterator$LT$core..result..Result$LT$T$C$E$GT$$GT$$u20$for$u20$core..result..Result$LT$C$C$E$GT$$GT$..from_par_iter..ok$LT$flash_expert..expert_store..ExpertData$C$std..io..error..Error$GT$..$u7b$$u7b$closure$u7d$$u7d$$GT$$C$flash_expert..expert_store..ExpertStore..load_experts..$u7b$$u7b$closure$u7d$$u7d$$GT$$GT$17h6328abd09f7cc620E', symObjAddr: 0x28F8, symBinAddr: 0x4DB30, symSize: 0x24 }
  - { offset: 0xEA8D7, size: 0x8, addend: 0x0, symName: '__ZN4core3ptr59drop_in_place$LT$flash_expert..expert_store..ExpertData$GT$17h56edb01e64712572E', symObjAddr: 0x291C, symBinAddr: 0x4DB54, symSize: 0x24 }
  - { offset: 0xEA906, size: 0x8, addend: 0x0, symName: '__ZN4core3ptr60drop_in_place$LT$flash_expert..expert_store..ExpertStore$GT$17he6d2f31d50fcad15E', symObjAddr: 0x2940, symBinAddr: 0x4DB78, symSize: 0xB8 }
  - { offset: 0xEA935, size: 0x8, addend: 0x0, symName: '__ZN4core3ptr62drop_in_place$LT$core..option..Option$LT$memmap2..Mmap$GT$$GT$17h1c3c7634cc66fbffE', symObjAddr: 0x2A1C, symBinAddr: 0x4DC30, symSize: 0x40 }
  - { offset: 0xEA964, size: 0x8, addend: 0x0, symName: '__ZN4core3ptr63drop_in_place$LT$$u5b$$LP$u32$C$std..path..PathBuf$RP$$u5d$$GT$17h5e1490d3085a0e33E', symObjAddr: 0x2A5C, symBinAddr: 0x4DC70, symSize: 0xB4 }
  - { offset: 0xEA993, size: 0x8, addend: 0x0, symName: '__ZN4core3ptr65drop_in_place$LT$alloc..vec..Vec$LT$alloc..string..String$GT$$GT$17he6385eb0ddc84830E', symObjAddr: 0x2B10, symBinAddr: 0x4DD24, symSize: 0x5C }
  - { offset: 0xEA9C2, size: 0x8, addend: 0x0, symName: '__ZN4core3ptr66drop_in_place$LT$$LP$alloc..string..String$C$memmap2..Mmap$RP$$GT$17hae0ba206c724d78bE', symObjAddr: 0x2B6C, symBinAddr: 0x4DD80, symSize: 0x60 }
  - { offset: 0xEA9F1, size: 0x8, addend: 0x0, symName: '__ZN4core3ptr69drop_in_place$LT$$u5b$flash_expert..expert_store..ExpertData$u5d$$GT$17h7a84dd3004fc5795E', symObjAddr: 0x2BCC, symBinAddr: 0x4DDE0, symSize: 0xB4 }
  - { offset: 0xEAA20, size: 0x8, addend: 0x0, symName: '__ZN4core3ptr69drop_in_place$LT$alloc..borrow..Cow$LT$core..ffi..c_str..CStr$GT$$GT$17h5c5db0933ba0dcfbE', symObjAddr: 0x2C80, symBinAddr: 0x4DE94, symSize: 0x40 }
  - { offset: 0xEAA4F, size: 0x8, addend: 0x0, symName: '__ZN4core3ptr70drop_in_place$LT$core..option..Option$LT$std..io..error..Error$GT$$GT$17h0d2497c9d6df5590E', symObjAddr: 0x2D1C, symBinAddr: 0x4DED4, symSize: 0x44 }
  - { offset: 0xEAA7E, size: 0x8, addend: 0x0, symName: '__ZN4core3ptr71drop_in_place$LT$core..array..iter..IntoIter$LT$usize$C$2_usize$GT$$GT$17ha12fbaf9d39e9eb0E', symObjAddr: 0x2D60, symBinAddr: 0x4DF18, symSize: 0x24 }
  - { offset: 0xEAAAD, size: 0x8, addend: 0x0, symName: '__ZN4core3ptr71drop_in_place$LT$core..result..Result$LT$u32$C$pyo3..err..PyErr$GT$$GT$17h1a6e723b10926307E', symObjAddr: 0x2D84, symBinAddr: 0x4DF3C, symSize: 0x40 }
  - { offset: 0xEAADC, size: 0x8, addend: 0x0, symName: '__ZN4core3ptr72drop_in_place$LT$alloc..raw_vec..RawVec$LT$alloc..string..String$GT$$GT$17h48e9ae2ae7d00ad8E', symObjAddr: 0x2DC4, symBinAddr: 0x4DF7C, symSize: 0x24 }
  - { offset: 0xEAB0B, size: 0x8, addend: 0x0, symName: '__ZN4core3ptr73drop_in_place$LT$core..result..Result$LT$usize$C$pyo3..err..PyErr$GT$$GT$17h1b46c3582b335f31E', symObjAddr: 0x2DE8, symBinAddr: 0x4DFA0, symSize: 0x40 }
  - { offset: 0xEAB3A, size: 0x8, addend: 0x0, symName: '__ZN4core3ptr74drop_in_place$LT$flash_expert..splitter..write_layer_experts..ProjData$GT$17haa096142a51efa9aE', symObjAddr: 0x2E28, symBinAddr: 0x4DFE0, symSize: 0x120 }
  - { offset: 0xEAB69, size: 0x8, addend: 0x0, symName: '__ZN4core3ptr76drop_in_place$LT$alloc..vec..Vec$LT$$LP$u32$C$std..path..PathBuf$RP$$GT$$GT$17h8961a000a0066b33E', symObjAddr: 0x2F6C, symBinAddr: 0x4E100, symSize: 0x5C }
  - { offset: 0xEAB98, size: 0x8, addend: 0x0, symName: '__ZN4core3ptr77drop_in_place$LT$alloc..sync..Arc$LT$std..sys..fs..unix..InnerReadDir$GT$$GT$17h273271699abf82f3E', symObjAddr: 0x2FC8, symBinAddr: 0x4E15C, symSize: 0x24 }
  - { offset: 0xEABC7, size: 0x8, addend: 0x0, symName: '__ZN4core3ptr79drop_in_place$LT$pyo3..instance..Py$LT$flash_expert..FlashExpertManager$GT$$GT$17h8ce07567d8b19472E', symObjAddr: 0x2FEC, symBinAddr: 0x4E180, symSize: 0x2C }
  - { offset: 0xEABF6, size: 0x8, addend: 0x0, symName: '__ZN4core3ptr80drop_in_place$LT$pyo3..pycell..PyRef$LT$flash_expert..FlashExpertManager$GT$$GT$17he4abe6a881dbccbdE', symObjAddr: 0x30A8, symBinAddr: 0x4E1AC, symSize: 0x5C }
  - { offset: 0xEAC25, size: 0x8, addend: 0x0, symName: '__ZN4core3ptr82drop_in_place$LT$alloc..vec..Vec$LT$flash_expert..expert_store..ExpertData$GT$$GT$17heed9df6958bcf7a7E', symObjAddr: 0x3104, symBinAddr: 0x4E208, symSize: 0x5C }
  - { offset: 0xEAC54, size: 0x8, addend: 0x0, symName: '__ZN4core3ptr82drop_in_place$LT$pyo3..instance..Bound$LT$flash_expert..FlashExpertManager$GT$$GT$17h2116703518e62be9E', symObjAddr: 0x3160, symBinAddr: 0x4E264, symSize: 0x24 }
  - { offset: 0xEAC83, size: 0x8, addend: 0x0, symName: '__ZN4core3ptr83drop_in_place$LT$alloc..raw_vec..RawVec$LT$$LP$u32$C$std..path..PathBuf$RP$$GT$$GT$17h566d5037a9c1f45dE', symObjAddr: 0x3184, symBinAddr: 0x4E288, symSize: 0x24 }
  - { offset: 0xEACB2, size: 0x8, addend: 0x0, symName: '__ZN4core3ptr83drop_in_place$LT$alloc..sync..Arc$LT$flash_expert..expert_store..ExpertData$GT$$GT$17h26abd18554e23cc7E', symObjAddr: 0x31A8, symBinAddr: 0x4E2AC, symSize: 0x24 }
  - { offset: 0xEACE1, size: 0x8, addend: 0x0, symName: '__ZN4core3ptr83drop_in_place$LT$core..cell..UnsafeCell$LT$flash_expert..FlashExpertManager$GT$$GT$17h99e47b6d7ea5e98bE', symObjAddr: 0x31CC, symBinAddr: 0x4E2D0, symSize: 0x24 }
  - { offset: 0xEAD10, size: 0x8, addend: 0x0, symName: '__ZN4core3ptr83drop_in_place$LT$core..cell..UnsafeCell$LT$flash_expert..cache..ExpertCache$GT$$GT$17hd25194bda4263ea5E', symObjAddr: 0x31F0, symBinAddr: 0x4E2F4, symSize: 0x24 }
  - { offset: 0xEAD3F, size: 0x8, addend: 0x0, symName: '__ZN4core3ptr84drop_in_place$LT$$u5b$flash_expert..splitter..write_layer_experts..ProjData$u5d$$GT$17h9e55a1d369d96815E', symObjAddr: 0x3214, symBinAddr: 0x4E318, symSize: 0xC4 }
  - { offset: 0xEAD6E, size: 0x8, addend: 0x0, symName: '__ZN4core3ptr84drop_in_place$LT$serde_json..de..Deserializer$LT$serde_json..read..SliceRead$GT$$GT$17heacb5210cb508664E', symObjAddr: 0x32D8, symBinAddr: 0x4E3DC, symSize: 0x24 }
  - { offset: 0xEAD9D, size: 0x8, addend: 0x0, symName: '__ZN4core3ptr86drop_in_place$LT$core..ops..control_flow..ControlFlow$LT$alloc..string..String$GT$$GT$17hb78b6ffefbccc813E', symObjAddr: 0x32FC, symBinAddr: 0x4E400, symSize: 0x48 }
  - { offset: 0xEADCC, size: 0x8, addend: 0x0, symName: '__ZN4core3ptr87drop_in_place$LT$core..option..Option$LT$flash_expert..expert_store..ExpertData$GT$$GT$17he39eb78b8a0aa42fE', symObjAddr: 0x3344, symBinAddr: 0x4E448, symSize: 0x48 }
  - { offset: 0xEADFB, size: 0x8, addend: 0x0, symName: '__ZN4core3ptr88drop_in_place$LT$alloc..sync..ArcInner$LT$flash_expert..expert_store..ExpertData$GT$$GT$17h14bf6dcb76b6a69dE', symObjAddr: 0x338C, symBinAddr: 0x4E490, symSize: 0x24 }
  - { offset: 0xEAE2A, size: 0x8, addend: 0x0, symName: '__ZN4core3ptr88drop_in_place$LT$alloc..vec..Vec$LT$flash_expert..expert_store..ExpertFileHeader$GT$$GT$17h0afe27bd5980b8e1E', symObjAddr: 0x33B0, symBinAddr: 0x4E4B4, symSize: 0x5C }
  - { offset: 0xEAE59, size: 0x8, addend: 0x0, symName: '__ZN4core3ptr89drop_in_place$LT$alloc..raw_vec..RawVec$LT$flash_expert..expert_store..ExpertData$GT$$GT$17hde74edfd5b970096E', symObjAddr: 0x340C, symBinAddr: 0x4E510, symSize: 0x24 }
  - { offset: 0xEAE88, size: 0x8, addend: 0x0, symName: '__ZN4core3ptr90drop_in_place$LT$core..result..Result$LT$std..fs..Metadata$C$std..io..error..Error$GT$$GT$17h56cb5fb5c05f9cc7E', symObjAddr: 0x3430, symBinAddr: 0x4E534, symSize: 0x40 }
  - { offset: 0xEAEB7, size: 0x8, addend: 0x0, symName: '__ZN4core3ptr91drop_in_place$LT$core..result..Result$LT$$LP$u64$C$u64$C$f64$RP$$C$pyo3..err..PyErr$GT$$GT$17h6efda2e61d81d733E', symObjAddr: 0x3470, symBinAddr: 0x4E574, symSize: 0x40 }
  - { offset: 0xEAEE6, size: 0x8, addend: 0x0, symName: '__ZN4core3ptr92drop_in_place$LT$std..sync..poison..mutex..Mutex$LT$flash_expert..cache..ExpertCache$GT$$GT$17h2152383a899a1fc7E', symObjAddr: 0x34B0, symBinAddr: 0x4E5B4, symSize: 0x60 }
  - { offset: 0xEAF15, size: 0x8, addend: 0x0, symName: '__ZN4core3ptr93drop_in_place$LT$$u5b$alloc..sync..Arc$LT$flash_expert..expert_store..ExpertData$GT$$u5d$$GT$17h609305e5d63165d3E', symObjAddr: 0x3510, symBinAddr: 0x4E614, symSize: 0xB4 }
  - { offset: 0xEAF44, size: 0x8, addend: 0x0, symName: '__ZN4core3ptr94drop_in_place$LT$core..array..iter..IntoIter$LT$$RF$$u5b$u32$u3b$$u20$2$u5d$$C$6_usize$GT$$GT$17h8dde00123c78aa60E', symObjAddr: 0x35C4, symBinAddr: 0x4E6C8, symSize: 0x24 }
  - { offset: 0xEAF73, size: 0x8, addend: 0x0, symName: '__ZN4core3ptr94drop_in_place$LT$core..slice..sort..stable..merge..MergeState$LT$alloc..string..String$GT$$GT$17hb29bf5090d5b975aE', symObjAddr: 0x35E8, symBinAddr: 0x4E6EC, symSize: 0x24 }
  - { offset: 0xEAFA2, size: 0x8, addend: 0x0, symName: '__ZN4core3ptr95drop_in_place$LT$alloc..raw_vec..RawVec$LT$flash_expert..expert_store..ExpertFileHeader$GT$$GT$17h101464bef3cdcfbdE', symObjAddr: 0x360C, symBinAddr: 0x4E710, symSize: 0x24 }
  - { offset: 0xEAFD1, size: 0x8, addend: 0x0, symName: '__ZN4core3ptr97drop_in_place$LT$alloc..vec..Vec$LT$flash_expert..splitter..write_layer_experts..ProjData$GT$$GT$17heb4520e26d131d60E', symObjAddr: 0x3630, symBinAddr: 0x4E734, symSize: 0x5C }
  - { offset: 0xEB000, size: 0x8, addend: 0x0, symName: '__ZN4core3ptr97drop_in_place$LT$core..option..Option$LT$alloc..borrow..Cow$LT$core..ffi..c_str..CStr$GT$$GT$$GT$17h603064f0c4098a9dE', symObjAddr: 0x368C, symBinAddr: 0x4E790, symSize: 0x44 }
  - { offset: 0xEB02F, size: 0x8, addend: 0x0, symName: '__ZN4core3ptr97drop_in_place$LT$std..sync..poison..mutex..MutexGuard$LT$flash_expert..cache..ExpertCache$GT$$GT$17h4782168eee2d5146E', symObjAddr: 0x36D0, symBinAddr: 0x4E7D4, symSize: 0x24 }
  - { offset: 0xEB05E, size: 0x8, addend: 0x0, symName: '__ZN4core3ptr98drop_in_place$LT$alloc..vec..into_iter..IntoIter$LT$flash_expert..expert_store..ExpertData$GT$$GT$17h935dafce0f746476E', symObjAddr: 0x36F4, symBinAddr: 0x4E7F8, symSize: 0x24 }
  - { offset: 0xEB08D, size: 0x8, addend: 0x0, symName: '__ZN4core3ptr98drop_in_place$LT$core..slice..sort..shared..smallsort..CopyOnDrop$LT$alloc..string..String$GT$$GT$17hcabd57970777fc1fE', symObjAddr: 0x3718, symBinAddr: 0x4E81C, symSize: 0x24 }
  - { offset: 0xEB0BC, size: 0x8, addend: 0x0, symName: '__ZN4core3ptr98drop_in_place$LT$hashbrown..raw..RawTable$LT$$LP$alloc..string..String$C$memmap2..Mmap$RP$$GT$$GT$17h1009b2b2cc50235dE', symObjAddr: 0x373C, symBinAddr: 0x4E840, symSize: 0x24 }
  - { offset: 0xEB0EB, size: 0x8, addend: 0x0, symName: '__ZN4core3ptr99drop_in_place$LT$pyo3..pyclass_init..PyClassInitializer$LT$flash_expert..FlashExpertManager$GT$$GT$17h42432706f73fd855E', symObjAddr: 0x3784, symBinAddr: 0x4E864, symSize: 0x24 }
  - { offset: 0xEB648, size: 0x8, addend: 0x0, symName: __ZN4core6marker5FnPtr4addr17h11240934cfce521dE, symObjAddr: 0x37A8, symBinAddr: 0x4E888, symSize: 0x14 }
  - { offset: 0xECBE8, size: 0x8, addend: 0x0, symName: __ZN4core3ops8function5FnMut8call_mut17h0ce8f3da7a9738b6E, symObjAddr: 0x4A4, symBinAddr: 0x4B85C, symSize: 0x30 }
  - { offset: 0xECC2C, size: 0x8, addend: 0x0, symName: __ZN4core3ops8function5FnMut8call_mut17hc74dc00441205fcaE, symObjAddr: 0x4D4, symBinAddr: 0x4B88C, symSize: 0x68 }
  - { offset: 0xECC8D, size: 0x8, addend: 0x0, symName: __ZN4core3ops8function5FnMut8call_mut17hf5c96133e8a18e9aE, symObjAddr: 0x53C, symBinAddr: 0x4B8F4, symSize: 0x28 }
  - { offset: 0xECCD7, size: 0x8, addend: 0x0, symName: '__ZN4core3ops8function6FnOnce40call_once$u7b$$u7b$vtable.shim$u7d$$u7d$17h001d7997d3e48a00E', symObjAddr: 0x564, symBinAddr: 0x4B91C, symSize: 0x38 }
  - { offset: 0xECD1B, size: 0x8, addend: 0x0, symName: '__ZN4core3ops8function6FnOnce40call_once$u7b$$u7b$vtable.shim$u7d$$u7d$17h28bbc4d9f4b76c58E', symObjAddr: 0x59C, symBinAddr: 0x4B954, symSize: 0x38 }
  - { offset: 0xECD5F, size: 0x8, addend: 0x0, symName: '__ZN4core3ops8function6FnOnce40call_once$u7b$$u7b$vtable.shim$u7d$$u7d$17h400fca49a1f919deE', symObjAddr: 0x5D4, symBinAddr: 0x4B98C, symSize: 0x38 }
  - { offset: 0xECDA3, size: 0x8, addend: 0x0, symName: '__ZN4core3ops8function6FnOnce40call_once$u7b$$u7b$vtable.shim$u7d$$u7d$17h412cc6a77cd38a76E', symObjAddr: 0x60C, symBinAddr: 0x4B9C4, symSize: 0x38 }
  - { offset: 0xECDE7, size: 0x8, addend: 0x0, symName: '__ZN4core3ops8function6FnOnce40call_once$u7b$$u7b$vtable.shim$u7d$$u7d$17h4c42e7c441a28ea9E', symObjAddr: 0x644, symBinAddr: 0x4B9FC, symSize: 0x38 }
  - { offset: 0xECE2B, size: 0x8, addend: 0x0, symName: '__ZN4core3ops8function6FnOnce40call_once$u7b$$u7b$vtable.shim$u7d$$u7d$17h5a1b4c69a16fd401E', symObjAddr: 0x67C, symBinAddr: 0x4BA34, symSize: 0x38 }
  - { offset: 0xECE6F, size: 0x8, addend: 0x0, symName: '__ZN4core3ops8function6FnOnce40call_once$u7b$$u7b$vtable.shim$u7d$$u7d$17h657e6b962ba27b24E', symObjAddr: 0x6B4, symBinAddr: 0x4BA6C, symSize: 0x38 }
  - { offset: 0xECEB3, size: 0x8, addend: 0x0, symName: '__ZN4core3ops8function6FnOnce40call_once$u7b$$u7b$vtable.shim$u7d$$u7d$17h989320e27c385f3aE', symObjAddr: 0x6EC, symBinAddr: 0x4BAA4, symSize: 0x38 }
  - { offset: 0xECEF7, size: 0x8, addend: 0x0, symName: '__ZN4core3ops8function6FnOnce40call_once$u7b$$u7b$vtable.shim$u7d$$u7d$17ha96d26488857ff30E', symObjAddr: 0x724, symBinAddr: 0x4BADC, symSize: 0x24 }
  - { offset: 0xECF3B, size: 0x8, addend: 0x0, symName: '__ZN4core3ops8function6FnOnce40call_once$u7b$$u7b$vtable.shim$u7d$$u7d$17ha9c9245b6cd0aa14E', symObjAddr: 0x748, symBinAddr: 0x4BB00, symSize: 0x30 }
  - { offset: 0xECF7B, size: 0x8, addend: 0x0, symName: '__ZN4core3ops8function6FnOnce40call_once$u7b$$u7b$vtable.shim$u7d$$u7d$17haf0cf27edff90f31E', symObjAddr: 0x778, symBinAddr: 0x4BB30, symSize: 0x38 }
  - { offset: 0xECFBF, size: 0x8, addend: 0x0, symName: '__ZN4core3ops8function6FnOnce40call_once$u7b$$u7b$vtable.shim$u7d$$u7d$17hbe76c7e5c6e2b490E', symObjAddr: 0x7B0, symBinAddr: 0x4BB68, symSize: 0x38 }
  - { offset: 0xED003, size: 0x8, addend: 0x0, symName: '__ZN4core3ops8function6FnOnce40call_once$u7b$$u7b$vtable.shim$u7d$$u7d$17hf62abb0073ba2aa6E', symObjAddr: 0x7E8, symBinAddr: 0x4BBA0, symSize: 0x38 }
  - { offset: 0xED047, size: 0x8, addend: 0x0, symName: '__ZN4core3ops8function6FnOnce40call_once$u7b$$u7b$vtable.shim$u7d$$u7d$17hff17cadbfdb6a4e5E', symObjAddr: 0x820, symBinAddr: 0x4BBD8, symSize: 0x38 }
  - { offset: 0xED08B, size: 0x8, addend: 0x0, symName: __ZN4core3ops8function6FnOnce9call_once17h0269175368ef048aE, symObjAddr: 0x858, symBinAddr: 0x4BC10, symSize: 0x58 }
  - { offset: 0xED0CF, size: 0x8, addend: 0x0, symName: __ZN4core3ops8function6FnOnce9call_once17h0386596598045bdcE, symObjAddr: 0x8B0, symBinAddr: 0x4BC68, symSize: 0x58 }
  - { offset: 0xED113, size: 0x8, addend: 0x0, symName: __ZN4core3ops8function6FnOnce9call_once17h04d0f1f25b9e49caE, symObjAddr: 0x908, symBinAddr: 0x4BCC0, symSize: 0x24 }
  - { offset: 0xED157, size: 0x8, addend: 0x0, symName: __ZN4core3ops8function6FnOnce9call_once17h0729f890a6a396f4E, symObjAddr: 0x92C, symBinAddr: 0x4BCE4, symSize: 0x4C }
  - { offset: 0xED19B, size: 0x8, addend: 0x0, symName: __ZN4core3ops8function6FnOnce9call_once17h08b22bc4d759acbeE, symObjAddr: 0x978, symBinAddr: 0x4BD30, symSize: 0x58 }
  - { offset: 0xED1DF, size: 0x8, addend: 0x0, symName: __ZN4core3ops8function6FnOnce9call_once17h1dfa8fec21635959E, symObjAddr: 0x9D0, symBinAddr: 0x4BD88, symSize: 0x58 }
  - { offset: 0xED223, size: 0x8, addend: 0x0, symName: __ZN4core3ops8function6FnOnce9call_once17h1f20dcb8c3167abbE, symObjAddr: 0xA28, symBinAddr: 0x4BDE0, symSize: 0x4C }
  - { offset: 0xED263, size: 0x8, addend: 0x0, symName: __ZN4core3ops8function6FnOnce9call_once17h218be42e99586de1E, symObjAddr: 0xA74, symBinAddr: 0x4BE2C, symSize: 0x44 }
  - { offset: 0xED2A3, size: 0x8, addend: 0x0, symName: __ZN4core3ops8function6FnOnce9call_once17h361c15eb9f51f143E, symObjAddr: 0xADC, symBinAddr: 0x4BE70, symSize: 0x58 }
  - { offset: 0xED2E7, size: 0x8, addend: 0x0, symName: __ZN4core3ops8function6FnOnce9call_once17h3dfe087bc0b49493E, symObjAddr: 0xB34, symBinAddr: 0x4BEC8, symSize: 0x4C }
  - { offset: 0xED32B, size: 0x8, addend: 0x0, symName: __ZN4core3ops8function6FnOnce9call_once17h406d08eda4b4e653E, symObjAddr: 0xB80, symBinAddr: 0x4BF14, symSize: 0x5C }
  - { offset: 0xED36F, size: 0x8, addend: 0x0, symName: __ZN4core3ops8function6FnOnce9call_once17h56c7934ff2f5134bE, symObjAddr: 0xBDC, symBinAddr: 0x4BF70, symSize: 0x44 }
  - { offset: 0xED3AF, size: 0x8, addend: 0x0, symName: __ZN4core3ops8function6FnOnce9call_once17h5755e571c91acd88E, symObjAddr: 0xC20, symBinAddr: 0x4BFB4, symSize: 0x5C }
  - { offset: 0xED3F3, size: 0x8, addend: 0x0, symName: __ZN4core3ops8function6FnOnce9call_once17h7778c02d33018448E, symObjAddr: 0xC7C, symBinAddr: 0x4C010, symSize: 0x24 }
  - { offset: 0xED437, size: 0x8, addend: 0x0, symName: __ZN4core3ops8function6FnOnce9call_once17h791d21d4fb631fc7E, symObjAddr: 0xCA0, symBinAddr: 0x4C034, symSize: 0x4C }
  - { offset: 0xED47B, size: 0x8, addend: 0x0, symName: __ZN4core3ops8function6FnOnce9call_once17h8ceb120428b5dc07E, symObjAddr: 0xCEC, symBinAddr: 0x4C080, symSize: 0x24 }
  - { offset: 0xED4BF, size: 0x8, addend: 0x0, symName: __ZN4core3ops8function6FnOnce9call_once17h9c61c9ab33d9d7f1E, symObjAddr: 0xD10, symBinAddr: 0x4C0A4, symSize: 0x24 }
  - { offset: 0xED503, size: 0x8, addend: 0x0, symName: __ZN4core3ops8function6FnOnce9call_once17ha361c6bc4c178968E, symObjAddr: 0xD34, symBinAddr: 0x4C0C8, symSize: 0x5C }
  - { offset: 0xED547, size: 0x8, addend: 0x0, symName: __ZN4core3ops8function6FnOnce9call_once17hb57d49f153061c42E, symObjAddr: 0xD90, symBinAddr: 0x4C124, symSize: 0x44 }
  - { offset: 0xED587, size: 0x8, addend: 0x0, symName: __ZN4core3ops8function6FnOnce9call_once17hcac9698c92820744E, symObjAddr: 0xDD4, symBinAddr: 0x4C168, symSize: 0x58 }
  - { offset: 0xED5CB, size: 0x8, addend: 0x0, symName: __ZN4core3ops8function6FnOnce9call_once17hcc32acc168becd9cE, symObjAddr: 0xE2C, symBinAddr: 0x4C1C0, symSize: 0x58 }
  - { offset: 0xED60F, size: 0x8, addend: 0x0, symName: __ZN4core3ops8function6FnOnce9call_once17hdf067117704a345fE, symObjAddr: 0xE84, symBinAddr: 0x4C218, symSize: 0x2C }
  - { offset: 0xED653, size: 0x8, addend: 0x0, symName: __ZN4core3ops8function6FnOnce9call_once17he5ac9fd3931f2af2E, symObjAddr: 0xEB0, symBinAddr: 0x4C244, symSize: 0x58 }
  - { offset: 0xED697, size: 0x8, addend: 0x0, symName: __ZN4core3ops8function6FnOnce9call_once17hf38342c8da81637fE, symObjAddr: 0xF08, symBinAddr: 0x4C29C, symSize: 0x3C }
  - { offset: 0xED6DB, size: 0x8, addend: 0x0, symName: __ZN4core3ops8function6FnOnce9call_once17hfeaa10123f339405E, symObjAddr: 0xF44, symBinAddr: 0x4C2D8, symSize: 0x5C }
  - { offset: 0xED71F, size: 0x8, addend: 0x0, symName: __ZN4core3ops8function6FnOnce9call_once17hfecda1c87fb94b42E, symObjAddr: 0xFA0, symBinAddr: 0x4C334, symSize: 0x48 }
  - { offset: 0xEE036, size: 0x8, addend: 0x0, symName: '__ZN82_$LT$core..array..iter..IntoIter$LT$T$C$_$GT$$u20$as$u20$core..ops..drop..Drop$GT$4drop17h517352bf3c7f93b5E', symObjAddr: 0x445C, symBinAddr: 0x4F420, symSize: 0x14 }
  - { offset: 0xEE069, size: 0x8, addend: 0x0, symName: '__ZN82_$LT$core..array..iter..IntoIter$LT$T$C$_$GT$$u20$as$u20$core..ops..drop..Drop$GT$4drop17hc7422c527a8affd9E', symObjAddr: 0x4470, symBinAddr: 0x4F434, symSize: 0x14 }
  - { offset: 0xEE09C, size: 0x8, addend: 0x0, symName: '__ZN82_$LT$core..array..iter..IntoIter$LT$T$C$_$GT$$u20$as$u20$core..ops..drop..Drop$GT$4drop17hf0436a674f75ab4aE', symObjAddr: 0x4484, symBinAddr: 0x4F448, symSize: 0x14 }
  - { offset: 0xEE1ED, size: 0x8, addend: 0x0, symName: '__ZN95_$LT$core..slice..sort..stable..merge..MergeState$LT$T$GT$$u20$as$u20$core..ops..drop..Drop$GT$4drop17h5c1a335be34a6034E', symObjAddr: 0x4744, symBinAddr: 0x4F708, symSize: 0xF4 }
  - { offset: 0xEE2E3, size: 0x8, addend: 0x0, symName: '__ZN95_$LT$core..slice..sort..stable..merge..MergeState$LT$T$GT$$u20$as$u20$core..ops..drop..Drop$GT$4drop17he856de9ac503762cE', symObjAddr: 0x4838, symBinAddr: 0x4F7FC, symSize: 0xF0 }
  - { offset: 0xEE3D9, size: 0x8, addend: 0x0, symName: '__ZN95_$LT$core..slice..sort..stable..merge..MergeState$LT$T$GT$$u20$as$u20$core..ops..drop..Drop$GT$4drop17hf829d8c4e2b71280E', symObjAddr: 0x4928, symBinAddr: 0x4F8EC, symSize: 0xF4 }
  - { offset: 0xEE583, size: 0x8, addend: 0x0, symName: '__ZN99_$LT$core..slice..sort..shared..smallsort..CopyOnDrop$LT$T$GT$$u20$as$u20$core..ops..drop..Drop$GT$4drop17h47c858cd0279f6aaE', symObjAddr: 0x4C74, symBinAddr: 0x4FBE4, symSize: 0x8C }
  - { offset: 0xEE5E4, size: 0x8, addend: 0x0, symName: '__ZN99_$LT$core..slice..sort..shared..smallsort..CopyOnDrop$LT$T$GT$$u20$as$u20$core..ops..drop..Drop$GT$4drop17ha72004c3b1f0c690E', symObjAddr: 0x4D00, symBinAddr: 0x4FC70, symSize: 0x88 }
  - { offset: 0xEE645, size: 0x8, addend: 0x0, symName: '__ZN99_$LT$core..slice..sort..shared..smallsort..CopyOnDrop$LT$T$GT$$u20$as$u20$core..ops..drop..Drop$GT$4drop17hfc36b32330ec7bfdE', symObjAddr: 0x4D88, symBinAddr: 0x4FCF8, symSize: 0x8C }
  - { offset: 0xEF1FA, size: 0x8, addend: 0x0, symName: '__ZN69_$LT$std..os..fd..owned..OwnedFd$u20$as$u20$core..ops..drop..Drop$GT$4drop17hee95cfab015d7fcbE', symObjAddr: 0x37E4, symBinAddr: 0x4E8C4, symSize: 0x40 }
  - { offset: 0xEF4F2, size: 0x8, addend: 0x0, symName: '__ZN87_$LT$std..sync..poison..mutex..MutexGuard$LT$T$GT$$u20$as$u20$core..ops..drop..Drop$GT$4drop17h92fc96821870671bE', symObjAddr: 0x45FC, symBinAddr: 0x4F5C0, symSize: 0x58 }
  - { offset: 0xEF570, size: 0x8, addend: 0x0, symName: '__ZN87_$LT$std..sync..poison..mutex..MutexGuard$LT$T$GT$$u20$as$u20$core..ops..drop..Drop$GT$4drop17he3c5737ffc38f548E', symObjAddr: 0x4654, symBinAddr: 0x4F618, symSize: 0x58 }
  - { offset: 0xF0363, size: 0x8, addend: 0x0, symName: '__ZN77_$LT$alloc..raw_vec..RawVec$LT$T$C$A$GT$$u20$as$u20$core..ops..drop..Drop$GT$4drop17h029686d8226472c8E', symObjAddr: 0x4044, symBinAddr: 0x4F038, symSize: 0x30 }
  - { offset: 0xF039F, size: 0x8, addend: 0x0, symName: '__ZN77_$LT$alloc..raw_vec..RawVec$LT$T$C$A$GT$$u20$as$u20$core..ops..drop..Drop$GT$4drop17h1248e01f9cef4945E', symObjAddr: 0x4074, symBinAddr: 0x4F068, symSize: 0x34 }
  - { offset: 0xF03DB, size: 0x8, addend: 0x0, symName: '__ZN77_$LT$alloc..raw_vec..RawVec$LT$T$C$A$GT$$u20$as$u20$core..ops..drop..Drop$GT$4drop17h3684296fddaa1eceE', symObjAddr: 0x40A8, symBinAddr: 0x4F09C, symSize: 0x34 }
  - { offset: 0xF0417, size: 0x8, addend: 0x0, symName: '__ZN77_$LT$alloc..raw_vec..RawVec$LT$T$C$A$GT$$u20$as$u20$core..ops..drop..Drop$GT$4drop17h60c3b8606e0adc79E', symObjAddr: 0x40DC, symBinAddr: 0x4F0D0, symSize: 0x34 }
  - { offset: 0xF0453, size: 0x8, addend: 0x0, symName: '__ZN77_$LT$alloc..raw_vec..RawVec$LT$T$C$A$GT$$u20$as$u20$core..ops..drop..Drop$GT$4drop17h79664b08ab75c6ffE', symObjAddr: 0x4110, symBinAddr: 0x4F104, symSize: 0x30 }
  - { offset: 0xF048F, size: 0x8, addend: 0x0, symName: '__ZN77_$LT$alloc..raw_vec..RawVec$LT$T$C$A$GT$$u20$as$u20$core..ops..drop..Drop$GT$4drop17h8d9ec82a481c1ab0E', symObjAddr: 0x4140, symBinAddr: 0x4F134, symSize: 0x34 }
  - { offset: 0xF04CB, size: 0x8, addend: 0x0, symName: '__ZN77_$LT$alloc..raw_vec..RawVec$LT$T$C$A$GT$$u20$as$u20$core..ops..drop..Drop$GT$4drop17ha88127e2c72fce51E', symObjAddr: 0x4174, symBinAddr: 0x4F168, symSize: 0x30 }
  - { offset: 0xF0507, size: 0x8, addend: 0x0, symName: '__ZN77_$LT$alloc..raw_vec..RawVec$LT$T$C$A$GT$$u20$as$u20$core..ops..drop..Drop$GT$4drop17had833e5d3f6cb243E', symObjAddr: 0x41A4, symBinAddr: 0x4F198, symSize: 0x34 }
  - { offset: 0xF0543, size: 0x8, addend: 0x0, symName: '__ZN77_$LT$alloc..raw_vec..RawVec$LT$T$C$A$GT$$u20$as$u20$core..ops..drop..Drop$GT$4drop17hb57b3533b696579eE', symObjAddr: 0x41D8, symBinAddr: 0x4F1CC, symSize: 0x34 }
  - { offset: 0xF057F, size: 0x8, addend: 0x0, symName: '__ZN77_$LT$alloc..raw_vec..RawVec$LT$T$C$A$GT$$u20$as$u20$core..ops..drop..Drop$GT$4drop17he385f5d37f7e2c5fE', symObjAddr: 0x423C, symBinAddr: 0x4F200, symSize: 0x30 }
  - { offset: 0xF079A, size: 0x8, addend: 0x0, symName: '__ZN108_$LT$alloc..vec..Vec$LT$T$C$A$GT$..dedup_by..FillGapOnDrop$LT$T$C$A$GT$$u20$as$u20$core..ops..drop..Drop$GT$4drop17h43214012c5d976c4E', symObjAddr: 0x0, symBinAddr: 0x4B3B8, symSize: 0x1AC }
  - { offset: 0xF0A6E, size: 0x8, addend: 0x0, symName: '__ZN111_$LT$alloc..vec..in_place_drop..InPlaceDstDataSrcBufDrop$LT$Src$C$Dest$GT$$u20$as$u20$core..ops..drop..Drop$GT$4drop17h3dbd2fa94bf7ac19E', symObjAddr: 0x1AC, symBinAddr: 0x4B564, symSize: 0xB4 }
  - { offset: 0xF0BF0, size: 0x8, addend: 0x0, symName: '__ZN89_$LT$alloc..vec..in_place_drop..InPlaceDrop$LT$T$GT$$u20$as$u20$core..ops..drop..Drop$GT$4drop17h5366800f0e644676E', symObjAddr: 0x4704, symBinAddr: 0x4F6C8, symSize: 0x40 }
  - { offset: 0xF0CAC, size: 0x8, addend: 0x0, symName: '__ZN157_$LT$$LT$alloc..vec..into_iter..IntoIter$LT$T$C$A$GT$$u20$as$u20$core..ops..drop..Drop$GT$..drop..DropGuard$LT$T$C$A$GT$$u20$as$u20$core..ops..drop..Drop$GT$4drop17h4b9d641c92c48727E', symObjAddr: 0x260, symBinAddr: 0x4B618, symSize: 0x6C }
  - { offset: 0xF0DEF, size: 0x8, addend: 0x0, symName: '__ZN157_$LT$$LT$alloc..vec..into_iter..IntoIter$LT$T$C$A$GT$$u20$as$u20$core..ops..drop..Drop$GT$..drop..DropGuard$LT$T$C$A$GT$$u20$as$u20$core..ops..drop..Drop$GT$4drop17h6fc8fc40a3ad37acE', symObjAddr: 0x2CC, symBinAddr: 0x4B684, symSize: 0x6C }
  - { offset: 0xF0F82, size: 0x8, addend: 0x0, symName: '__ZN86_$LT$alloc..vec..into_iter..IntoIter$LT$T$C$A$GT$$u20$as$u20$core..ops..drop..Drop$GT$4drop17he03da00522bf0c5fE', symObjAddr: 0x450C, symBinAddr: 0x4F4D0, symSize: 0x78 }
  - { offset: 0xF0FD4, size: 0x8, addend: 0x0, symName: '__ZN86_$LT$alloc..vec..into_iter..IntoIter$LT$T$C$A$GT$$u20$as$u20$core..ops..drop..Drop$GT$4drop17hfb106eace5a3c79bE', symObjAddr: 0x4584, symBinAddr: 0x4F548, symSize: 0x78 }
  - { offset: 0xF11DC, size: 0x8, addend: 0x0, symName: '__ZN70_$LT$alloc..vec..Vec$LT$T$C$A$GT$$u20$as$u20$core..ops..drop..Drop$GT$4drop17h046ce59babd53fddE', symObjAddr: 0x3824, symBinAddr: 0x4E904, symSize: 0x38 }
  - { offset: 0xF128C, size: 0x8, addend: 0x0, symName: '__ZN70_$LT$alloc..vec..Vec$LT$T$C$A$GT$$u20$as$u20$core..ops..drop..Drop$GT$4drop17h04f131b8f0dc1d59E', symObjAddr: 0x385C, symBinAddr: 0x4E93C, symSize: 0x38 }
  - { offset: 0xF133C, size: 0x8, addend: 0x0, symName: '__ZN70_$LT$alloc..vec..Vec$LT$T$C$A$GT$$u20$as$u20$core..ops..drop..Drop$GT$4drop17h0d193009ee61e62cE', symObjAddr: 0x3894, symBinAddr: 0x4E974, symSize: 0x38 }
  - { offset: 0xF13EC, size: 0x8, addend: 0x0, symName: '__ZN70_$LT$alloc..vec..Vec$LT$T$C$A$GT$$u20$as$u20$core..ops..drop..Drop$GT$4drop17h1530850fc7cb137dE', symObjAddr: 0x38CC, symBinAddr: 0x4E9AC, symSize: 0x38 }
  - { offset: 0xF149C, size: 0x8, addend: 0x0, symName: '__ZN70_$LT$alloc..vec..Vec$LT$T$C$A$GT$$u20$as$u20$core..ops..drop..Drop$GT$4drop17h2217bf76c9704b6fE', symObjAddr: 0x3904, symBinAddr: 0x4E9E4, symSize: 0x38 }
  - { offset: 0xF154C, size: 0x8, addend: 0x0, symName: '__ZN70_$LT$alloc..vec..Vec$LT$T$C$A$GT$$u20$as$u20$core..ops..drop..Drop$GT$4drop17h466a0804e52a6d46E', symObjAddr: 0x393C, symBinAddr: 0x4EA1C, symSize: 0x24 }
  - { offset: 0xF15FC, size: 0x8, addend: 0x0, symName: '__ZN70_$LT$alloc..vec..Vec$LT$T$C$A$GT$$u20$as$u20$core..ops..drop..Drop$GT$4drop17h7e70d8ad367d1996E', symObjAddr: 0x3984, symBinAddr: 0x4EA40, symSize: 0x24 }
  - { offset: 0xF16AC, size: 0x8, addend: 0x0, symName: '__ZN70_$LT$alloc..vec..Vec$LT$T$C$A$GT$$u20$as$u20$core..ops..drop..Drop$GT$4drop17h856b9ce8ebeafc89E', symObjAddr: 0x39A8, symBinAddr: 0x4EA64, symSize: 0x24 }
  - { offset: 0xF175C, size: 0x8, addend: 0x0, symName: '__ZN70_$LT$alloc..vec..Vec$LT$T$C$A$GT$$u20$as$u20$core..ops..drop..Drop$GT$4drop17ha4142115ff67826bE', symObjAddr: 0x39CC, symBinAddr: 0x4EA88, symSize: 0x38 }
  - { offset: 0xF180C, size: 0x8, addend: 0x0, symName: '__ZN70_$LT$alloc..vec..Vec$LT$T$C$A$GT$$u20$as$u20$core..ops..drop..Drop$GT$4drop17hada399ca0305397bE', symObjAddr: 0x3A04, symBinAddr: 0x4EAC0, symSize: 0x38 }
  - { offset: 0xF1D9C, size: 0x8, addend: 0x0, symName: '__ZN71_$LT$alloc..sync..Arc$LT$T$C$A$GT$$u20$as$u20$core..ops..drop..Drop$GT$4drop17h15b81088a2a19710E', symObjAddr: 0x3A68, symBinAddr: 0x4EB24, symSize: 0x7C }
  - { offset: 0xF1E75, size: 0x8, addend: 0x0, symName: '__ZN71_$LT$alloc..sync..Arc$LT$T$C$A$GT$$u20$as$u20$core..ops..drop..Drop$GT$4drop17hab9a1ace8de1383cE', symObjAddr: 0x3AE4, symBinAddr: 0x4EBA0, symSize: 0x7C }
  - { offset: 0xF1FD0, size: 0x8, addend: 0x0, symName: '__ZN72_$LT$alloc..sync..Weak$LT$T$C$A$GT$$u20$as$u20$core..ops..drop..Drop$GT$4drop17h894ca68b3c255762E', symObjAddr: 0x3D70, symBinAddr: 0x4EE2C, symSize: 0x144 }
  - { offset: 0xF2493, size: 0x8, addend: 0x0, symName: '__ZN169_$LT$$LT$alloc..collections..linked_list..LinkedList$LT$T$C$A$GT$$u20$as$u20$core..ops..drop..Drop$GT$..drop..DropGuard$LT$T$C$A$GT$$u20$as$u20$core..ops..drop..Drop$GT$4drop17h7b37b142a7e30ff7E', symObjAddr: 0x338, symBinAddr: 0x4B6F0, symSize: 0x16C }
  - { offset: 0xF2636, size: 0x8, addend: 0x0, symName: '__ZN98_$LT$alloc..collections..linked_list..LinkedList$LT$T$C$A$GT$$u20$as$u20$core..ops..drop..Drop$GT$4drop17h6adff686a8114aceE', symObjAddr: 0x4AAC, symBinAddr: 0x4FA1C, symSize: 0x1C8 }
  - { offset: 0xF2A16, size: 0x8, addend: 0x0, symName: '__ZN72_$LT$alloc..boxed..Box$LT$T$C$A$GT$$u20$as$u20$core..ops..drop..Drop$GT$4drop17h5b6f6b611a4efa23E', symObjAddr: 0x3B60, symBinAddr: 0x4EC1C, symSize: 0xB0 }
  - { offset: 0xF2B4F, size: 0x8, addend: 0x0, symName: '__ZN72_$LT$alloc..boxed..Box$LT$T$C$A$GT$$u20$as$u20$core..ops..drop..Drop$GT$4drop17hbd119dc17db9a4d8E', symObjAddr: 0x3C10, symBinAddr: 0x4ECCC, symSize: 0xB0 }
  - { offset: 0xF2C88, size: 0x8, addend: 0x0, symName: '__ZN72_$LT$alloc..boxed..Box$LT$T$C$A$GT$$u20$as$u20$core..ops..drop..Drop$GT$4drop17heaa1c1638bddc69bE', symObjAddr: 0x3CC0, symBinAddr: 0x4ED7C, symSize: 0xB0 }
  - { offset: 0xF3187, size: 0x8, addend: 0x0, symName: '__ZN81_$LT$flash_expert..expert_store..ExpertStore$u20$as$u20$core..ops..drop..Drop$GT$4drop17ha1324d2cb51603b3E', symObjAddr: 0x43F8, symBinAddr: 0x4F3BC, symSize: 0x64 }
  - { offset: 0xF37FC, size: 0x8, addend: 0x0, symName: '__ZN69_$LT$pyo3..instance..Py$LT$T$GT$$u20$as$u20$core..ops..drop..Drop$GT$4drop17h371d0d89e0c8e6e9E', symObjAddr: 0x37BC, symBinAddr: 0x4E89C, symSize: 0x28 }
  - { offset: 0xF3835, size: 0x8, addend: 0x0, symName: '__ZN72_$LT$pyo3..instance..Bound$LT$T$GT$$u20$as$u20$core..ops..drop..Drop$GT$4drop17hb49d3a737acba0ebE', symObjAddr: 0x3F4C, symBinAddr: 0x4F008, symSize: 0x30 }
  - { offset: 0xF398E, size: 0x8, addend: 0x0, symName: '__ZN70_$LT$pyo3..pycell..PyRef$LT$T$GT$$u20$as$u20$core..ops..drop..Drop$GT$4drop17h0820d186dd727a2eE', symObjAddr: 0x3A3C, symBinAddr: 0x4EAF8, symSize: 0x2C }
  - { offset: 0xF4823, size: 0x8, addend: 0x0, symName: '__ZN72_$LT$lru..LruCache$LT$K$C$V$C$S$GT$$u20$as$u20$core..ops..drop..Drop$GT$4drop17habeccaf17068c193E', symObjAddr: 0x3EB4, symBinAddr: 0x4EF70, symSize: 0x98 }
  - { offset: 0xF4FAE, size: 0x8, addend: 0x0, symName: '__ZN79_$LT$hashbrown..raw..RawDrain$LT$T$C$A$GT$$u20$as$u20$core..ops..drop..Drop$GT$4drop17h7a0ac4e3dd36de99E', symObjAddr: 0x426C, symBinAddr: 0x4F230, symSize: 0x9C }
  - { offset: 0xF504C, size: 0x8, addend: 0x0, symName: '__ZN79_$LT$hashbrown..raw..RawTable$LT$T$C$A$GT$$u20$as$u20$core..ops..drop..Drop$GT$4drop17h27282c5c89687898E', symObjAddr: 0x4308, symBinAddr: 0x4F2CC, symSize: 0x3C }
  - { offset: 0xF5088, size: 0x8, addend: 0x0, symName: '__ZN79_$LT$hashbrown..raw..RawTable$LT$T$C$A$GT$$u20$as$u20$core..ops..drop..Drop$GT$4drop17h76bbcd080ec45ecaE', symObjAddr: 0x4344, symBinAddr: 0x4F308, symSize: 0x3C }
  - { offset: 0xF50C4, size: 0x8, addend: 0x0, symName: '__ZN79_$LT$hashbrown..raw..RawTable$LT$T$C$A$GT$$u20$as$u20$core..ops..drop..Drop$GT$4drop17hdff9af4d69eefcefE', symObjAddr: 0x43BC, symBinAddr: 0x4F380, symSize: 0x3C }
  - { offset: 0xF5106, size: 0x8, addend: 0x0, symName: '__ZN79_$LT$hashbrown..raw..RawTable$LT$T$C$A$GT$$u20$as$u20$core..ops..drop..Drop$GT$4drop17hd3c310ad79b764e0E', symObjAddr: 0x4380, symBinAddr: 0x4F344, symSize: 0x3C }
  - { offset: 0xF5148, size: 0x8, addend: 0x0, symName: '__ZN82_$LT$hashbrown..raw..RawIntoIter$LT$T$C$A$GT$$u20$as$u20$core..ops..drop..Drop$GT$4drop17h8ac694b9ae9eb5c7E', symObjAddr: 0x4498, symBinAddr: 0x4F45C, symSize: 0x74 }
  - { offset: 0xF567F, size: 0x8, addend: 0x0, symName: '__ZN88_$LT$hashbrown..scopeguard..ScopeGuard$LT$T$C$F$GT$$u20$as$u20$core..ops..drop..Drop$GT$4drop17h825862f85898645dE', symObjAddr: 0x46AC, symBinAddr: 0x4F670, symSize: 0x2C }
  - { offset: 0xF56B9, size: 0x8, addend: 0x0, symName: '__ZN88_$LT$hashbrown..scopeguard..ScopeGuard$LT$T$C$F$GT$$u20$as$u20$core..ops..drop..Drop$GT$4drop17h918ccecbd1b13c17E', symObjAddr: 0x46D8, symBinAddr: 0x4F69C, symSize: 0x2C }
  - { offset: 0xF5B10, size: 0x8, addend: 0x0, symName: '__ZN96_$LT$rayon..iter..collect..consumer..CollectResult$LT$T$GT$$u20$as$u20$core..ops..drop..Drop$GT$4drop17he7aba7aaffc38cf6E', symObjAddr: 0x4A70, symBinAddr: 0x4F9E0, symSize: 0x3C }
  - { offset: 0xF7ED6, size: 0x8, addend: 0x0, symName: __ZN4pyo36marker6Python19assume_gil_acquired17h6f2b9ae08b955cd9E, symObjAddr: 0x0, symBinAddr: 0x4FD84, symSize: 0x4 }
  - { offset: 0xF8018, size: 0x8, addend: 0x0, symName: __ZN4pyo36marker6Python19assume_gil_acquired17h6f2b9ae08b955cd9E, symObjAddr: 0x0, symBinAddr: 0x4FD84, symSize: 0x4 }
  - { offset: 0xF8049, size: 0x8, addend: 0x0, symName: '__ZN10serde_core3ser5impls62_$LT$impl$u20$serde_core..ser..Serialize$u20$for$u20$$RF$T$GT$9serialize17hf4298a20622c37b1E', symObjAddr: 0x0, symBinAddr: 0x4FD88, symSize: 0x28 }
  - { offset: 0xF82CF, size: 0x8, addend: 0x0, symName: '__ZN10serde_core3ser5impls62_$LT$impl$u20$serde_core..ser..Serialize$u20$for$u20$$RF$T$GT$9serialize17hf4298a20622c37b1E', symObjAddr: 0x0, symBinAddr: 0x4FD88, symSize: 0x28 }
  - { offset: 0xF8331, size: 0x8, addend: 0x0, symName: '__ZN123_$LT$serde_json..map..Map$LT$alloc..string..String$C$serde_json..value..Value$GT$$u20$as$u20$serde_core..ser..Serialize$GT$9serialize17h8923348d0b5981dfE', symObjAddr: 0x28, symBinAddr: 0x4FDB0, symSize: 0x24C }
  - { offset: 0xF842E, size: 0x8, addend: 0x0, symName: '__ZN133_$LT$serde_json..map..Map$LT$alloc..string..String$C$serde_json..value..Value$GT$$u20$as$u20$core..ops..index..Index$LT$$RF$Q$GT$$GT$5index17h75fa634049c3e7c2E', symObjAddr: 0x274, symBinAddr: 0x4FFFC, symSize: 0x2C }
  - { offset: 0xF89C1, size: 0x8, addend: 0x0, symName: __ZN4core4iter6traits8iterator8Iterator10filter_map17hc9ecd218b55678eeE, symObjAddr: 0x2A0, symBinAddr: 0x50028, symSize: 0x30 }
  - { offset: 0xF8A2F, size: 0x8, addend: 0x0, symName: __ZN4core4iter6traits8iterator8Iterator8find_map17h1b9f63e69cd4a36dE, symObjAddr: 0x2D0, symBinAddr: 0x50058, symSize: 0xA8 }
  - { offset: 0xF8AB7, size: 0x8, addend: 0x0, symName: __ZN4core4iter6traits8iterator8Iterator8try_fold17hde1db9ff7e9cab54E, symObjAddr: 0x378, symBinAddr: 0x50100, symSize: 0x134 }
  - { offset: 0xF8B9D, size: 0x8, addend: 0x0, symName: '__ZN63_$LT$I$u20$as$u20$core..iter..traits..collect..IntoIterator$GT$9into_iter17h27ecd0e06e99db3cE', symObjAddr: 0x4AC, symBinAddr: 0x50234, symSize: 0x30 }
  - { offset: 0xF9A3D, size: 0x8, addend: 0x0, symName: __ZN3std4path4Path6exists17hd59ae4a206decaccE, symObjAddr: 0x0, symBinAddr: 0x50264, symSize: 0x4C }
  - { offset: 0xF9DCA, size: 0x8, addend: 0x0, symName: '__ZN3std4path77_$LT$impl$u20$core..convert..AsRef$LT$std..path..Path$GT$$u20$for$u20$str$GT$6as_ref17hcb7dab7f95ce3a48E', symObjAddr: 0xDC, symBinAddr: 0x50340, symSize: 0x18 }
  - { offset: 0xF9DFE, size: 0x8, addend: 0x0, symName: '__ZN62_$LT$std..path..PathBuf$u20$as$u20$core..ops..deref..Deref$GT$5deref17h18b05ce2fa614d0dE', symObjAddr: 0xF4, symBinAddr: 0x50358, symSize: 0x34 }
  - { offset: 0xF9EAA, size: 0x8, addend: 0x0, symName: '__ZN79_$LT$std..path..Path$u20$as$u20$core..convert..AsRef$LT$std..path..Path$GT$$GT$6as_ref17h21afc96e9caffe2dE', symObjAddr: 0x128, symBinAddr: 0x5038C, symSize: 0x18 }
  - { offset: 0xF9EF3, size: 0x8, addend: 0x0, symName: '__ZN82_$LT$std..path..PathBuf$u20$as$u20$core..convert..AsRef$LT$std..path..Path$GT$$GT$6as_ref17h01a3f9e932ea7b2dE', symObjAddr: 0x140, symBinAddr: 0x503A4, symSize: 0x34 }
  - { offset: 0xFA601, size: 0x8, addend: 0x0, symName: __ZN3std4path4Path6exists17hd59ae4a206decaccE, symObjAddr: 0x0, symBinAddr: 0x50264, symSize: 0x4C }
  - { offset: 0xFA6E9, size: 0x8, addend: 0x0, symName: __ZN3std4path4Path6to_str17hf73538879f446412E, symObjAddr: 0x4C, symBinAddr: 0x502B0, symSize: 0x78 }
  - { offset: 0xFA780, size: 0x8, addend: 0x0, symName: __ZN3std4path4Path7display17hc37bf16fd7889a4cE, symObjAddr: 0xC4, symBinAddr: 0x50328, symSize: 0x18 }
  - { offset: 0xFA8DC, size: 0x8, addend: 0x0, symName: '__ZN4core4iter6traits8iterator8Iterator12try_for_each4call28_$u7b$$u7b$closure$u7d$$u7d$17h0bcd3a718c567ab2E', symObjAddr: 0x0, symBinAddr: 0x503D8, symSize: 0x2C }
  - { offset: 0xFB12D, size: 0x8, addend: 0x0, symName: '__ZN4core4iter6traits8iterator8Iterator12try_for_each4call28_$u7b$$u7b$closure$u7d$$u7d$17h0bcd3a718c567ab2E', symObjAddr: 0x0, symBinAddr: 0x503D8, symSize: 0x2C }
  - { offset: 0xFB192, size: 0x8, addend: 0x0, symName: '__ZN4core4iter6traits8iterator8Iterator12try_for_each4call28_$u7b$$u7b$closure$u7d$$u7d$17h31e9dd98946e5c92E', symObjAddr: 0x2C, symBinAddr: 0x50404, symSize: 0x2C }
  - { offset: 0xFB1F7, size: 0x8, addend: 0x0, symName: '__ZN4core4iter6traits8iterator8Iterator12try_for_each4call28_$u7b$$u7b$closure$u7d$$u7d$17hac0d86e2c4375e7cE', symObjAddr: 0x58, symBinAddr: 0x50430, symSize: 0x2C }
  - { offset: 0xFB25C, size: 0x8, addend: 0x0, symName: '__ZN4core4iter6traits8iterator8Iterator12try_for_each4call28_$u7b$$u7b$closure$u7d$$u7d$17hfd23c5fbff09429eE', symObjAddr: 0x84, symBinAddr: 0x5045C, symSize: 0x2C }
  - { offset: 0xFB2CD, size: 0x8, addend: 0x0, symName: '__ZN4core4iter6traits8iterator8Iterator8find_map5check28_$u7b$$u7b$closure$u7d$$u7d$17h0f7a10747f48774eE', symObjAddr: 0xB0, symBinAddr: 0x50488, symSize: 0x84 }
  - { offset: 0xFB35C, size: 0x8, addend: 0x0, symName: '__ZN4core4iter6traits8iterator8Iterator8for_each4call28_$u7b$$u7b$closure$u7d$$u7d$17h43bbe9e7143c73d0E', symObjAddr: 0x134, symBinAddr: 0x5050C, symSize: 0x28 }
  - { offset: 0xFB3B4, size: 0x8, addend: 0x0, symName: '__ZN4core4iter6traits8iterator8Iterator8for_each4call28_$u7b$$u7b$closure$u7d$$u7d$17haf577d9f084c1551E', symObjAddr: 0x15C, symBinAddr: 0x50534, symSize: 0x34 }
  - { offset: 0xFC1DC, size: 0x8, addend: 0x0, symName: '__ZN47_$LT$u32$u20$as$u20$core..iter..range..Step$GT$17forward_unchecked17h51560d793d9a401bE', symObjAddr: 0x0, symBinAddr: 0x50568, symSize: 0x5C }
  - { offset: 0xFC233, size: 0x8, addend: 0x0, symName: '__ZN47_$LT$u32$u20$as$u20$core..iter..range..Step$GT$17forward_unchecked17h51560d793d9a401bE', symObjAddr: 0x0, symBinAddr: 0x50568, symSize: 0x5C }
  - { offset: 0xFC2C2, size: 0x8, addend: 0x0, symName: '__ZN97_$LT$alloc..ffi..c_str..CString$u20$as$u20$core..borrow..Borrow$LT$core..ffi..c_str..CStr$GT$$GT$6borrow17h35f3a3388df51ff1E', symObjAddr: 0x0, symBinAddr: 0x505C4, symSize: 0x20 }
  - { offset: 0xFC348, size: 0x8, addend: 0x0, symName: '__ZN97_$LT$alloc..ffi..c_str..CString$u20$as$u20$core..borrow..Borrow$LT$core..ffi..c_str..CStr$GT$$GT$6borrow17h35f3a3388df51ff1E', symObjAddr: 0x0, symBinAddr: 0x505C4, symSize: 0x20 }
  - { offset: 0xFC4CD, size: 0x8, addend: 0x0, symName: __ZN5alloc5slice11stable_sort17h071798da6e5bbee4E, symObjAddr: 0x0, symBinAddr: 0x505E4, symSize: 0xC4 }
  - { offset: 0xFCA16, size: 0x8, addend: 0x0, symName: __ZN5alloc5slice11stable_sort17h071798da6e5bbee4E, symObjAddr: 0x0, symBinAddr: 0x505E4, symSize: 0xC4 }
  - { offset: 0xFCAE8, size: 0x8, addend: 0x0, symName: '__ZN5alloc5slice29_$LT$impl$u20$$u5b$T$u5d$$GT$11sort_by_key28_$u7b$$u7b$closure$u7d$$u7d$17h23d8f79404f5a058E', symObjAddr: 0x254, symBinAddr: 0x50838, symSize: 0xAC }
  - { offset: 0xFCB8C, size: 0x8, addend: 0x0, symName: '__ZN5alloc5slice29_$LT$impl$u20$$u5b$T$u5d$$GT$7sort_by28_$u7b$$u7b$closure$u7d$$u7d$17h270f111afdf225c9E', symObjAddr: 0x300, symBinAddr: 0x508E4, symSize: 0x50 }
  - { offset: 0xFCC00, size: 0x8, addend: 0x0, symName: __ZN5alloc5slice11stable_sort17h242428f29d91d1f4E, symObjAddr: 0xC4, symBinAddr: 0x506A8, symSize: 0xC8 }
  - { offset: 0xFCCB5, size: 0x8, addend: 0x0, symName: __ZN5alloc5slice11stable_sort17h6980e25b38f153cfE, symObjAddr: 0x18C, symBinAddr: 0x50770, symSize: 0xC8 }
  - { offset: 0xFCFB4, size: 0x8, addend: 0x0, symName: '__ZN4core3mem13manually_drop21ManuallyDrop$LT$T$GT$4drop17h0204df37fccda1cbE', symObjAddr: 0x0, symBinAddr: 0x50934, symSize: 0x20 }
  - { offset: 0xFDBFB, size: 0x8, addend: 0x0, symName: '__ZN4core3mem13manually_drop21ManuallyDrop$LT$T$GT$4drop17h0204df37fccda1cbE', symObjAddr: 0x0, symBinAddr: 0x50934, symSize: 0x20 }
  - { offset: 0xFDC45, size: 0x8, addend: 0x0, symName: '__ZN103_$LT$pyo3..instance..Bound$LT$pyo3..types..any..PyAny$GT$$u20$as$u20$pyo3..types..any..PyAnyMethods$GT$14is_instance_of17h5edcd06b9849fa06E', symObjAddr: 0x0, symBinAddr: 0x50954, symSize: 0x24 }
  - { offset: 0xFDD1E, size: 0x8, addend: 0x0, symName: '__ZN4core5slice29_$LT$impl$u20$$u5b$T$u5d$$GT$4iter17hcd2a37ddc319ee28E', symObjAddr: 0x790, symBinAddr: 0x510E4, symSize: 0x28 }
  - { offset: 0xFEB71, size: 0x8, addend: 0x0, symName: '__ZN63_$LT$I$u20$as$u20$core..iter..traits..collect..IntoIterator$GT$9into_iter17h8ad7808b833fca1bE', symObjAddr: 0xC0C, symBinAddr: 0x51560, symSize: 0x14 }
  - { offset: 0xFEBD8, size: 0x8, addend: 0x0, symName: '__ZN103_$LT$pyo3..instance..Bound$LT$pyo3..types..any..PyAny$GT$$u20$as$u20$pyo3..types..any..PyAnyMethods$GT$14is_instance_of17h5edcd06b9849fa06E', symObjAddr: 0x0, symBinAddr: 0x50954, symSize: 0x24 }
  - { offset: 0xFEC0F, size: 0x8, addend: 0x0, symName: '__ZN103_$LT$pyo3..instance..Bound$LT$pyo3..types..any..PyAny$GT$$u20$as$u20$pyo3..types..any..PyAnyMethods$GT$18downcast_unchecked17hea4c208eb470b669E', symObjAddr: 0x24, symBinAddr: 0x50978, symSize: 0x74 }
  - { offset: 0xFEC46, size: 0x8, addend: 0x0, symName: '__ZN103_$LT$pyo3..instance..Bound$LT$pyo3..types..any..PyAny$GT$$u20$as$u20$pyo3..types..any..PyAnyMethods$GT$23downcast_into_unchecked17h9fd9b509a264bc33E', symObjAddr: 0x98, symBinAddr: 0x509EC, symSize: 0x14 }
  - { offset: 0xFEC7D, size: 0x8, addend: 0x0, symName: '__ZN103_$LT$pyo3..instance..Bound$LT$pyo3..types..any..PyAny$GT$$u20$as$u20$pyo3..types..any..PyAnyMethods$GT$7extract17h2ab1736449435f0cE', symObjAddr: 0xAC, symBinAddr: 0x50A00, symSize: 0x30 }
  - { offset: 0xFECB4, size: 0x8, addend: 0x0, symName: '__ZN103_$LT$pyo3..instance..Bound$LT$pyo3..types..any..PyAny$GT$$u20$as$u20$pyo3..types..any..PyAnyMethods$GT$7extract17h72fbf9b9bb081f69E', symObjAddr: 0xDC, symBinAddr: 0x50A30, symSize: 0x30 }
  - { offset: 0xFECEB, size: 0x8, addend: 0x0, symName: '__ZN103_$LT$pyo3..instance..Bound$LT$pyo3..types..any..PyAny$GT$$u20$as$u20$pyo3..types..any..PyAnyMethods$GT$7extract17h7b23b15914fa5edaE', symObjAddr: 0x10C, symBinAddr: 0x50A60, symSize: 0x30 }
  - { offset: 0xFED22, size: 0x8, addend: 0x0, symName: '__ZN103_$LT$pyo3..instance..Bound$LT$pyo3..types..any..PyAny$GT$$u20$as$u20$pyo3..types..any..PyAnyMethods$GT$8downcast17h05d7d734bcc29d6bE', symObjAddr: 0x13C, symBinAddr: 0x50A90, symSize: 0x84 }
  - { offset: 0xFED7A, size: 0x8, addend: 0x0, symName: '__ZN107_$LT$pyo3..instance..Bound$LT$pyo3..types..dict..PyDict$GT$$u20$as$u20$pyo3..types..dict..PyDictMethods$GT$8set_item17h78fd6254eac93448E', symObjAddr: 0x1C0, symBinAddr: 0x50B14, symSize: 0x2A4 }
  - { offset: 0xFEE49, size: 0x8, addend: 0x0, symName: '__ZN115_$LT$pyo3..instance..Bound$LT$pyo3..types..module..PyModule$GT$$u20$as$u20$pyo3..types..module..PyModuleMethods$GT$3add17he51fb7b815a94fd3E', symObjAddr: 0x464, symBinAddr: 0x50DB8, symSize: 0x25C }
  - { offset: 0xFEF16, size: 0x8, addend: 0x0, symName: '__ZN115_$LT$pyo3..instance..Bound$LT$pyo3..types..module..PyModule$GT$$u20$as$u20$pyo3..types..module..PyModuleMethods$GT$9add_class17h2daaac48b62db0a1E', symObjAddr: 0x6C0, symBinAddr: 0x51014, symSize: 0xD0 }
  - { offset: 0xFF050, size: 0x8, addend: 0x0, symName: __ZN4pyo310conversion15IntoPyObjectExt22into_pyobject_or_pyerr17h0b855d571acac951E, symObjAddr: 0x7B8, symBinAddr: 0x5110C, symSize: 0x48 }
  - { offset: 0xFF0C0, size: 0x8, addend: 0x0, symName: __ZN4pyo310conversion15IntoPyObjectExt22into_pyobject_or_pyerr17h47c688884b216499E, symObjAddr: 0x800, symBinAddr: 0x51154, symSize: 0x48 }
  - { offset: 0xFF141, size: 0x8, addend: 0x0, symName: '__ZN4pyo35impl_9pymethods133_$LT$impl$u20$core..convert..From$LT$pyo3..impl_..pymethods..BoundRef$LT$T$GT$$GT$$u20$for$u20$$RF$pyo3..instance..Bound$LT$T$GT$$GT$4from17he703b9914f661d44E', symObjAddr: 0x848, symBinAddr: 0x5119C, symSize: 0x14 }
  - { offset: 0xFF5E2, size: 0x8, addend: 0x0, symName: '__ZN4pyo38instance39Borrowed$LT$pyo3..types..any..PyAny$GT$15from_ptr_or_opt28_$u7b$$u7b$closure$u7d$$u7d$17h65b409ea2194908aE', symObjAddr: 0xB9C, symBinAddr: 0x514F0, symSize: 0x20 }
  - { offset: 0xFF787, size: 0x8, addend: 0x0, symName: '__ZN69_$LT$pyo3..instance..Bound$LT$T$GT$$u20$as$u20$core..clone..Clone$GT$5clone17h8549c09c8cd9ab3dE', symObjAddr: 0xC20, symBinAddr: 0x51574, symSize: 0x34 }
  - { offset: 0xFF7C4, size: 0x8, addend: 0x0, symName: '__ZN87_$LT$pyo3..instance..Bound$LT$T$GT$$u20$as$u20$pyo3..instance..BoundObject$LT$T$GT$$GT$8into_any17h1b3bcca70eeaaba1E', symObjAddr: 0xC54, symBinAddr: 0x515A8, symSize: 0x24 }
  - { offset: 0xFF7FB, size: 0x8, addend: 0x0, symName: '__ZN87_$LT$pyo3..instance..Bound$LT$T$GT$$u20$as$u20$pyo3..instance..BoundObject$LT$T$GT$$GT$8into_any17h7996571a46022e3dE', symObjAddr: 0xC78, symBinAddr: 0x515CC, symSize: 0x24 }
  - { offset: 0x100654, size: 0x8, addend: 0x0, symName: '__ZN4pyo38instance11Py$LT$T$GT$10into_bound17hfe3f45e84455a4adE', symObjAddr: 0x85C, symBinAddr: 0x511B0, symSize: 0x1C }
  - { offset: 0x10069B, size: 0x8, addend: 0x0, symName: '__ZN4pyo38instance11Py$LT$T$GT$13from_non_null17h7e9aa8161f5c4b82E', symObjAddr: 0x878, symBinAddr: 0x511CC, symSize: 0x14 }
  - { offset: 0x1006C7, size: 0x8, addend: 0x0, symName: '__ZN4pyo38instance11Py$LT$T$GT$13from_non_null17h8171c894a3bdb873E', symObjAddr: 0x88C, symBinAddr: 0x511E0, symSize: 0x14 }
  - { offset: 0x10070D, size: 0x8, addend: 0x0, symName: '__ZN4pyo38instance11Py$LT$T$GT$16get_class_object17hf1ecb739af4cfec4E', symObjAddr: 0x8A0, symBinAddr: 0x511F4, symSize: 0x78 }
  - { offset: 0x10075C, size: 0x8, addend: 0x0, symName: '__ZN4pyo38instance11Py$LT$T$GT$6as_ptr17h56bab8faa864699fE', symObjAddr: 0x918, symBinAddr: 0x5126C, symSize: 0x1C }
  - { offset: 0x100788, size: 0x8, addend: 0x0, symName: '__ZN4pyo38instance11Py$LT$T$GT$8into_any17h6dd0b98b159a29e0E', symObjAddr: 0x934, symBinAddr: 0x51288, symSize: 0x3C }
  - { offset: 0x1007B4, size: 0x8, addend: 0x0, symName: '__ZN4pyo38instance11Py$LT$T$GT$8into_ptr17h236f367ef88754f4E', symObjAddr: 0x970, symBinAddr: 0x512C4, symSize: 0x30 }
  - { offset: 0x1007E0, size: 0x8, addend: 0x0, symName: '__ZN4pyo38instance11Py$LT$T$GT$9clone_ref17ha031cc37f7657670E', symObjAddr: 0x9A0, symBinAddr: 0x512F4, symSize: 0x40 }
  - { offset: 0x100852, size: 0x8, addend: 0x0, symName: '__ZN4pyo38instance14Bound$LT$T$GT$10try_borrow17hea77490cd85b46a6E', symObjAddr: 0x9E0, symBinAddr: 0x51334, symSize: 0x24 }
  - { offset: 0x10087E, size: 0x8, addend: 0x0, symName: '__ZN4pyo38instance14Bound$LT$T$GT$16get_class_object17he1e7515b92f3048dE', symObjAddr: 0xA04, symBinAddr: 0x51358, symSize: 0x2C }
  - { offset: 0x1008AA, size: 0x8, addend: 0x0, symName: '__ZN4pyo38instance14Bound$LT$T$GT$6as_ptr17h0151559cbd5bcb41E', symObjAddr: 0xA30, symBinAddr: 0x51384, symSize: 0x2C }
  - { offset: 0x1008E3, size: 0x8, addend: 0x0, symName: '__ZN4pyo38instance14Bound$LT$T$GT$6as_ptr17h83e09dbd6ccb5a2eE', symObjAddr: 0xA5C, symBinAddr: 0x513B0, symSize: 0x2C }
  - { offset: 0x10090F, size: 0x8, addend: 0x0, symName: '__ZN4pyo38instance14Bound$LT$T$GT$6unbind17hdb494a98f0321d5fE', symObjAddr: 0xA88, symBinAddr: 0x513DC, symSize: 0x48 }
  - { offset: 0x100959, size: 0x8, addend: 0x0, symName: '__ZN4pyo38instance14Bound$LT$T$GT$8into_any17h91fd730d08c32cbaE', symObjAddr: 0xAD0, symBinAddr: 0x51424, symSize: 0x30 }
  - { offset: 0x100985, size: 0x8, addend: 0x0, symName: '__ZN4pyo38instance14Bound$LT$T$GT$8into_ptr17h9cf351a083d81a1aE', symObjAddr: 0xB00, symBinAddr: 0x51454, symSize: 0x40 }
  - { offset: 0x1009B1, size: 0x8, addend: 0x0, symName: '__ZN4pyo38instance14Bound$LT$T$GT$8into_ptr17hba5e7b86789565c5E', symObjAddr: 0xB40, symBinAddr: 0x51494, symSize: 0x40 }
  - { offset: 0x1009EA, size: 0x8, addend: 0x0, symName: '__ZN4pyo38instance17Borrowed$LT$T$GT$6as_ptr17ha7a8cc10384aa9c9E', symObjAddr: 0xB80, symBinAddr: 0x514D4, symSize: 0x1C }
  - { offset: 0x100A23, size: 0x8, addend: 0x0, symName: '__ZN4pyo38instance39Borrowed$LT$pyo3..types..any..PyAny$GT$18downcast_unchecked17h0f2718faf59e7ce4E', symObjAddr: 0xBBC, symBinAddr: 0x51510, symSize: 0x14 }
  - { offset: 0x100A5C, size: 0x8, addend: 0x0, symName: '__ZN4pyo38instance39Borrowed$LT$pyo3..types..any..PyAny$GT$18downcast_unchecked17hfb0dcb439d7efe7eE', symObjAddr: 0xBD0, symBinAddr: 0x51524, symSize: 0x14 }
  - { offset: 0x100AB6, size: 0x8, addend: 0x0, symName: '__ZN4pyo38internal8get_slot78_$LT$impl$u20$pyo3..instance..Bound$LT$pyo3..types..typeobject..PyType$GT$$GT$8get_slot17he1e1e19a000d4f9bE', symObjAddr: 0xBE4, symBinAddr: 0x51538, symSize: 0x28 }
  - { offset: 0x100C21, size: 0x8, addend: 0x0, symName: '__ZN175_$LT$serde_json..value..de..$LT$impl$u20$serde_core..de..Deserialize$u20$for$u20$serde_json..value..Value$GT$..deserialize..ValueVisitor$u20$as$u20$serde_core..de..Visitor$GT$9visit_map17h10bbbb80dea078deE', symObjAddr: 0x0, symBinAddr: 0x515F0, symSize: 0x3F8 }
  - { offset: 0x100EB1, size: 0x8, addend: 0x0, symName: '__ZN175_$LT$serde_json..value..de..$LT$impl$u20$serde_core..de..Deserialize$u20$for$u20$serde_json..value..Value$GT$..deserialize..ValueVisitor$u20$as$u20$serde_core..de..Visitor$GT$9visit_map17h10bbbb80dea078deE', symObjAddr: 0x0, symBinAddr: 0x515F0, symSize: 0x3F8 }
  - { offset: 0x100FAD, size: 0x8, addend: 0x0, symName: '__ZN175_$LT$serde_json..value..de..$LT$impl$u20$serde_core..de..Deserialize$u20$for$u20$serde_json..value..Value$GT$..deserialize..ValueVisitor$u20$as$u20$serde_core..de..Visitor$GT$9visit_seq17hdf367ad3850ef7c4E', symObjAddr: 0x3F8, symBinAddr: 0x519E8, symSize: 0x170 }
  - { offset: 0x101056, size: 0x8, addend: 0x0, symName: '__ZN88_$LT$serde_json..value..de..KeyClassifier$u20$as$u20$serde_core..de..DeserializeSeed$GT$11deserialize17ha7531c4c9bbfc0e9E', symObjAddr: 0x568, symBinAddr: 0x51B58, symSize: 0x24 }
  - { offset: 0x101F69, size: 0x8, addend: 0x0, symName: '__ZN63_$LT$I$u20$as$u20$core..iter..traits..collect..IntoIterator$GT$9into_iter17h868797e88575f75bE', symObjAddr: 0x0, symBinAddr: 0x51B7C, symSize: 0x18 }
  - { offset: 0x102014, size: 0x8, addend: 0x0, symName: '__ZN63_$LT$I$u20$as$u20$core..iter..traits..collect..IntoIterator$GT$9into_iter17h868797e88575f75bE', symObjAddr: 0x0, symBinAddr: 0x51B7C, symSize: 0x18 }
  - { offset: 0x102303, size: 0x8, addend: 0x0, symName: __ZN4core4char7convert18from_u32_unchecked18precondition_check17hf89d4df41c678c2dE, symObjAddr: 0x0, symBinAddr: 0x51B94, symSize: 0x7C }
  - { offset: 0x10238E, size: 0x8, addend: 0x0, symName: __ZN4core4char7convert18from_u32_unchecked18precondition_check17hf89d4df41c678c2dE, symObjAddr: 0x0, symBinAddr: 0x51B94, symSize: 0x7C }
  - { offset: 0x102502, size: 0x8, addend: 0x0, symName: '__ZN4pyo35types5float64_$LT$impl$u20$pyo3..conversion..IntoPyObject$u20$for$u20$f64$GT$13into_pyobject17heb1400a188e37d16E', symObjAddr: 0x0, symBinAddr: 0x51C10, symSize: 0x20 }
  - { offset: 0x1025A8, size: 0x8, addend: 0x0, symName: '__ZN4pyo35types5float64_$LT$impl$u20$pyo3..conversion..IntoPyObject$u20$for$u20$f64$GT$13into_pyobject17heb1400a188e37d16E', symObjAddr: 0x0, symBinAddr: 0x51C10, symSize: 0x20 }
  - { offset: 0x102918, size: 0x8, addend: 0x0, symName: __ZN4pyo33err5PyErr3new17hca14b465e575cf32E, symObjAddr: 0x0, symBinAddr: 0x51C30, symSize: 0xA0 }
  - { offset: 0x10295A, size: 0x8, addend: 0x0, symName: '__ZN4pyo33err5PyErr3new28_$u7b$$u7b$closure$u7d$$u7d$17hdb9393cfef5e23d6E', symObjAddr: 0xA0, symBinAddr: 0x51CD0, symSize: 0xD4 }
  - { offset: 0x103320, size: 0x8, addend: 0x0, symName: __ZN4pyo33err5PyErr3new17hca14b465e575cf32E, symObjAddr: 0x0, symBinAddr: 0x51C30, symSize: 0xA0 }
  - { offset: 0x1033C8, size: 0x8, addend: 0x0, symName: '__ZN4core3ptr9const_ptr33_$LT$impl$u20$$BP$const$u20$T$GT$20offset_from_unsigned18precondition_check17heddea6dbda360bddE', symObjAddr: 0x0, symBinAddr: 0x51DA4, symSize: 0x60 }
  - { offset: 0x1033EE, size: 0x8, addend: 0x0, symName: '__ZN4core3ptr9const_ptr33_$LT$impl$u20$$BP$const$u20$T$GT$20offset_from_unsigned18precondition_check17heddea6dbda360bddE', symObjAddr: 0x0, symBinAddr: 0x51DA4, symSize: 0x60 }
  - { offset: 0x1034D7, size: 0x8, addend: 0x0, symName: '__ZN4core3ptr9const_ptr33_$LT$impl$u20$$BP$const$u20$T$GT$6offset18precondition_check17h211fbccd4f68e2eaE', symObjAddr: 0x60, symBinAddr: 0x51E04, symSize: 0xC4 }
  - { offset: 0x1038BE, size: 0x8, addend: 0x0, symName: '__ZN77_$LT$pyo3..exceptions..PyIOError$u20$as$u20$pyo3..type_object..PyTypeInfo$GT$15type_object_raw17h3b350bf101662e68E', symObjAddr: 0x0, symBinAddr: 0x51EC8, symSize: 0x24 }
  - { offset: 0x103920, size: 0x8, addend: 0x0, symName: '__ZN77_$LT$pyo3..exceptions..PyIOError$u20$as$u20$pyo3..type_object..PyTypeInfo$GT$15type_object_raw17h3b350bf101662e68E', symObjAddr: 0x0, symBinAddr: 0x51EC8, symSize: 0x24 }
  - { offset: 0x103A98, size: 0x8, addend: 0x0, symName: __ZN4core5slice20copy_from_slice_impl17h971c7d4bd42e29efE, symObjAddr: 0x0, symBinAddr: 0x51EEC, symSize: 0xAC }
  - { offset: 0x103BAE, size: 0x8, addend: 0x0, symName: '__ZN4core5slice29_$LT$impl$u20$$u5b$T$u5d$$GT$18split_at_unchecked17h1c173e3265fa7a2eE', symObjAddr: 0xAC, symBinAddr: 0x51F98, symSize: 0xE8 }
  - { offset: 0x103CC0, size: 0x8, addend: 0x0, symName: '__ZN4core5slice29_$LT$impl$u20$$u5b$T$u5d$$GT$4iter17h8bd07ef0c6439878E', symObjAddr: 0x194, symBinAddr: 0x52080, symSize: 0x28 }
  - { offset: 0x103CF7, size: 0x8, addend: 0x0, symName: '__ZN4core5slice29_$LT$impl$u20$$u5b$T$u5d$$GT$4iter17he41a75134244fe1bE', symObjAddr: 0x1BC, symBinAddr: 0x520A8, symSize: 0x28 }
  - { offset: 0x103D33, size: 0x8, addend: 0x0, symName: '__ZN4core5slice29_$LT$impl$u20$$u5b$T$u5d$$GT$7reverse7revswap17h28a65a1822ad3d58E', symObjAddr: 0x1E4, symBinAddr: 0x520D0, symSize: 0x19C }
  - { offset: 0x103DF2, size: 0x8, addend: 0x0, symName: '__ZN4core5slice29_$LT$impl$u20$$u5b$T$u5d$$GT$7reverse7revswap17h5520f4051658d7b7E', symObjAddr: 0x380, symBinAddr: 0x5226C, symSize: 0x1B4 }
  - { offset: 0x103EB3, size: 0x8, addend: 0x0, symName: '__ZN4core5slice29_$LT$impl$u20$$u5b$T$u5d$$GT$7reverse7revswap17hd5762bd7536f8f98E', symObjAddr: 0x534, symBinAddr: 0x52420, symSize: 0x1AC }
  - { offset: 0x103FA6, size: 0x8, addend: 0x0, symName: '__ZN4core5slice29_$LT$impl$u20$$u5b$T$u5d$$GT$8split_at17h7566d198b87dc17cE', symObjAddr: 0x6E0, symBinAddr: 0x525CC, symSize: 0xAC }
  - { offset: 0x10400B, size: 0x8, addend: 0x0, symName: __ZN4core5slice20copy_from_slice_impl17h971c7d4bd42e29efE, symObjAddr: 0x0, symBinAddr: 0x51EEC, symSize: 0xAC }
  - { offset: 0x104A34, size: 0x8, addend: 0x0, symName: __ZN3std9panicking12catch_unwind7do_call17h09bb64fd3afd6efbE, symObjAddr: 0x0, symBinAddr: 0x52678, symSize: 0x84 }
  - { offset: 0x104E52, size: 0x8, addend: 0x0, symName: __ZN3std9panicking12catch_unwind7do_call17h09bb64fd3afd6efbE, symObjAddr: 0x0, symBinAddr: 0x52678, symSize: 0x84 }
  - { offset: 0x104F4D, size: 0x8, addend: 0x0, symName: __ZN3std9panicking12catch_unwind7do_call17h0e07ae2e66af0791E, symObjAddr: 0x84, symBinAddr: 0x526FC, symSize: 0x94 }
  - { offset: 0x105048, size: 0x8, addend: 0x0, symName: __ZN3std9panicking12catch_unwind7do_call17h110ed0401ec63e10E, symObjAddr: 0x118, symBinAddr: 0x52790, symSize: 0x94 }
  - { offset: 0x105143, size: 0x8, addend: 0x0, symName: __ZN3std9panicking12catch_unwind7do_call17h307b2ce5005443d4E, symObjAddr: 0x1AC, symBinAddr: 0x52824, symSize: 0x98 }
  - { offset: 0x10523E, size: 0x8, addend: 0x0, symName: __ZN3std9panicking12catch_unwind7do_call17h5631957c08851e18E, symObjAddr: 0x244, symBinAddr: 0x528BC, symSize: 0x94 }
  - { offset: 0x105339, size: 0x8, addend: 0x0, symName: __ZN3std9panicking12catch_unwind7do_call17h582f08e7140052c4E, symObjAddr: 0x2D8, symBinAddr: 0x52950, symSize: 0x84 }
  - { offset: 0x105434, size: 0x8, addend: 0x0, symName: __ZN3std9panicking12catch_unwind7do_call17h6353f87c782b19e7E, symObjAddr: 0x35C, symBinAddr: 0x529D4, symSize: 0x94 }
  - { offset: 0x10552F, size: 0x8, addend: 0x0, symName: __ZN3std9panicking12catch_unwind7do_call17h6cc6be02ab368616E, symObjAddr: 0x3F0, symBinAddr: 0x52A68, symSize: 0x84 }
  - { offset: 0x10562A, size: 0x8, addend: 0x0, symName: __ZN3std9panicking12catch_unwind7do_call17h6dd0e001a9a3ae5fE, symObjAddr: 0x474, symBinAddr: 0x52AEC, symSize: 0x84 }
  - { offset: 0x105725, size: 0x8, addend: 0x0, symName: __ZN3std9panicking12catch_unwind7do_call17h6efccec750594554E, symObjAddr: 0x4F8, symBinAddr: 0x52B70, symSize: 0x94 }
  - { offset: 0x105820, size: 0x8, addend: 0x0, symName: __ZN3std9panicking12catch_unwind7do_call17ha273a33c7e8e801dE, symObjAddr: 0x58C, symBinAddr: 0x52C04, symSize: 0x88 }
  - { offset: 0x10591B, size: 0x8, addend: 0x0, symName: __ZN3std9panicking12catch_unwind7do_call17hf5083b987157e5a4E, symObjAddr: 0x614, symBinAddr: 0x52C8C, symSize: 0x94 }
  - { offset: 0x105A16, size: 0x8, addend: 0x0, symName: __ZN3std9panicking12catch_unwind7do_call17hfd61a9704f2fd18eE, symObjAddr: 0x6A8, symBinAddr: 0x52D20, symSize: 0x94 }
  - { offset: 0x105B11, size: 0x8, addend: 0x0, symName: __ZN3std9panicking12catch_unwind8do_catch17h009c666f6c2e802eE, symObjAddr: 0x73C, symBinAddr: 0x52DB4, symSize: 0x70 }
  - { offset: 0x105BA6, size: 0x8, addend: 0x0, symName: __ZN3std9panicking12catch_unwind8do_catch17h06b8db16e5d4df70E, symObjAddr: 0x7AC, symBinAddr: 0x52E24, symSize: 0x70 }
  - { offset: 0x105C3B, size: 0x8, addend: 0x0, symName: __ZN3std9panicking12catch_unwind8do_catch17h07b71fd348648892E, symObjAddr: 0x81C, symBinAddr: 0x52E94, symSize: 0x70 }
  - { offset: 0x105CD0, size: 0x8, addend: 0x0, symName: __ZN3std9panicking12catch_unwind8do_catch17h3bc19bb181713aa0E, symObjAddr: 0x88C, symBinAddr: 0x52F04, symSize: 0x70 }
  - { offset: 0x105D65, size: 0x8, addend: 0x0, symName: __ZN3std9panicking12catch_unwind8do_catch17h650676006c966dc0E, symObjAddr: 0x8FC, symBinAddr: 0x52F74, symSize: 0x70 }
  - { offset: 0x105DFA, size: 0x8, addend: 0x0, symName: __ZN3std9panicking12catch_unwind8do_catch17h74d8244c1487aa50E, symObjAddr: 0x96C, symBinAddr: 0x52FE4, symSize: 0x70 }
  - { offset: 0x105E8F, size: 0x8, addend: 0x0, symName: __ZN3std9panicking12catch_unwind8do_catch17h754ca6d7c000d496E, symObjAddr: 0x9DC, symBinAddr: 0x53054, symSize: 0x70 }
  - { offset: 0x105F24, size: 0x8, addend: 0x0, symName: __ZN3std9panicking12catch_unwind8do_catch17h7be3118eadf97f69E, symObjAddr: 0xA4C, symBinAddr: 0x530C4, symSize: 0x70 }
  - { offset: 0x105FB9, size: 0x8, addend: 0x0, symName: __ZN3std9panicking12catch_unwind8do_catch17h7e87f10e499e1deeE, symObjAddr: 0xABC, symBinAddr: 0x53134, symSize: 0x70 }
  - { offset: 0x10604E, size: 0x8, addend: 0x0, symName: __ZN3std9panicking12catch_unwind8do_catch17h808049122b50c1f9E, symObjAddr: 0xB2C, symBinAddr: 0x531A4, symSize: 0x70 }
  - { offset: 0x1060E3, size: 0x8, addend: 0x0, symName: __ZN3std9panicking12catch_unwind8do_catch17h904a334f4a30538cE, symObjAddr: 0xB9C, symBinAddr: 0x53214, symSize: 0x70 }
  - { offset: 0x106178, size: 0x8, addend: 0x0, symName: __ZN3std9panicking12catch_unwind8do_catch17hcee13964f2f40a76E, symObjAddr: 0xC0C, symBinAddr: 0x53284, symSize: 0x70 }
  - { offset: 0x10620D, size: 0x8, addend: 0x0, symName: __ZN3std9panicking12catch_unwind8do_catch17hd081a573c062a66aE, symObjAddr: 0xC7C, symBinAddr: 0x532F4, symSize: 0x70 }
  - { offset: 0x108D29, size: 0x8, addend: 0x0, symName: __ZN4core9panicking13assert_failed17h31aa05b228604de7E, symObjAddr: 0x0, symBinAddr: 0xFEEB0, symSize: 0x54 }
  - { offset: 0x108DB4, size: 0x8, addend: 0x0, symName: __ZN4core9panicking13assert_failed17h31aa05b228604de7E, symObjAddr: 0x0, symBinAddr: 0xFEEB0, symSize: 0x54 }
  - { offset: 0x109168, size: 0x8, addend: 0x0, symName: '__ZN96_$LT$pyo3..pycell..impl_..BorrowChecker$u20$as$u20$pyo3..pycell..impl_..PyClassBorrowChecker$GT$3new17h2aed6bb2415e6f4aE', symObjAddr: 0x0, symBinAddr: 0x53364, symSize: 0x40 }
  - { offset: 0x109189, size: 0x8, addend: 0x0, symName: '__ZN96_$LT$pyo3..pycell..impl_..BorrowChecker$u20$as$u20$pyo3..pycell..impl_..PyClassBorrowChecker$GT$3new17h2aed6bb2415e6f4aE', symObjAddr: 0x0, symBinAddr: 0x53364, symSize: 0x40 }
  - { offset: 0x109244, size: 0x8, addend: 0x0, symName: '__ZN4core5slice29_$LT$impl$u20$$u5b$T$u5d$$GT$18split_at_unchecked18precondition_check17h8f83d1ba82646de3E', symObjAddr: 0x0, symBinAddr: 0x533A4, symSize: 0x60 }
  - { offset: 0x109265, size: 0x8, addend: 0x0, symName: '__ZN4core5slice29_$LT$impl$u20$$u5b$T$u5d$$GT$18split_at_unchecked18precondition_check17h8f83d1ba82646de3E', symObjAddr: 0x0, symBinAddr: 0x533A4, symSize: 0x60 }
  - { offset: 0x1092BE, size: 0x8, addend: 0x0, symName: '__ZN4core5slice29_$LT$impl$u20$$u5b$T$u5d$$GT$22split_at_mut_unchecked18precondition_check17hda789cd4bc16ee6eE', symObjAddr: 0x60, symBinAddr: 0x53404, symSize: 0x60 }
  - { offset: 0x109368, size: 0x8, addend: 0x0, symName: __ZN4core4hash11BuildHasher8hash_one17h4c9e42e867ea923eE, symObjAddr: 0x0, symBinAddr: 0x53464, symSize: 0x84 }
  - { offset: 0x109384, size: 0x8, addend: 0x0, symName: __ZN4core4hash11BuildHasher8hash_one17h4c9e42e867ea923eE, symObjAddr: 0x0, symBinAddr: 0x53464, symSize: 0x84 }
  - { offset: 0x1093E9, size: 0x8, addend: 0x0, symName: __ZN4core4hash11BuildHasher8hash_one17h53f850d8139f5f5fE, symObjAddr: 0x84, symBinAddr: 0x534E8, symSize: 0x88 }
  - { offset: 0x109758, size: 0x8, addend: 0x0, symName: __ZN3std3sys12thread_local20abort_on_dtor_unwind17hb53134848d8d2ec0E, symObjAddr: 0x0, symBinAddr: 0x53570, symSize: 0x50 }
  - { offset: 0x109774, size: 0x8, addend: 0x0, symName: __ZN3std3sys12thread_local20abort_on_dtor_unwind17hb53134848d8d2ec0E, symObjAddr: 0x0, symBinAddr: 0x53570, symSize: 0x50 }
  - { offset: 0x109837, size: 0x8, addend: 0x0, symName: '__ZN102_$LT$rayon..iter..extend..ListVecFolder$LT$T$GT$$u20$as$u20$rayon..iter..plumbing..Folder$LT$T$GT$$GT$12consume_iter17h307b5691b67a3cb3E', symObjAddr: 0x0, symBinAddr: 0x535C0, symSize: 0x84 }
  - { offset: 0x109BF5, size: 0x8, addend: 0x0, symName: '__ZN102_$LT$rayon..iter..extend..ListVecFolder$LT$T$GT$$u20$as$u20$rayon..iter..plumbing..Folder$LT$T$GT$$GT$12consume_iter17h307b5691b67a3cb3E', symObjAddr: 0x0, symBinAddr: 0x535C0, symSize: 0x84 }
  - { offset: 0x109C43, size: 0x8, addend: 0x0, symName: '__ZN102_$LT$rayon..iter..extend..ListVecFolder$LT$T$GT$$u20$as$u20$rayon..iter..plumbing..Folder$LT$T$GT$$GT$8complete17h735a6493882683d0E', symObjAddr: 0x84, symBinAddr: 0x53644, symSize: 0xFC }
  - { offset: 0x109C94, size: 0x8, addend: 0x0, symName: '__ZN143_$LT$rayon..iter..extend..ListReducer$u20$as$u20$rayon..iter..plumbing..Reducer$LT$alloc..collections..linked_list..LinkedList$LT$T$GT$$GT$$GT$6reduce17h440ac78f8109013fE', symObjAddr: 0x180, symBinAddr: 0x53740, symSize: 0xB0 }
  - { offset: 0x109CFD, size: 0x8, addend: 0x0, symName: '__ZN97_$LT$rayon..iter..extend..ListVecConsumer$u20$as$u20$rayon..iter..plumbing..Consumer$LT$T$GT$$GT$11into_folder17hd13e54ba31db0749E', symObjAddr: 0x230, symBinAddr: 0x537F0, symSize: 0x38 }
  - { offset: 0x109D3D, size: 0x8, addend: 0x0, symName: '__ZN97_$LT$rayon..iter..extend..ListVecConsumer$u20$as$u20$rayon..iter..plumbing..Consumer$LT$T$GT$$GT$4full17h96a0a7271714a99fE', symObjAddr: 0x268, symBinAddr: 0x53828, symSize: 0x18 }
  - { offset: 0x109D72, size: 0x8, addend: 0x0, symName: '__ZN97_$LT$rayon..iter..extend..ListVecConsumer$u20$as$u20$rayon..iter..plumbing..Consumer$LT$T$GT$$GT$8split_at17hbed0fae19ac4949cE', symObjAddr: 0x280, symBinAddr: 0x53840, symSize: 0x10 }
  - { offset: 0x10A905, size: 0x8, addend: 0x0, symName: '__ZN3std6thread5local17LocalKey$LT$T$GT$4with17h21c77a7c824963b6E', symObjAddr: 0x0, symBinAddr: 0x53850, symSize: 0x5C }
  - { offset: 0x10CBF2, size: 0x8, addend: 0x0, symName: '__ZN3std6thread5local17LocalKey$LT$T$GT$4with17h21c77a7c824963b6E', symObjAddr: 0x0, symBinAddr: 0x53850, symSize: 0x5C }
  - { offset: 0x10CC96, size: 0x8, addend: 0x0, symName: '__ZN3std6thread5local17LocalKey$LT$T$GT$4with17h316eba39e6791a9dE', symObjAddr: 0x5C, symBinAddr: 0x538AC, symSize: 0x5C }
  - { offset: 0x10CD50, size: 0x8, addend: 0x0, symName: '__ZN3std6thread5local17LocalKey$LT$T$GT$8try_with17h96b8603be8137e4dE', symObjAddr: 0xB8, symBinAddr: 0x53908, symSize: 0x11C }
  - { offset: 0x10CED8, size: 0x8, addend: 0x0, symName: '__ZN3std6thread5local17LocalKey$LT$T$GT$8try_with17he6bc46ee334151e6E', symObjAddr: 0x1D4, symBinAddr: 0x53A24, symSize: 0x11C }
  - { offset: 0x10D03D, size: 0x8, addend: 0x0, symName: '__ZN10serde_core3ser5impls62_$LT$impl$u20$serde_core..ser..Serialize$u20$for$u20$$RF$T$GT$9serialize17hc304ce60503dd553E', symObjAddr: 0x0, symBinAddr: 0x53B40, symSize: 0x28 }
  - { offset: 0x10D6F4, size: 0x8, addend: 0x0, symName: '__ZN4core3ptr9const_ptr33_$LT$impl$u20$$BP$const$u20$T$GT$7is_null17hdaf3976eb9454bcaE', symObjAddr: 0xB8, symBinAddr: 0x53BF8, symSize: 0x18 }
  - { offset: 0x10D8FB, size: 0x8, addend: 0x0, symName: '__ZN145_$LT$core..option..Option$LT$T$GT$$u20$as$u20$core..ops..try_trait..FromResidual$LT$core..option..Option$LT$core..convert..Infallible$GT$$GT$$GT$13from_residual17h233e788923136a4dE', symObjAddr: 0x88, symBinAddr: 0x53BC8, symSize: 0x10 }
  - { offset: 0x10D92E, size: 0x8, addend: 0x0, symName: '__ZN145_$LT$core..option..Option$LT$T$GT$$u20$as$u20$core..ops..try_trait..FromResidual$LT$core..option..Option$LT$core..convert..Infallible$GT$$GT$$GT$13from_residual17hdcaeb679ee5e94caE', symObjAddr: 0x98, symBinAddr: 0x53BD8, symSize: 0x10 }
  - { offset: 0x10D961, size: 0x8, addend: 0x0, symName: '__ZN145_$LT$core..option..Option$LT$T$GT$$u20$as$u20$core..ops..try_trait..FromResidual$LT$core..option..Option$LT$core..convert..Infallible$GT$$GT$$GT$13from_residual17hf167a146e789951bE', symObjAddr: 0xA8, symBinAddr: 0x53BE8, symSize: 0x10 }
  - { offset: 0x10EB2D, size: 0x8, addend: 0x0, symName: '__ZN75_$LT$core..option..Option$LT$T$GT$$u20$as$u20$core..ops..try_trait..Try$GT$6branch17h2daeeee799a14be1E', symObjAddr: 0xE50, symBinAddr: 0x54990, symSize: 0x40 }
  - { offset: 0x10EB82, size: 0x8, addend: 0x0, symName: '__ZN75_$LT$core..option..Option$LT$T$GT$$u20$as$u20$core..ops..try_trait..Try$GT$6branch17h62cd914f4f2622ecE', symObjAddr: 0xE90, symBinAddr: 0x549D0, symSize: 0x40 }
  - { offset: 0x10ED5B, size: 0x8, addend: 0x0, symName: '__ZN4core5slice29_$LT$impl$u20$$u5b$T$u5d$$GT$15copy_from_slice17ha3dcd072abc72929E', symObjAddr: 0xD0, symBinAddr: 0x53C10, symSize: 0x34 }
  - { offset: 0x10EDC4, size: 0x8, addend: 0x0, symName: '__ZN4core5slice29_$LT$impl$u20$$u5b$T$u5d$$GT$18split_at_unchecked17h3d68d3a7fa3b1560E', symObjAddr: 0x104, symBinAddr: 0x53C44, symSize: 0xE8 }
  - { offset: 0x10EF09, size: 0x8, addend: 0x0, symName: '__ZN4core5slice29_$LT$impl$u20$$u5b$T$u5d$$GT$8split_at17h2faa9eeb4a8c1785E', symObjAddr: 0x1EC, symBinAddr: 0x53D2C, symSize: 0xAC }
  - { offset: 0x10FEBE, size: 0x8, addend: 0x0, symName: '__ZN10serde_core3ser5impls62_$LT$impl$u20$serde_core..ser..Serialize$u20$for$u20$$RF$T$GT$9serialize17hc304ce60503dd553E', symObjAddr: 0x0, symBinAddr: 0x53B40, symSize: 0x28 }
  - { offset: 0x10FF13, size: 0x8, addend: 0x0, symName: '__ZN10serde_core3ser5impls86_$LT$impl$u20$serde_core..ser..Serialize$u20$for$u20$core..option..Option$LT$T$GT$$GT$9serialize17h5eea731474696e1eE', symObjAddr: 0x28, symBinAddr: 0x53B68, symSize: 0x60 }
  - { offset: 0x11101B, size: 0x8, addend: 0x0, symName: '__ZN4core6option15Option$LT$T$GT$10ok_or_else17h18fc2c4a554e4f9cE', symObjAddr: 0x298, symBinAddr: 0x53DD8, symSize: 0x60 }
  - { offset: 0x111093, size: 0x8, addend: 0x0, symName: '__ZN4core6option15Option$LT$T$GT$10ok_or_else17h2dbfe97323afb241E', symObjAddr: 0x2F8, symBinAddr: 0x53E38, symSize: 0x78 }
  - { offset: 0x11110B, size: 0x8, addend: 0x0, symName: '__ZN4core6option15Option$LT$T$GT$10ok_or_else17hea24cbcae7765b4bE', symObjAddr: 0x370, symBinAddr: 0x53EB0, symSize: 0x78 }
  - { offset: 0x111183, size: 0x8, addend: 0x0, symName: '__ZN4core6option15Option$LT$T$GT$10ok_or_else17hf92256155e03ba7dE', symObjAddr: 0x3E8, symBinAddr: 0x53F28, symSize: 0x60 }
  - { offset: 0x1111FB, size: 0x8, addend: 0x0, symName: '__ZN4core6option15Option$LT$T$GT$10ok_or_else17hfa19caeb63b59014E', symObjAddr: 0x448, symBinAddr: 0x53F88, symSize: 0x6C }
  - { offset: 0x111273, size: 0x8, addend: 0x0, symName: '__ZN4core6option15Option$LT$T$GT$10ok_or_else17hfb8f60e0bcfd2e76E', symObjAddr: 0x4B4, symBinAddr: 0x53FF4, symSize: 0x6C }
  - { offset: 0x111309, size: 0x8, addend: 0x0, symName: '__ZN4core6option15Option$LT$T$GT$16unwrap_unchecked17haedd4b6378764d9fE', symObjAddr: 0x520, symBinAddr: 0x54060, symSize: 0x48 }
  - { offset: 0x111357, size: 0x8, addend: 0x0, symName: '__ZN4core6option15Option$LT$T$GT$3map17h20a9ddee79d06971E', symObjAddr: 0x568, symBinAddr: 0x540A8, symSize: 0x5C }
  - { offset: 0x1113CF, size: 0x8, addend: 0x0, symName: '__ZN4core6option15Option$LT$T$GT$3map17h6ca6bc9e769b1db3E', symObjAddr: 0x5C4, symBinAddr: 0x54104, symSize: 0x50 }
  - { offset: 0x111452, size: 0x8, addend: 0x0, symName: '__ZN4core6option15Option$LT$T$GT$3map17h6f38623c98d69763E', symObjAddr: 0x614, symBinAddr: 0x54154, symSize: 0x78 }
  - { offset: 0x1115F5, size: 0x8, addend: 0x0, symName: '__ZN4core6option15Option$LT$T$GT$3map17hcb23fadd3e4b0509E', symObjAddr: 0x68C, symBinAddr: 0x541CC, symSize: 0x60 }
  - { offset: 0x11166E, size: 0x8, addend: 0x0, symName: '__ZN4core6option15Option$LT$T$GT$3map17hf060e6fbb2b7ab48E', symObjAddr: 0x6EC, symBinAddr: 0x5422C, symSize: 0x50 }
  - { offset: 0x111BEE, size: 0x8, addend: 0x0, symName: '__ZN4core6option15Option$LT$T$GT$4take17h2b147f322ac49da8E', symObjAddr: 0x73C, symBinAddr: 0x5427C, symSize: 0x5C }
  - { offset: 0x111C45, size: 0x8, addend: 0x0, symName: '__ZN4core6option15Option$LT$T$GT$4take17h2bcb38b745e90697E', symObjAddr: 0x798, symBinAddr: 0x542D8, symSize: 0x40 }
  - { offset: 0x111CB6, size: 0x8, addend: 0x0, symName: '__ZN4core6option15Option$LT$T$GT$4take17h7a8787f336d988c0E', symObjAddr: 0x7D8, symBinAddr: 0x54318, symSize: 0x5C }
  - { offset: 0x111D0D, size: 0x8, addend: 0x0, symName: '__ZN4core6option15Option$LT$T$GT$4take17ha39e346193b72a65E', symObjAddr: 0x834, symBinAddr: 0x54374, symSize: 0x5C }
  - { offset: 0x111D64, size: 0x8, addend: 0x0, symName: '__ZN4core6option15Option$LT$T$GT$4take17hbc899377c9214a20E', symObjAddr: 0x890, symBinAddr: 0x543D0, symSize: 0x5C }
  - { offset: 0x111DBB, size: 0x8, addend: 0x0, symName: '__ZN4core6option15Option$LT$T$GT$4take17hc2311ae9339246e0E', symObjAddr: 0x8EC, symBinAddr: 0x5442C, symSize: 0x5C }
  - { offset: 0x111E12, size: 0x8, addend: 0x0, symName: '__ZN4core6option15Option$LT$T$GT$4take17hcfa75bf528a7385dE', symObjAddr: 0x948, symBinAddr: 0x54488, symSize: 0x5C }
  - { offset: 0x111EB5, size: 0x8, addend: 0x0, symName: '__ZN4core6option15Option$LT$T$GT$4take17he9d4e2da9dcb001eE', symObjAddr: 0x9A4, symBinAddr: 0x544E4, symSize: 0x40 }
  - { offset: 0x111F27, size: 0x8, addend: 0x0, symName: '__ZN4core6option15Option$LT$T$GT$5ok_or17hced7d723292e6205E', symObjAddr: 0x9E4, symBinAddr: 0x54524, symSize: 0x40 }
  - { offset: 0x111FAA, size: 0x8, addend: 0x0, symName: '__ZN4core6option15Option$LT$T$GT$6expect17hc4b677e8ed93d5b8E', symObjAddr: 0xA24, symBinAddr: 0x54564, symSize: 0x5C }
  - { offset: 0x111FE5, size: 0x8, addend: 0x0, symName: '__ZN4core6option15Option$LT$T$GT$6expect17hf286fb4e52d2d289E', symObjAddr: 0xA80, symBinAddr: 0x545C0, symSize: 0x74 }
  - { offset: 0x11202E, size: 0x8, addend: 0x0, symName: '__ZN4core6option15Option$LT$T$GT$6filter17hd0c01a31fd1fe37dE', symObjAddr: 0xAF4, symBinAddr: 0x54634, symSize: 0xC8 }
  - { offset: 0x11218C, size: 0x8, addend: 0x0, symName: '__ZN4core6option15Option$LT$T$GT$6insert17hf197b32f079593edE', symObjAddr: 0xBBC, symBinAddr: 0x546FC, symSize: 0xA8 }
  - { offset: 0x11224B, size: 0x8, addend: 0x0, symName: '__ZN4core6option15Option$LT$T$GT$7is_none17h86a5ca6eafccc657E', symObjAddr: 0xC64, symBinAddr: 0x547A4, symSize: 0x28 }
  - { offset: 0x1122BE, size: 0x8, addend: 0x0, symName: '__ZN4core6option15Option$LT$T$GT$7is_none17he73cce275ff30cacE', symObjAddr: 0xC8C, symBinAddr: 0x547CC, symSize: 0x20 }
  - { offset: 0x112315, size: 0x8, addend: 0x0, symName: '__ZN4core6option15Option$LT$T$GT$7is_some17h2503cee91bd56762E', symObjAddr: 0xCAC, symBinAddr: 0x547EC, symSize: 0x28 }
  - { offset: 0x112341, size: 0x8, addend: 0x0, symName: '__ZN4core6option15Option$LT$T$GT$7is_some17hac8ec2de37c35a59E', symObjAddr: 0xCD4, symBinAddr: 0x54814, symSize: 0x20 }
  - { offset: 0x112387, size: 0x8, addend: 0x0, symName: '__ZN4core6option15Option$LT$T$GT$7is_some17hea5cf9631dd452baE', symObjAddr: 0xCF4, symBinAddr: 0x54834, symSize: 0x28 }
  - { offset: 0x1123C0, size: 0x8, addend: 0x0, symName: '__ZN4core6option15Option$LT$T$GT$7replace17he4ad1cb99d31b75dE', symObjAddr: 0xD1C, symBinAddr: 0x5485C, symSize: 0x28 }
  - { offset: 0x112419, size: 0x8, addend: 0x0, symName: '__ZN4core6option15Option$LT$T$GT$8and_then17h17a5d4b3146220e1E', symObjAddr: 0xD44, symBinAddr: 0x54884, symSize: 0x58 }
  - { offset: 0x11253E, size: 0x8, addend: 0x0, symName: '__ZN4core6option15Option$LT$T$GT$8as_deref17h72d0067932e19bbbE', symObjAddr: 0xD9C, symBinAddr: 0x548DC, symSize: 0x6C }
  - { offset: 0x1125E7, size: 0x8, addend: 0x0, symName: '__ZN4core6option15Option$LT$T$GT$9unwrap_or17ha315002138063caaE', symObjAddr: 0xE08, symBinAddr: 0x54948, symSize: 0x48 }
  - { offset: 0x1126CE, size: 0x8, addend: 0x0, symName: __ZN10rayon_core6unwind14halt_unwinding17h09c60bd56081f61cE, symObjAddr: 0x0, symBinAddr: 0x54A10, symSize: 0x40 }
  - { offset: 0x112A82, size: 0x8, addend: 0x0, symName: __ZN10rayon_core6unwind14halt_unwinding17h09c60bd56081f61cE, symObjAddr: 0x0, symBinAddr: 0x54A10, symSize: 0x40 }
  - { offset: 0x112AC1, size: 0x8, addend: 0x0, symName: __ZN10rayon_core6unwind14halt_unwinding17h5446dc008e6830bcE, symObjAddr: 0x40, symBinAddr: 0x54A50, symSize: 0x40 }
  - { offset: 0x112B00, size: 0x8, addend: 0x0, symName: __ZN10rayon_core6unwind14halt_unwinding17h77e6876748e267b5E, symObjAddr: 0x80, symBinAddr: 0x54A90, symSize: 0x40 }
  - { offset: 0x112B3F, size: 0x8, addend: 0x0, symName: __ZN10rayon_core6unwind14halt_unwinding17h8d81c5b88268c3e1E, symObjAddr: 0xC0, symBinAddr: 0x54AD0, symSize: 0x40 }
  - { offset: 0x112B7E, size: 0x8, addend: 0x0, symName: __ZN10rayon_core6unwind14halt_unwinding17hcd5167e60bfcbeeaE, symObjAddr: 0x100, symBinAddr: 0x54B10, symSize: 0x40 }
  - { offset: 0x112BBD, size: 0x8, addend: 0x0, symName: __ZN10rayon_core6unwind14halt_unwinding17he1a2dbdfc48ee89bE, symObjAddr: 0x140, symBinAddr: 0x54B50, symSize: 0x40 }
  - { offset: 0x112BFC, size: 0x8, addend: 0x0, symName: __ZN10rayon_core6unwind14halt_unwinding17he20e798f5ac96eb9E, symObjAddr: 0x180, symBinAddr: 0x54B90, symSize: 0x40 }
  - { offset: 0x112C3B, size: 0x8, addend: 0x0, symName: __ZN10rayon_core6unwind14halt_unwinding17hf48d0241fd3fdd90E, symObjAddr: 0x1C0, symBinAddr: 0x54BD0, symSize: 0x40 }
  - { offset: 0x113D87, size: 0x8, addend: 0x0, symName: __ZN12flash_expert5cache11ExpertCache11get_or_load17h149e0e1682c3f983E, symObjAddr: 0x0, symBinAddr: 0x54C10, symSize: 0x8F8 }
  - { offset: 0x1151F1, size: 0x8, addend: 0x0, symName: __ZN12flash_expert5cache11ExpertCache11get_or_load17h149e0e1682c3f983E, symObjAddr: 0x0, symBinAddr: 0x54C10, symSize: 0x8F8 }
  - { offset: 0x1153D8, size: 0x8, addend: 0x0, symName: __ZN12flash_expert5cache11ExpertCache13current_bytes17h74f03372206b6bdbE, symObjAddr: 0x8F8, symBinAddr: 0x55508, symSize: 0x18 }
  - { offset: 0x115450, size: 0x8, addend: 0x0, symName: __ZN12flash_expert5cache11ExpertCache3new17h36f5ee5d2daf767aE, symObjAddr: 0x910, symBinAddr: 0x55520, symSize: 0x104 }
  - { offset: 0x1154DC, size: 0x8, addend: 0x0, symName: __ZN12flash_expert5cache11ExpertCache5stats17h617b60a02e45f3a2E, symObjAddr: 0xA14, symBinAddr: 0x55624, symSize: 0xD8 }
  - { offset: 0x1155D6, size: 0x8, addend: 0x0, symName: __ZN10rayon_core3job6JobRef2id17hb74094160eb6ac56E, symObjAddr: 0x0, symBinAddr: 0x556FC, symSize: 0x20 }
  - { offset: 0x115689, size: 0x8, addend: 0x0, symName: __ZN10rayon_core3job6JobRef2id17hb74094160eb6ac56E, symObjAddr: 0x0, symBinAddr: 0x556FC, symSize: 0x20 }
  - { offset: 0x1156AB, size: 0x8, addend: 0x0, symName: __ZN10rayon_core3job6JobRef7execute17h9cb780dcf1a0373fE, symObjAddr: 0x20, symBinAddr: 0x5571C, symSize: 0x30 }
  - { offset: 0x1156EB, size: 0x8, addend: 0x0, symName: __ZN3std4sync6poison4Flag4done17hde54f130dbc3f810E, symObjAddr: 0x0, symBinAddr: 0x5574C, symSize: 0x8C }
  - { offset: 0x115A24, size: 0x8, addend: 0x0, symName: __ZN3std4sync6poison4Flag4done17hde54f130dbc3f810E, symObjAddr: 0x0, symBinAddr: 0x5574C, symSize: 0x8C }
  - { offset: 0x115B12, size: 0x8, addend: 0x0, symName: __ZN3std4sync6poison4Flag5guard17h1713f0d7a60272bdE, symObjAddr: 0x8C, symBinAddr: 0x557D8, symSize: 0xCC }
  - { offset: 0x115BE0, size: 0x8, addend: 0x0, symName: '__ZN102_$LT$core..iter..adapters..zip..Zip$LT$A$C$B$GT$$u20$as$u20$core..iter..traits..iterator..Iterator$GT$4next17ha560bc06bb0abf03E', symObjAddr: 0x0, symBinAddr: 0x558A4, symSize: 0x24 }
  - { offset: 0x115C8B, size: 0x8, addend: 0x0, symName: '__ZN102_$LT$core..iter..adapters..zip..Zip$LT$A$C$B$GT$$u20$as$u20$core..iter..traits..iterator..Iterator$GT$4next17ha560bc06bb0abf03E', symObjAddr: 0x0, symBinAddr: 0x558A4, symSize: 0x24 }
  - { offset: 0x115CC9, size: 0x8, addend: 0x0, symName: '__ZN102_$LT$core..iter..adapters..zip..Zip$LT$A$C$B$GT$$u20$as$u20$core..iter..traits..iterator..Iterator$GT$4next17hdd2aaa6aa31f6646E', symObjAddr: 0x24, symBinAddr: 0x558C8, symSize: 0x24 }
  - { offset: 0x115D0D, size: 0x8, addend: 0x0, symName: '__ZN111_$LT$core..iter..adapters..zip..Zip$LT$A$C$B$GT$$u20$as$u20$core..iter..adapters..zip..ZipImpl$LT$A$C$B$GT$$GT$3new17h9ab0fef85a7d3db9E', symObjAddr: 0x48, symBinAddr: 0x558EC, symSize: 0x3C }
  - { offset: 0x115D59, size: 0x8, addend: 0x0, symName: '__ZN111_$LT$core..iter..adapters..zip..Zip$LT$A$C$B$GT$$u20$as$u20$core..iter..adapters..zip..ZipImpl$LT$A$C$B$GT$$GT$3new17hd5722c78b7f6be26E', symObjAddr: 0x84, symBinAddr: 0x55928, symSize: 0x3C }
  - { offset: 0x115DA5, size: 0x8, addend: 0x0, symName: '__ZN111_$LT$core..iter..adapters..zip..Zip$LT$A$C$B$GT$$u20$as$u20$core..iter..adapters..zip..ZipImpl$LT$A$C$B$GT$$GT$4next17h15d00bfd81727c45E', symObjAddr: 0xC0, symBinAddr: 0x55964, symSize: 0xE0 }
  - { offset: 0x115F06, size: 0x8, addend: 0x0, symName: '__ZN111_$LT$core..iter..adapters..zip..Zip$LT$A$C$B$GT$$u20$as$u20$core..iter..adapters..zip..ZipImpl$LT$A$C$B$GT$$GT$4next17h47771ae63f8cd6bbE', symObjAddr: 0x1A0, symBinAddr: 0x55A44, symSize: 0x160 }
  - { offset: 0x116180, size: 0x8, addend: 0x0, symName: '__ZN63_$LT$I$u20$as$u20$core..iter..traits..collect..IntoIterator$GT$9into_iter17h0a5aa1e169ec231dE', symObjAddr: 0x300, symBinAddr: 0x55BA4, symSize: 0x30 }
  - { offset: 0x1161B8, size: 0x8, addend: 0x0, symName: '__ZN63_$LT$I$u20$as$u20$core..iter..traits..collect..IntoIterator$GT$9into_iter17h2fbe7d5348ad0f4fE', symObjAddr: 0x330, symBinAddr: 0x55BD4, symSize: 0x30 }
  - { offset: 0x1161F0, size: 0x8, addend: 0x0, symName: '__ZN63_$LT$I$u20$as$u20$core..iter..traits..collect..IntoIterator$GT$9into_iter17h637079b1081d5721E', symObjAddr: 0x360, symBinAddr: 0x55C04, symSize: 0x30 }
  - { offset: 0x116F88, size: 0x8, addend: 0x0, symName: '__ZN105_$LT$std..ffi..os_str..OsString$u20$as$u20$core..ops..index..Index$LT$core..ops..range..RangeFull$GT$$GT$5index17hadc4006b3695b83cE', symObjAddr: 0x0, symBinAddr: 0x55C34, symSize: 0x20 }
  - { offset: 0x1173C9, size: 0x8, addend: 0x0, symName: '__ZN105_$LT$std..ffi..os_str..OsString$u20$as$u20$core..ops..index..Index$LT$core..ops..range..RangeFull$GT$$GT$5index17hadc4006b3695b83cE', symObjAddr: 0x0, symBinAddr: 0x55C34, symSize: 0x20 }
  - { offset: 0x1174B5, size: 0x8, addend: 0x0, symName: '__ZN3std3ffi6os_str85_$LT$impl$u20$core..convert..AsRef$LT$std..ffi..os_str..OsStr$GT$$u20$for$u20$str$GT$6as_ref17h00ce8c7686d0c6d5E', symObjAddr: 0x44, symBinAddr: 0x55C78, symSize: 0x18 }
  - { offset: 0x1174E9, size: 0x8, addend: 0x0, symName: '__ZN70_$LT$std..ffi..os_str..OsString$u20$as$u20$core..ops..deref..Deref$GT$5deref17hf7c20e0b6e5af663E', symObjAddr: 0x5C, symBinAddr: 0x55C90, symSize: 0x2C }
  - { offset: 0x1175C9, size: 0x8, addend: 0x0, symName: __ZN3std3ffi6os_str5OsStr15to_string_lossy17hcdf695a8656e67d7E, symObjAddr: 0x20, symBinAddr: 0x55C54, symSize: 0x24 }
  - { offset: 0x117634, size: 0x8, addend: 0x0, symName: '__ZN100_$LT$core..iter..adapters..take..Take$LT$I$GT$$u20$as$u20$core..iter..traits..iterator..Iterator$GT$4next17h4c8ce20ee4fcf1afE', symObjAddr: 0x0, symBinAddr: 0x55CBC, symSize: 0x58 }
  - { offset: 0x1176DF, size: 0x8, addend: 0x0, symName: '__ZN100_$LT$core..iter..adapters..take..Take$LT$I$GT$$u20$as$u20$core..iter..traits..iterator..Iterator$GT$4next17h4c8ce20ee4fcf1afE', symObjAddr: 0x0, symBinAddr: 0x55CBC, symSize: 0x58 }
  - { offset: 0x11779E, size: 0x8, addend: 0x0, symName: __ZN4core4iter6traits8iterator8Iterator9enumerate17ha3d153387326111dE, symObjAddr: 0x58, symBinAddr: 0x55D14, symSize: 0x18 }
  - { offset: 0x1177CF, size: 0x8, addend: 0x0, symName: __ZN4core4iter6traits8iterator8Iterator9enumerate17ha3d153387326111dE, symObjAddr: 0x58, symBinAddr: 0x55D14, symSize: 0x18 }
  - { offset: 0x117BBF, size: 0x8, addend: 0x0, symName: '__ZN82_$LT$serde_json..value..ser..Serializer$u20$as$u20$serde_core..ser..Serializer$GT$13serialize_f6417h73305da3d8131253E', symObjAddr: 0x0, symBinAddr: 0x55D2C, symSize: 0x3C }
  - { offset: 0x117E45, size: 0x8, addend: 0x0, symName: '__ZN82_$LT$serde_json..value..ser..Serializer$u20$as$u20$serde_core..ser..Serializer$GT$13serialize_f6417h73305da3d8131253E', symObjAddr: 0x0, symBinAddr: 0x55D2C, symSize: 0x3C }
  - { offset: 0x117E8A, size: 0x8, addend: 0x0, symName: '__ZN82_$LT$serde_json..value..ser..Serializer$u20$as$u20$serde_core..ser..Serializer$GT$13serialize_str17h87f39dec82d968ccE', symObjAddr: 0x3C, symBinAddr: 0x55D68, symSize: 0x60 }
  - { offset: 0x117ECF, size: 0x8, addend: 0x0, symName: '__ZN82_$LT$serde_json..value..ser..Serializer$u20$as$u20$serde_core..ser..Serializer$GT$13serialize_u6417h0fd4f79e9eee6c81E', symObjAddr: 0x9C, symBinAddr: 0x55DC8, symSize: 0x58 }
  - { offset: 0x117F14, size: 0x8, addend: 0x0, symName: '__ZN82_$LT$serde_json..value..ser..Serializer$u20$as$u20$serde_core..ser..Serializer$GT$14serialize_bool17h14a34bb7e1a44747E', symObjAddr: 0xF4, symBinAddr: 0x55E20, symSize: 0x2C }
  - { offset: 0x117F59, size: 0x8, addend: 0x0, symName: '__ZN82_$LT$serde_json..value..ser..Serializer$u20$as$u20$serde_core..ser..Serializer$GT$14serialize_none17h6c783704ab7a068dE', symObjAddr: 0x120, symBinAddr: 0x55E4C, symSize: 0x1C }
  - { offset: 0x117F90, size: 0x8, addend: 0x0, symName: '__ZN82_$LT$serde_json..value..ser..Serializer$u20$as$u20$serde_core..ser..Serializer$GT$14serialize_unit17h90ed7421572c79fbE', symObjAddr: 0x13C, symBinAddr: 0x55E68, symSize: 0x20 }
  - { offset: 0x117FCD, size: 0x8, addend: 0x0, symName: '__ZN88_$LT$serde_json..value..ser..MapKeySerializer$u20$as$u20$serde_core..ser..Serializer$GT$13serialize_str17ha31141bbccb71bf3E', symObjAddr: 0x15C, symBinAddr: 0x55E88, symSize: 0x44 }
  - { offset: 0x118DB2, size: 0x8, addend: 0x0, symName: '__ZN58_$LT$I$u20$as$u20$rayon..iter..IntoParallelRefIterator$GT$8par_iter17h02fecf395c5a93eaE', symObjAddr: 0x0, symBinAddr: 0x55ECC, symSize: 0x28 }
  - { offset: 0x118DCE, size: 0x8, addend: 0x0, symName: '__ZN58_$LT$I$u20$as$u20$rayon..iter..IntoParallelRefIterator$GT$8par_iter17h02fecf395c5a93eaE', symObjAddr: 0x0, symBinAddr: 0x55ECC, symSize: 0x28 }
  - { offset: 0x118E7F, size: 0x8, addend: 0x0, symName: '__ZN5alloc5boxed12Box$LT$T$GT$8from_raw17h8db836055a8b97f0E', symObjAddr: 0x0, symBinAddr: 0x55EF4, symSize: 0x3C }
  - { offset: 0x119D23, size: 0x8, addend: 0x0, symName: '__ZN5alloc5boxed12Box$LT$T$GT$8from_raw17h8db836055a8b97f0E', symObjAddr: 0x0, symBinAddr: 0x55EF4, symSize: 0x3C }
  - { offset: 0x119DBB, size: 0x8, addend: 0x0, symName: '__ZN5alloc5boxed12Box$LT$T$GT$8into_raw17h3cb98802821a1d9cE', symObjAddr: 0x3C, symBinAddr: 0x55F30, symSize: 0x14 }
  - { offset: 0x119DF8, size: 0x8, addend: 0x0, symName: '__ZN5alloc5boxed16Box$LT$T$C$A$GT$13new_uninit_in17ha131b4924fcec938E', symObjAddr: 0x50, symBinAddr: 0x55F44, symSize: 0x78 }
  - { offset: 0x119E56, size: 0x8, addend: 0x0, symName: '__ZN5alloc5boxed16Box$LT$T$C$A$GT$17try_new_uninit_in17h8b0a9e46a4030940E', symObjAddr: 0xC8, symBinAddr: 0x55FBC, symSize: 0x114 }
  - { offset: 0x119FF3, size: 0x8, addend: 0x0, symName: '__ZN5alloc5boxed16Box$LT$T$C$A$GT$6new_in17h8e31c0c073fb203dE', symObjAddr: 0x1DC, symBinAddr: 0x560D0, symSize: 0x128 }
  - { offset: 0x11A579, size: 0x8, addend: 0x0, symName: '__ZN56_$LT$usize$u20$as$u20$core..iter..traits..accum..Sum$GT$3sum17h01e1a8a84420bd62E', symObjAddr: 0x0, symBinAddr: 0x561F8, symSize: 0x18 }
  - { offset: 0x11A59F, size: 0x8, addend: 0x0, symName: '__ZN56_$LT$usize$u20$as$u20$core..iter..traits..accum..Sum$GT$3sum17h01e1a8a84420bd62E', symObjAddr: 0x0, symBinAddr: 0x561F8, symSize: 0x18 }
  - { offset: 0x11A5D5, size: 0x8, addend: 0x0, symName: '__ZN56_$LT$usize$u20$as$u20$core..iter..traits..accum..Sum$GT$3sum17h6ff82691125affd6E', symObjAddr: 0x18, symBinAddr: 0x56210, symSize: 0x30 }
  - { offset: 0x11A60F, size: 0x8, addend: 0x0, symName: '__ZN56_$LT$usize$u20$as$u20$core..iter..traits..accum..Sum$GT$3sum28_$u7b$$u7b$closure$u7d$$u7d$17h01a7da65419fc28aE', symObjAddr: 0x48, symBinAddr: 0x56240, symSize: 0x48 }
  - { offset: 0x11A65C, size: 0x8, addend: 0x0, symName: '__ZN56_$LT$usize$u20$as$u20$core..iter..traits..accum..Sum$GT$3sum28_$u7b$$u7b$closure$u7d$$u7d$17h0439543fe39e2926E', symObjAddr: 0x90, symBinAddr: 0x56288, symSize: 0x48 }
  - { offset: 0x11AC50, size: 0x8, addend: 0x0, symName: '__ZN4core3ops8function5impls71_$LT$impl$u20$core..ops..function..FnMut$LT$A$GT$$u20$for$u20$$RF$F$GT$8call_mut17h377f6cce0c89c815E', symObjAddr: 0x0, symBinAddr: 0x562D0, symSize: 0x40 }
  - { offset: 0x11AFF5, size: 0x8, addend: 0x0, symName: '__ZN4core3ops8function5impls71_$LT$impl$u20$core..ops..function..FnMut$LT$A$GT$$u20$for$u20$$RF$F$GT$8call_mut17h377f6cce0c89c815E', symObjAddr: 0x0, symBinAddr: 0x562D0, symSize: 0x40 }
  - { offset: 0x11B338, size: 0x8, addend: 0x0, symName: '__ZN5rayon6result138_$LT$impl$u20$rayon..iter..FromParallelIterator$LT$core..result..Result$LT$T$C$E$GT$$GT$$u20$for$u20$core..result..Result$LT$C$C$E$GT$$GT$13from_par_iter2ok17ha4e5d68c2c3bcbafE', symObjAddr: 0x40, symBinAddr: 0x56310, symSize: 0x14 }
  - { offset: 0x11B37B, size: 0x8, addend: 0x0, symName: '__ZN5rayon6result138_$LT$impl$u20$rayon..iter..FromParallelIterator$LT$core..result..Result$LT$T$C$E$GT$$GT$$u20$for$u20$core..result..Result$LT$C$C$E$GT$$GT$13from_par_iter2ok28_$u7b$$u7b$closure$u7d$$u7d$17h5999d479a45cd2f4E', symObjAddr: 0x54, symBinAddr: 0x56324, symSize: 0x248 }
  - { offset: 0x11B6B7, size: 0x8, addend: 0x0, symName: '__ZN98_$LT$hashbrown..control..bitmask..BitMask$u20$as$u20$core..iter..traits..collect..IntoIterator$GT$9into_iter17h31699af7ae4867f3E', symObjAddr: 0x0, symBinAddr: 0x5656C, symSize: 0x14 }
  - { offset: 0x11B6D8, size: 0x8, addend: 0x0, symName: '__ZN98_$LT$hashbrown..control..bitmask..BitMask$u20$as$u20$core..iter..traits..collect..IntoIterator$GT$9into_iter17h31699af7ae4867f3E', symObjAddr: 0x0, symBinAddr: 0x5656C, symSize: 0x14 }
  - { offset: 0x11B70A, size: 0x8, addend: 0x0, symName: '__ZN99_$LT$hashbrown..control..bitmask..BitMaskIter$u20$as$u20$core..iter..traits..iterator..Iterator$GT$4next17hd5cf18f97f8f9612E', symObjAddr: 0x14, symBinAddr: 0x56580, symSize: 0x90 }
  - { offset: 0x11B82A, size: 0x8, addend: 0x0, symName: __ZN9hashbrown7control7bitmask7BitMask11any_bit_set17ha40da2caedfc4d23E, symObjAddr: 0xA4, symBinAddr: 0x56610, symSize: 0x18 }
  - { offset: 0x11B9B0, size: 0x8, addend: 0x0, symName: __ZN9hashbrown7control7bitmask7BitMask13leading_zeros17h83181e9548c0ba3bE, symObjAddr: 0xBC, symBinAddr: 0x56628, symSize: 0x28 }
  - { offset: 0x11B9EF, size: 0x8, addend: 0x0, symName: __ZN9hashbrown7control7bitmask7BitMask14lowest_set_bit17h93b65b600cf39c5aE, symObjAddr: 0xE4, symBinAddr: 0x56650, symSize: 0x64 }
  - { offset: 0x11BA2E, size: 0x8, addend: 0x0, symName: __ZN9hashbrown7control7bitmask7BitMask14trailing_zeros17h3be4ee1bb8916143E, symObjAddr: 0x148, symBinAddr: 0x566B4, symSize: 0x2C }
  - { offset: 0x11BA6D, size: 0x8, addend: 0x0, symName: __ZN9hashbrown7control7bitmask7BitMask17remove_lowest_bit17hebc49b0eee394492E, symObjAddr: 0x174, symBinAddr: 0x566E0, symSize: 0x4C }
  - { offset: 0x11BA8F, size: 0x8, addend: 0x0, symName: __ZN9hashbrown7control7bitmask7BitMask22nonzero_trailing_zeros17heb4a415c7b356740E, symObjAddr: 0x1C0, symBinAddr: 0x5672C, symSize: 0x2C }
  - { offset: 0x11BADC, size: 0x8, addend: 0x0, symName: '__ZN4core3num7nonzero16NonZero$LT$T$GT$3new17h8da94c14432583b7E', symObjAddr: 0x0, symBinAddr: 0x56758, symSize: 0x10 }
  - { offset: 0x11BBC8, size: 0x8, addend: 0x0, symName: '__ZN4core3num7nonzero16NonZero$LT$T$GT$3new17h8da94c14432583b7E', symObjAddr: 0x0, symBinAddr: 0x56758, symSize: 0x10 }
  - { offset: 0x11BC12, size: 0x8, addend: 0x0, symName: __ZN10rayon_core5sleep5Sleep17new_internal_jobs17h66464784628977a9E, symObjAddr: 0x0, symBinAddr: 0x56768, symSize: 0x2C }
  - { offset: 0x11C1F5, size: 0x8, addend: 0x0, symName: __ZN10rayon_core5sleep5Sleep17new_internal_jobs17h66464784628977a9E, symObjAddr: 0x0, symBinAddr: 0x56768, symSize: 0x2C }
  - { offset: 0x11C233, size: 0x8, addend: 0x0, symName: __ZN10rayon_core5sleep5Sleep8new_jobs17h87dbf2ffd66fac92E, symObjAddr: 0x2C, symBinAddr: 0x56794, symSize: 0x110 }
  - { offset: 0x11C336, size: 0x8, addend: 0x0, symName: '__ZN108_$LT$alloc..collections..btree..map..Keys$LT$K$C$V$GT$$u20$as$u20$core..iter..traits..iterator..Iterator$GT$4next17ha60236c0608be02eE', symObjAddr: 0x0, symBinAddr: 0x568A4, symSize: 0x64 }
